

HI-TECH Software PIC LITE Macro Assembler V9.82 build 9453 
                                                                                               Thu Jun 12 15:50:45 2025

HI-TECH Software Omniscient Code Generator (Lite mode) build 9453
     1  0000                     opt subtitle "HI-TECH Software Omniscient Code Generator (Lite mode) build 9453"
     2                           
     3                           opt pagewidth 120
     4                           
     5                           	opt lm
     6                           
     7                           	processor	16F877A
     8                           clrc	macro
     9                           	bcf	3,0
    10  0000                     	endm
    11                           clrz	macro
    12                           	bcf	3,2
    13  0000                     	endm
    14                           setc	macro
    15                           	bsf	3,0
    16  0000                     	endm
    17                           setz	macro
    18                           	bsf	3,2
    19  0000                     	endm
    20                           skipc	macro
    21                           	btfss	3,0
    22  0000                     	endm
    23                           skipz	macro
    24                           	btfss	3,2
    25  0000                     	endm
    26                           skipnc	macro
    27                           	btfsc	3,0
    28  0000                     	endm
    29                           skipnz	macro
    30                           	btfsc	3,2
    31  0000                     	endm
    32  0000                     indf	equ	0
    33  0000                     indf0	equ	0
    34  0002                     pc	equ	2
    35  0002                     pcl	equ	2
    36  0003                     status	equ	3
    37  0004                     fsr	equ	4
    38  0004                     fsr0	equ	4
    39  0001                     c	equ	1
    40  0000                     z	equ	0
    41  000A                     pclath	equ	10
    42                           # 11 "E:\MPLAB_IDE\pic16f877a_car\PIC16F877A_CAR\main.c"
    43                           	psect config,class=CONFIG,delta=2 ;#
    44                           # 11 "E:\MPLAB_IDE\pic16f877a_car\PIC16F877A_CAR\main.c"
    45  2007  FF29               	dw 0xFF29 ;#
    46                           	FNCALL	_main,_Motor_Init
    47                           	FNCALL	_main,_Beep_Init
    48                           	FNCALL	_main,_LCD_Init
    49                           	FNCALL	_main,_Uart_Init
    50                           	FNCALL	_main,_GanWei_Init
    51                           	FNCALL	_main,_JY62_ShowData
    52                           	FNCALL	_main,_point_status
    53                           	FNCALL	_main,_Track_ONE
    54                           	FNCALL	_main,_Track_TWO
    55                           	FNCALL	_main,_Track_THREE
    56                           	FNCALL	_Track_THREE,_Motor_Status
    57                           	FNCALL	_Track_THREE,_Delay_ms
    58                           	FNCALL	_Track_THREE,_Deal_Yaw
    59                           	FNCALL	_Track_THREE,_Track_Run
    60                           	FNCALL	_Track_TWO,_Deal_Yaw
    61                           	FNCALL	_Track_TWO,_Track_Run
    62                           	FNCALL	_Track_TWO,_Motor_Status
    63                           	FNCALL	_Track_ONE,_Deal_Yaw
    64                           	FNCALL	_Track_ONE,_Motor_Status
    65                           	FNCALL	_Track_Run,_HD_Read
    66                           	FNCALL	_Track_Run,_Motor_Status
    67                           	FNCALL	_Track_Run,_Delay_ms
    68                           	FNCALL	_Deal_Yaw,_Motor_Status
    69                           	FNCALL	_Motor_Status,_Motor_SetRightSpeed
    70                           	FNCALL	_Motor_Status,_Motor_SetLeftSpeed
    71                           	FNCALL	_JY62_ShowData,_LCD_Init
    72                           	FNCALL	_JY62_ShowData,_LCD_ShowString
    73                           	FNCALL	_JY62_ShowData,_sprintf
    74                           	FNCALL	_JY62_ShowData,_DELAY
    75                           	FNCALL	_Motor_SetLeftSpeed,_PWM2_SetDutyCycle
    76                           	FNCALL	_Motor_SetRightSpeed,_PWM1_SetDutyCycle
    77                           	FNCALL	_LCD_ShowString,_ENABLE
    78                           	FNCALL	_LCD_ShowString,_ENABLE1
    79                           	FNCALL	_LCD_ShowString,_DELAY
    80                           	FNCALL	_LCD_Init,_DELAY
    81                           	FNCALL	_LCD_Init,_ENABLE
    82                           	FNCALL	_PWM2_SetDutyCycle,___wmul
    83                           	FNCALL	_PWM2_SetDutyCycle,___awdiv
    84                           	FNCALL	_PWM1_SetDutyCycle,___wmul
    85                           	FNCALL	_PWM1_SetDutyCycle,___awdiv
    86                           	FNCALL	_point_status,_Delay_ms
    87                           	FNCALL	_Motor_Init,_PWM_Init
    88                           	FNCALL	_ENABLE1,_DELAY
    89                           	FNCALL	_ENABLE,_DELAY
    90                           	FNCALL	_sprintf,___lwdiv
    91                           	FNCALL	_sprintf,___lwmod
    92                           	FNROOT	_main
    93                           	FNCALL	_uart_service,_JY62_ReceiveData
    94                           	FNCALL	_JY62_ReceiveData,___awtoft
    95                           	FNCALL	_JY62_ReceiveData,___ftmul
    96                           	FNCALL	_JY62_ReceiveData,___ftdiv
    97                           	FNCALL	_JY62_ReceiveData,___fttol
    98                           	FNCALL	___awtoft,___ftpack
    99                           	FNCALL	___ftmul,___ftpack
   100                           	FNCALL	___ftdiv,___ftpack
   101                           	FNCALL	intlevel1,_uart_service
   102                           	global	intlevel1
   103                           	FNROOT	intlevel1
   104                           	global	_dpowers
   105                           psect	strings,class=STRING,delta=2
   106                           global __pstrings
   107  0800                     __pstrings:
   108                           ;	global	stringdir,stringtab,__stringbase
   109  0800                     stringtab:
   110                           ;	String table - string pointers are 1 byte each
   111  0800  1BFF               	btfsc	(btemp+1),7
   112  0801  280A               	ljmp	stringcode
   113  0802  1383               	bcf	status,7
   114  0803  187F               	btfsc	(btemp+1),0
   115  0804  1783               	bsf	status,7
   116  0805  0800               	movf	indf,w
   117  0806  0A84               	incf fsr
   118  0807  1903               skipnz
   119  0808  0AFF               incf btemp+1
   120  0809  0008               	return
   121  080A                     stringcode:stringdir:
      + 080A                     stringdir:	
   122  080A  3008               movlw high(stringdir)
   123  080B  008A               movwf pclath
   124  080C  0804               movf fsr,w
   125  080D  0A84               incf fsr
   126  080E  0782               	addwf pc
   127  080F                     __stringbase:
   128  080F  3400               	retlw	0
   129                           psect	strings
   130                           	file	"C:\Program Files (x86)\HI-TECH Software\PICC\9.82\sources\doprnt.c"
   131                           	line	350
   132  0810                     _dpowers:
   133  0810  3401               	retlw	01h
   134  0811  3400               	retlw	0
   135                           
   136  0812  340A               	retlw	0Ah
   137  0813  3400               	retlw	0
   138                           
   139  0814  3464               	retlw	064h
   140  0815  3400               	retlw	0
   141                           
   142  0816  34E8               	retlw	0E8h
   143  0817  3403               	retlw	03h
   144                           
   145  0818  3410               	retlw	010h
   146  0819  3427               	retlw	027h
   147                           
   148                           	global	_dpowers
   149                           	global	_RxBuffer
   150                           	global	_BL_Flag
   151                           	global	_BL_Flag_Num
   152                           	global	_RxIndex
   153                           	global	_RxState
   154                           	global	_HD
   155                           	global	_Yaw
   156                           	global	_last_flag
   157                           	global	_offset
   158                           	global	_flag
   159                           	global	_runflag
   160                           	global	_CCP1CON
   161  0017                     _CCP1CON	set	23
   162                           	global	_CCP2CON
   163  001D                     _CCP2CON	set	29
   164                           	global	_CCPR1L
   165  0015                     _CCPR1L	set	21
   166                           	global	_CCPR2L
   167  001B                     _CCPR2L	set	27
   168                           	global	_PORTB
   169  0006                     _PORTB	set	6
   170                           	global	_PORTD
   171  0008                     _PORTD	set	8
   172                           	global	_RCREG
   173  001A                     _RCREG	set	26
   174                           	global	_RCSTA
   175  0018                     _RCSTA	set	24
   176                           	global	_T2CON
   177  0012                     _T2CON	set	18
   178                           	global	_CARRY
   179  0018                     _CARRY	set	24
   180                           	global	_CREN
   181  00C4                     _CREN	set	196
   182                           	global	_GIE
   183  005F                     _GIE	set	95
   184                           	global	_PEIE
   185  005E                     _PEIE	set	94
   186                           	global	_RA3
   187  002B                     _RA3	set	43
   188                           	global	_RA4
   189  002C                     _RA4	set	44
   190                           	global	_RA5
   191  002D                     _RA5	set	45
   192                           	global	_RB0
   193  0030                     _RB0	set	48
   194                           	global	_RB1
   195  0031                     _RB1	set	49
   196                           	global	_RB2
   197  0032                     _RB2	set	50
   198                           	global	_RB3
   199  0033                     _RB3	set	51
   200                           	global	_RB4
   201  0034                     _RB4	set	52
   202                           	global	_RB5
   203  0035                     _RB5	set	53
   204                           	global	_RB6
   205  0036                     _RB6	set	54
   206                           	global	_RB7
   207  0037                     _RB7	set	55
   208                           	global	_RC0
   209  0038                     _RC0	set	56
   210                           	global	_RC1
   211  0039                     _RC1	set	57
   212                           	global	_RC2
   213  003A                     _RC2	set	58
   214                           	global	_RC3
   215  003B                     _RC3	set	59
   216                           	global	_RC4
   217  003C                     _RC4	set	60
   218                           	global	_RC5
   219  003D                     _RC5	set	61
   220                           	global	_RCIF
   221  0065                     _RCIF	set	101
   222                           	global	_RE0
   223  0048                     _RE0	set	72
   224                           	global	_SPEN
   225  00C7                     _SPEN	set	199
   226                           	global	_ADCON1
   227  009F                     _ADCON1	set	159
   228                           	global	_PR2
   229  0092                     _PR2	set	146
   230                           	global	_SPBRG
   231  0099                     _SPBRG	set	153
   232                           	global	_TRISA
   233  0085                     _TRISA	set	133
   234                           	global	_TRISB
   235  0086                     _TRISB	set	134
   236                           	global	_TRISC
   237  0087                     _TRISC	set	135
   238                           	global	_TRISD
   239  0088                     _TRISD	set	136
   240                           	global	_TRISE
   241  0089                     _TRISE	set	137
   242                           	global	_TXSTA
   243  0098                     _TXSTA	set	152
   244                           	global	_RCIE
   245  0465                     _RCIE	set	1125
   246                           	global	_SYNC
   247  04C4                     _SYNC	set	1220
   248                           	global	_TRISC1
   249  0439                     _TRISC1	set	1081
   250                           	global	_TRISC2
   251  043A                     _TRISC2	set	1082
   252                           	global	_nRBPU
   253  040F                     _nRBPU	set	1039
   254                           	global	_EEADR
   255  010D                     _EEADR	set	269
   256                           	global	_EEDATA
   257  010C                     _EEDATA	set	268
   258                           	global	_EECON1
   259  018C                     _EECON1	set	396
   260                           	global	_EECON2
   261  018D                     _EECON2	set	397
   262                           	global	_RD
   263  0C60                     _RD	set	3168
   264                           	global	_WR
   265  0C61                     _WR	set	3169
   266                           	global	_WREN
   267  0C62                     _WREN	set	3170
   268                           	
   269  081A                     STR_1:	
   270  081A  3459               	retlw	89	;'Y'
   271  081B  3461               	retlw	97	;'a'
   272  081C  3477               	retlw	119	;'w'
   273  081D  343A               	retlw	58	;':'
   274  081E  3400               	retlw	0
   275                           psect	strings
   276                           	
   277  081F                     STR_2:	
   278  081F  3425               	retlw	37	;'%'
   279  0820  3464               	retlw	100	;'d'
   280  0821  3400               	retlw	0
   281                           psect	strings
   282                           	file	"PIC16F877A_CAR.as"
   283                           	line	#
   284                           psect cinit,class=CODE,delta=2
   285                           global start_initialization
   286  0A82                     start_initialization:
   287                           
   288                           psect	bssBANK0,class=BANK0,space=1
   289                           global __pbssBANK0
   290  005B                     __pbssBANK0:
   291  005B                     _RxBuffer:
   292  005B                            ds      11
   293                           
   294  0066                     _BL_Flag:
   295  0066                            ds      1
   296                           
   297  0067                     _BL_Flag_Num:
   298  0067                            ds      1
   299                           
   300  0068                     _RxIndex:
   301  0068                            ds      1
   302                           
   303  0069                     _RxState:
   304  0069                            ds      1
   305                           
   306                           psect	bssBANK1,class=BANK1,space=1
   307                           global __pbssBANK1
   308  00CB                     __pbssBANK1:
   309  00CB                     _HD:
   310  00CB                            ds      8
   311                           
   312  00D3                     _Yaw:
   313  00D3                            ds      2
   314                           
   315  00D5                     _last_flag:
   316  00D5                            ds      2
   317                           
   318  00D7                     _offset:
   319  00D7                            ds      2
   320                           
   321  00D9                     _flag:
   322  00D9                            ds      1
   323                           
   324  00DA                     _runflag:
   325  00DA                            ds      1
   326                           
   327                           psect clrtext,class=CODE,delta=2
   328                           global clear_ram
   329                           ;	Called with FSR containing the base address, and
   330                           ;	W with the last address+1
   331  0A3C                     clear_ram:
   332  0A3C  0064               	clrwdt			;clear the watchdog before getting into this loop
   333  0A3D                     clrloop:
   334  0A3D  0180               	clrf	indf		;clear RAM location pointed to by FSR
   335  0A3E  0A84               	incf	fsr,f		;increment pointer
   336  0A3F  0604               	xorwf	fsr,w		;XOR with final address
   337  0A40  1903               	btfsc	status,2	;have we reached the end yet?
   338  0A41  3400               	retlw	0		;all done for this memory range, return
   339  0A42  0604               	xorwf	fsr,w		;XOR again to restore value
   340  0A43  2A3D               	goto	clrloop		;do the next byte
   341                           
   342                           ; Clear objects allocated to BANK0
   343                           psect cinit,class=CODE,delta=2
   344  0A82  1383               	bcf	status, 7	;select IRP bank0
   345  0A83  305B               	movlw	low(__pbssBANK0)
   346  0A84  0084               	movwf	fsr
   347  0A85  306A               	movlw	low((__pbssBANK0)+0Fh)
   348  0A86  120A  158A  223C   	fcall	clear_ram
              120A  158A         
   349                           ; Clear objects allocated to BANK1
   350                           psect cinit,class=CODE,delta=2
   351  0A8B  30CB               	movlw	low(__pbssBANK1)
   352  0A8C  0084               	movwf	fsr
   353  0A8D  30DB               	movlw	low((__pbssBANK1)+010h)
   354  0A8E  120A  158A  223C   	fcall	clear_ram
              120A  158A         
   355                           psect cinit,class=CODE,delta=2
   356                           global end_of_initialization
   357                           
   358                           ;End of C runtime variable initialization code
   359                           
   360  0A93                     end_of_initialization:
   361  0A93  0183               clrf status
   362  0A94  120A  158A  2C77   ljmp _main	;jump to C main() function
   363                           psect	cstackBANK1,class=BANK1,space=1
   364                           global __pcstackBANK1
   365  00A0                     __pcstackBANK1:
   366                           	global	??_DELAY
   367  00A0                     ??_DELAY:	; 0 bytes @ 0x0
   368                           	global	??_Motor_Init
   369  00A0                     ??_Motor_Init:	; 0 bytes @ 0x0
   370                           	global	??_GanWei_Init
   371  00A0                     ??_GanWei_Init:	; 0 bytes @ 0x0
   372                           	global	??_Beep_Init
   373  00A0                     ??_Beep_Init:	; 0 bytes @ 0x0
   374                           	global	??_Uart_Init
   375  00A0                     ??_Uart_Init:	; 0 bytes @ 0x0
   376                           	global	??_PWM_Init
   377  00A0                     ??_PWM_Init:	; 0 bytes @ 0x0
   378                           	global	?_Delay_ms
   379  00A0                     ?_Delay_ms:	; 0 bytes @ 0x0
   380                           	global	??_HD_Read
   381  00A0                     ??_HD_Read:	; 0 bytes @ 0x0
   382                           	global	?___wmul
   383  00A0                     ?___wmul:	; 2 bytes @ 0x0
   384                           	global	?___lwdiv
   385  00A0                     ?___lwdiv:	; 2 bytes @ 0x0
   386                           	global	DELAY@i
   387  00A0                     DELAY@i:	; 2 bytes @ 0x0
   388                           	global	Delay_ms@delayMs
   389  00A0                     Delay_ms@delayMs:	; 2 bytes @ 0x0
   390                           	global	___wmul@multiplier
   391  00A0                     ___wmul@multiplier:	; 2 bytes @ 0x0
   392                           	global	___lwdiv@divisor
   393  00A0                     ___lwdiv@divisor:	; 2 bytes @ 0x0
   394  00A0                     	ds	2
   395                           	global	??_LCD_Init
   396  00A2                     ??_LCD_Init:	; 0 bytes @ 0x2
   397                           	global	?_LCD_ShowString
   398  00A2                     ?_LCD_ShowString:	; 0 bytes @ 0x2
   399                           	global	??_ENABLE
   400  00A2                     ??_ENABLE:	; 0 bytes @ 0x2
   401                           	global	??_ENABLE1
   402  00A2                     ??_ENABLE1:	; 0 bytes @ 0x2
   403                           	global	??_Delay_ms
   404  00A2                     ??_Delay_ms:	; 0 bytes @ 0x2
   405                           	global	LCD_ShowString@str
   406  00A2                     LCD_ShowString@str:	; 2 bytes @ 0x2
   407                           	global	___wmul@multiplicand
   408  00A2                     ___wmul@multiplicand:	; 2 bytes @ 0x2
   409                           	global	___lwdiv@dividend
   410  00A2                     ___lwdiv@dividend:	; 2 bytes @ 0x2
   411  00A2                     	ds	1
   412                           	global	Delay_ms@i
   413  00A3                     Delay_ms@i:	; 2 bytes @ 0x3
   414  00A3                     	ds	1
   415                           	global	??___wmul
   416  00A4                     ??___wmul:	; 0 bytes @ 0x4
   417                           	global	??___lwdiv
   418  00A4                     ??___lwdiv:	; 0 bytes @ 0x4
   419                           	global	LCD_ShowString@row
   420  00A4                     LCD_ShowString@row:	; 1 bytes @ 0x4
   421                           	global	___wmul@product
   422  00A4                     ___wmul@product:	; 2 bytes @ 0x4
   423  00A4                     	ds	1
   424                           	global	LCD_ShowString@col
   425  00A5                     LCD_ShowString@col:	; 1 bytes @ 0x5
   426                           	global	Delay_ms@j
   427  00A5                     Delay_ms@j:	; 1 bytes @ 0x5
   428                           	global	___lwdiv@quotient
   429  00A5                     ___lwdiv@quotient:	; 2 bytes @ 0x5
   430  00A5                     	ds	1
   431                           	global	??_LCD_ShowString
   432  00A6                     ??_LCD_ShowString:	; 0 bytes @ 0x6
   433                           	global	??_point_status
   434  00A6                     ??_point_status:	; 0 bytes @ 0x6
   435                           	global	?___awdiv
   436  00A6                     ?___awdiv:	; 2 bytes @ 0x6
   437                           	global	___awdiv@divisor
   438  00A6                     ___awdiv@divisor:	; 2 bytes @ 0x6
   439  00A6                     	ds	1
   440                           	global	LCD_ShowString@address
   441  00A7                     LCD_ShowString@address:	; 1 bytes @ 0x7
   442                           	global	___lwdiv@counter
   443  00A7                     ___lwdiv@counter:	; 1 bytes @ 0x7
   444  00A7                     	ds	1
   445                           	global	?___lwmod
   446  00A8                     ?___lwmod:	; 2 bytes @ 0x8
   447                           	global	___lwmod@divisor
   448  00A8                     ___lwmod@divisor:	; 2 bytes @ 0x8
   449                           	global	___awdiv@dividend
   450  00A8                     ___awdiv@dividend:	; 2 bytes @ 0x8
   451  00A8                     	ds	2
   452                           	global	??___awdiv
   453  00AA                     ??___awdiv:	; 0 bytes @ 0xA
   454                           	global	___lwmod@dividend
   455  00AA                     ___lwmod@dividend:	; 2 bytes @ 0xA
   456  00AA                     	ds	1
   457                           	global	___awdiv@counter
   458  00AB                     ___awdiv@counter:	; 1 bytes @ 0xB
   459  00AB                     	ds	1
   460                           	global	??___lwmod
   461  00AC                     ??___lwmod:	; 0 bytes @ 0xC
   462                           	global	___awdiv@sign
   463  00AC                     ___awdiv@sign:	; 1 bytes @ 0xC
   464  00AC                     	ds	1
   465                           	global	___lwmod@counter
   466  00AD                     ___lwmod@counter:	; 1 bytes @ 0xD
   467                           	global	___awdiv@quotient
   468  00AD                     ___awdiv@quotient:	; 2 bytes @ 0xD
   469  00AD                     	ds	1
   470                           	global	?_sprintf
   471  00AE                     ?_sprintf:	; 2 bytes @ 0xE
   472                           	global	sprintf@f
   473  00AE                     sprintf@f:	; 1 bytes @ 0xE
   474  00AE                     	ds	1
   475                           	global	??_PWM1_SetDutyCycle
   476  00AF                     ??_PWM1_SetDutyCycle:	; 0 bytes @ 0xF
   477                           	global	??_PWM2_SetDutyCycle
   478  00AF                     ??_PWM2_SetDutyCycle:	; 0 bytes @ 0xF
   479  00AF                     	ds	1
   480                           	global	PWM1_SetDutyCycle@dutyCycle
   481  00B0                     PWM1_SetDutyCycle@dutyCycle:	; 1 bytes @ 0x10
   482                           	global	PWM2_SetDutyCycle@dutyCycle
   483  00B0                     PWM2_SetDutyCycle@dutyCycle:	; 1 bytes @ 0x10
   484  00B0                     	ds	1
   485                           	global	??_sprintf
   486  00B1                     ??_sprintf:	; 0 bytes @ 0x11
   487                           	global	??_Motor_SetRightSpeed
   488  00B1                     ??_Motor_SetRightSpeed:	; 0 bytes @ 0x11
   489                           	global	??_Motor_SetLeftSpeed
   490  00B1                     ??_Motor_SetLeftSpeed:	; 0 bytes @ 0x11
   491  00B1                     	ds	1
   492                           	global	Motor_SetRightSpeed@speed
   493  00B2                     Motor_SetRightSpeed@speed:	; 1 bytes @ 0x12
   494                           	global	Motor_SetLeftSpeed@speed
   495  00B2                     Motor_SetLeftSpeed@speed:	; 1 bytes @ 0x12
   496  00B2                     	ds	1
   497                           	global	?_Motor_Status
   498  00B3                     ?_Motor_Status:	; 0 bytes @ 0x13
   499                           	global	Motor_Status@speedR
   500  00B3                     Motor_Status@speedR:	; 1 bytes @ 0x13
   501  00B3                     	ds	1
   502                           	global	??_Motor_Status
   503  00B4                     ??_Motor_Status:	; 0 bytes @ 0x14
   504                           	global	Motor_Status@speedL
   505  00B4                     Motor_Status@speedL:	; 1 bytes @ 0x14
   506                           	global	sprintf@ap
   507  00B4                     sprintf@ap:	; 1 bytes @ 0x14
   508  00B4                     	ds	1
   509                           	global	?_Deal_Yaw
   510  00B5                     ?_Deal_Yaw:	; 0 bytes @ 0x15
   511                           	global	??_Track_Run
   512  00B5                     ??_Track_Run:	; 0 bytes @ 0x15
   513                           	global	sprintf@flag
   514  00B5                     sprintf@flag:	; 1 bytes @ 0x15
   515                           	global	Deal_Yaw@yaw
   516  00B5                     Deal_Yaw@yaw:	; 2 bytes @ 0x15
   517  00B5                     	ds	1
   518                           	global	sprintf@prec
   519  00B6                     sprintf@prec:	; 1 bytes @ 0x16
   520  00B6                     	ds	1
   521                           	global	Deal_Yaw@aim_angel
   522  00B7                     Deal_Yaw@aim_angel:	; 2 bytes @ 0x17
   523                           	global	sprintf@_val
   524  00B7                     sprintf@_val:	; 4 bytes @ 0x17
   525  00B7                     	ds	2
   526                           	global	??_Deal_Yaw
   527  00B9                     ??_Deal_Yaw:	; 0 bytes @ 0x19
   528  00B9                     	ds	2
   529                           	global	??_Track_ONE
   530  00BB                     ??_Track_ONE:	; 0 bytes @ 0x1B
   531                           	global	??_Track_TWO
   532  00BB                     ??_Track_TWO:	; 0 bytes @ 0x1B
   533                           	global	??_Track_THREE
   534  00BB                     ??_Track_THREE:	; 0 bytes @ 0x1B
   535                           	global	sprintf@sp
   536  00BB                     sprintf@sp:	; 1 bytes @ 0x1B
   537  00BB                     	ds	1
   538                           	global	sprintf@c
   539  00BC                     sprintf@c:	; 1 bytes @ 0x1C
   540  00BC                     	ds	1
   541                           	global	?_JY62_ShowData
   542  00BD                     ?_JY62_ShowData:	; 0 bytes @ 0x1D
   543                           	global	JY62_ShowData@yaw
   544  00BD                     JY62_ShowData@yaw:	; 2 bytes @ 0x1D
   545  00BD                     	ds	2
   546                           	global	??_JY62_ShowData
   547  00BF                     ??_JY62_ShowData:	; 0 bytes @ 0x1F
   548  00BF                     	ds	1
   549                           	global	JY62_ShowData@str
   550  00C0                     JY62_ShowData@str:	; 11 bytes @ 0x20
   551  00C0                     	ds	11
   552                           	global	??_main
   553  00CB                     ??_main:	; 0 bytes @ 0x2B
   554                           psect	cstackCOMMON,class=COMMON,space=1
   555                           global __pcstackCOMMON
   556  0070                     __pcstackCOMMON:
   557                           	global	?_JY62_ReceiveData
   558  0070                     ?_JY62_ReceiveData:	; 0 bytes @ 0x0
   559                           	global	?_LCD_Init
   560  0070                     ?_LCD_Init:	; 0 bytes @ 0x0
   561                           	global	?_DELAY
   562  0070                     ?_DELAY:	; 0 bytes @ 0x0
   563                           	global	?_Motor_Init
   564  0070                     ?_Motor_Init:	; 0 bytes @ 0x0
   565                           	global	?_GanWei_Init
   566  0070                     ?_GanWei_Init:	; 0 bytes @ 0x0
   567                           	global	?_point_status
   568  0070                     ?_point_status:	; 0 bytes @ 0x0
   569                           	global	?_Track_ONE
   570  0070                     ?_Track_ONE:	; 0 bytes @ 0x0
   571                           	global	?_Track_TWO
   572  0070                     ?_Track_TWO:	; 0 bytes @ 0x0
   573                           	global	?_Track_THREE
   574  0070                     ?_Track_THREE:	; 0 bytes @ 0x0
   575                           	global	?_Beep_Init
   576  0070                     ?_Beep_Init:	; 0 bytes @ 0x0
   577                           	global	?_Uart_Init
   578  0070                     ?_Uart_Init:	; 0 bytes @ 0x0
   579                           	global	?_uart_service
   580  0070                     ?_uart_service:	; 0 bytes @ 0x0
   581                           	global	?_ENABLE
   582  0070                     ?_ENABLE:	; 0 bytes @ 0x0
   583                           	global	?_ENABLE1
   584  0070                     ?_ENABLE1:	; 0 bytes @ 0x0
   585                           	global	?_main
   586  0070                     ?_main:	; 0 bytes @ 0x0
   587                           	global	?_PWM_Init
   588  0070                     ?_PWM_Init:	; 0 bytes @ 0x0
   589                           	global	?_PWM1_SetDutyCycle
   590  0070                     ?_PWM1_SetDutyCycle:	; 0 bytes @ 0x0
   591                           	global	?_PWM2_SetDutyCycle
   592  0070                     ?_PWM2_SetDutyCycle:	; 0 bytes @ 0x0
   593                           	global	?_Motor_SetRightSpeed
   594  0070                     ?_Motor_SetRightSpeed:	; 0 bytes @ 0x0
   595                           	global	?_Motor_SetLeftSpeed
   596  0070                     ?_Motor_SetLeftSpeed:	; 0 bytes @ 0x0
   597                           	global	?_HD_Read
   598  0070                     ?_HD_Read:	; 0 bytes @ 0x0
   599                           	global	?_Track_Run
   600  0070                     ?_Track_Run:	; 0 bytes @ 0x0
   601                           	global	?___ftpack
   602  0070                     ?___ftpack:	; 3 bytes @ 0x0
   603                           	global	___ftpack@arg
   604  0070                     ___ftpack@arg:	; 3 bytes @ 0x0
   605  0070                     	ds	3
   606                           	global	___ftpack@exp
   607  0073                     ___ftpack@exp:	; 1 bytes @ 0x3
   608  0073                     	ds	1
   609                           	global	___ftpack@sign
   610  0074                     ___ftpack@sign:	; 1 bytes @ 0x4
   611  0074                     	ds	1
   612                           	global	??___ftpack
   613  0075                     ??___ftpack:	; 0 bytes @ 0x5
   614  0075                     	ds	3
   615                           	global	?___fttol
   616  0078                     ?___fttol:	; 4 bytes @ 0x8
   617                           	global	___fttol@f1
   618  0078                     ___fttol@f1:	; 3 bytes @ 0x8
   619  0078                     	ds	4
   620                           	global	??___awtoft
   621  007C                     ??___awtoft:	; 0 bytes @ 0xC
   622  007C                     	ds	2
   623                           psect	cstackBANK0,class=BANK0,space=1
   624                           global __pcstackBANK0
   625  0020                     __pcstackBANK0:
   626                           	global	??___fttol
   627  0020                     ??___fttol:	; 0 bytes @ 0x0
   628  0020                     	ds	4
   629                           	global	___fttol@sign1
   630  0024                     ___fttol@sign1:	; 1 bytes @ 0x4
   631  0024                     	ds	1
   632                           	global	___fttol@lval
   633  0025                     ___fttol@lval:	; 4 bytes @ 0x5
   634  0025                     	ds	4
   635                           	global	___fttol@exp1
   636  0029                     ___fttol@exp1:	; 1 bytes @ 0x9
   637  0029                     	ds	1
   638                           	global	?___awtoft
   639  002A                     ?___awtoft:	; 3 bytes @ 0xA
   640                           	global	___awtoft@c
   641  002A                     ___awtoft@c:	; 2 bytes @ 0xA
   642  002A                     	ds	3
   643                           	global	___awtoft@sign
   644  002D                     ___awtoft@sign:	; 1 bytes @ 0xD
   645  002D                     	ds	1
   646                           	global	?___ftmul
   647  002E                     ?___ftmul:	; 3 bytes @ 0xE
   648                           	global	___ftmul@f1
   649  002E                     ___ftmul@f1:	; 3 bytes @ 0xE
   650  002E                     	ds	3
   651                           	global	___ftmul@f2
   652  0031                     ___ftmul@f2:	; 3 bytes @ 0x11
   653  0031                     	ds	3
   654                           	global	??___ftmul
   655  0034                     ??___ftmul:	; 0 bytes @ 0x14
   656  0034                     	ds	4
   657                           	global	___ftmul@exp
   658  0038                     ___ftmul@exp:	; 1 bytes @ 0x18
   659  0038                     	ds	1
   660                           	global	___ftmul@f3_as_product
   661  0039                     ___ftmul@f3_as_product:	; 3 bytes @ 0x19
   662  0039                     	ds	3
   663                           	global	___ftmul@cntr
   664  003C                     ___ftmul@cntr:	; 1 bytes @ 0x1C
   665  003C                     	ds	1
   666                           	global	___ftmul@sign
   667  003D                     ___ftmul@sign:	; 1 bytes @ 0x1D
   668  003D                     	ds	1
   669                           	global	?___ftdiv
   670  003E                     ?___ftdiv:	; 3 bytes @ 0x1E
   671                           	global	___ftdiv@f2
   672  003E                     ___ftdiv@f2:	; 3 bytes @ 0x1E
   673  003E                     	ds	3
   674                           	global	___ftdiv@f1
   675  0041                     ___ftdiv@f1:	; 3 bytes @ 0x21
   676  0041                     	ds	3
   677                           	global	??___ftdiv
   678  0044                     ??___ftdiv:	; 0 bytes @ 0x24
   679  0044                     	ds	4
   680                           	global	___ftdiv@cntr
   681  0048                     ___ftdiv@cntr:	; 1 bytes @ 0x28
   682  0048                     	ds	1
   683                           	global	___ftdiv@f3
   684  0049                     ___ftdiv@f3:	; 3 bytes @ 0x29
   685  0049                     	ds	3
   686                           	global	___ftdiv@exp
   687  004C                     ___ftdiv@exp:	; 1 bytes @ 0x2C
   688  004C                     	ds	1
   689                           	global	___ftdiv@sign
   690  004D                     ___ftdiv@sign:	; 1 bytes @ 0x2D
   691  004D                     	ds	1
   692                           	global	??_JY62_ReceiveData
   693  004E                     ??_JY62_ReceiveData:	; 0 bytes @ 0x2E
   694  004E                     	ds	4
   695                           	global	JY62_ReceiveData@sum
   696  0052                     JY62_ReceiveData@sum:	; 1 bytes @ 0x32
   697  0052                     	ds	1
   698                           	global	JY62_ReceiveData@i
   699  0053                     JY62_ReceiveData@i:	; 1 bytes @ 0x33
   700  0053                     	ds	1
   701                           	global	JY62_ReceiveData@RxData
   702  0054                     JY62_ReceiveData@RxData:	; 1 bytes @ 0x34
   703  0054                     	ds	1
   704                           	global	??_uart_service
   705  0055                     ??_uart_service:	; 0 bytes @ 0x35
   706  0055                     	ds	5
   707                           	global	uart_service@RxData
   708  005A                     uart_service@RxData:	; 1 bytes @ 0x3A
   709  005A                     	ds	1
   710 ;;Data sizes: Strings 8, constant 10, data 0, bss 31, persistent 0 stack 0
   711 ;;Auto spaces:   Size  Autos    Used
   712 ;; COMMON          14     14      14
   713 ;; BANK0           80     59      74
   714 ;; BANK1           80     43      59
   715 ;; BANK3           96      0       0
   716 ;; BANK2           96      0       0
   717                           
   718 ;;
   719 ;; Pointer list with targets:
   720                           
   721 ;; ?___ftpack	float  size(1) Largest target is 0
   722 ;;
   723 ;; ?___lwdiv	unsigned int  size(1) Largest target is 0
   724 ;;
   725 ;; ?___lwmod	unsigned int  size(1) Largest target is 0
   726 ;;
   727 ;; ?___wmul	unsigned int  size(1) Largest target is 0
   728 ;;
   729 ;; ?___awdiv	int  size(1) Largest target is 0
   730 ;;
   731 ;; ?___fttol	long  size(1) Largest target is 0
   732 ;;
   733 ;; ?___ftmul	float  size(1) Largest target is 0
   734 ;;
   735 ;; ?___awtoft	float  size(1) Largest target is 0
   736 ;;
   737 ;; ?___ftdiv	float  size(1) Largest target is 0
   738 ;;
   739 ;; sprintf@f	PTR const unsigned char  size(1) Largest target is 3
   740 ;;		 -> STR_2(CODE[3]), 
   741 ;;
   742 ;; sprintf@sp	PTR unsigned char  size(1) Largest target is 11
   743 ;;		 -> JY62_ShowData@str(BANK1[11]), 
   744 ;;
   745 ;; ?_sprintf	int  size(1) Largest target is 0
   746 ;;
   747 ;; sprintf@ap	PTR void [1] size(1) Largest target is 2
   748 ;;		 -> ?_sprintf(BANK1[2]), 
   749 ;;
   750 ;; S8801$_cp	PTR const unsigned char  size(1) Largest target is 0
   751 ;;
   752 ;; _val._str._cp	PTR const unsigned char  size(1) Largest target is 0
   753 ;;
   754 ;; LCD_ShowString@str	PTR unsigned char  size(2) Largest target is 11
   755 ;;		 -> JY62_ShowData@str(BANK1[11]), STR_1(CODE[5]), 
   756 ;;
   757                           
   758                           
   759 ;;
   760 ;; Critical Paths under _main in COMMON
   761 ;;
   762 ;;   None.
   763 ;;
   764 ;; Critical Paths under _uart_service in COMMON
   765 ;;
   766 ;;   _JY62_ReceiveData->___awtoft
   767 ;;   ___awtoft->___fttol
   768 ;;   ___ftmul->___awtoft
   769 ;;   ___ftdiv->___awtoft
   770 ;;   ___fttol->___ftpack
   771 ;;
   772 ;; Critical Paths under _main in BANK0
   773 ;;
   774 ;;   None.
   775 ;;
   776 ;; Critical Paths under _uart_service in BANK0
   777 ;;
   778 ;;   _uart_service->_JY62_ReceiveData
   779 ;;   _JY62_ReceiveData->___ftdiv
   780 ;;   ___awtoft->___fttol
   781 ;;   ___ftmul->___awtoft
   782 ;;   ___ftdiv->___ftmul
   783 ;;
   784 ;; Critical Paths under _main in BANK1
   785 ;;
   786 ;;   _main->_JY62_ShowData
   787 ;;   _Track_THREE->_Deal_Yaw
   788 ;;   _Track_TWO->_Deal_Yaw
   789 ;;   _Track_ONE->_Deal_Yaw
   790 ;;   _Track_Run->_Motor_Status
   791 ;;   _Deal_Yaw->_Motor_Status
   792 ;;   _Motor_Status->_Motor_SetRightSpeed
   793 ;;   _Motor_Status->_Motor_SetLeftSpeed
   794 ;;   _JY62_ShowData->_sprintf
   795 ;;   _Motor_SetLeftSpeed->_PWM2_SetDutyCycle
   796 ;;   _Motor_SetRightSpeed->_PWM1_SetDutyCycle
   797 ;;   _LCD_ShowString->_DELAY
   798 ;;   _LCD_Init->_DELAY
   799 ;;   _PWM2_SetDutyCycle->___awdiv
   800 ;;   _PWM1_SetDutyCycle->___awdiv
   801 ;;   _point_status->_Delay_ms
   802 ;;   _ENABLE1->_DELAY
   803 ;;   _ENABLE->_DELAY
   804 ;;   _sprintf->___lwmod
   805 ;;   ___awdiv->___wmul
   806 ;;   ___lwmod->___lwdiv
   807 ;;
   808 ;; Critical Paths under _uart_service in BANK1
   809 ;;
   810 ;;   None.
   811 ;;
   812 ;; Critical Paths under _main in BANK3
   813 ;;
   814 ;;   None.
   815 ;;
   816 ;; Critical Paths under _uart_service in BANK3
   817 ;;
   818 ;;   None.
   819 ;;
   820 ;; Critical Paths under _main in BANK2
   821 ;;
   822 ;;   None.
   823 ;;
   824 ;; Critical Paths under _uart_service in BANK2
   825 ;;
   826 ;;   None.
   827                           
   828 ;;
   829 ;;Main: autosize = 0, tempsize = 0, incstack = 0, save=0
   830 ;;
   831                           
   832 ;;
   833 ;;Call Graph Tables:
   834 ;;
   835 ;; ---------------------------------------------------------------------------------
   836 ;; (Depth) Function   	        Calls       Base Space   Used Autos Params    Refs
   837 ;; ---------------------------------------------------------------------------------
   838 ;; (0) _main                                                 0     0      0   11733
   839 ;;                         _Motor_Init
   840 ;;                          _Beep_Init
   841 ;;                           _LCD_Init
   842 ;;                          _Uart_Init
   843 ;;                        _GanWei_Init
   844 ;;                      _JY62_ShowData
   845 ;;                       _point_status
   846 ;;                          _Track_ONE
   847 ;;                          _Track_TWO
   848 ;;                        _Track_THREE
   849 ;; ---------------------------------------------------------------------------------
   850 ;; (1) _Track_THREE                                          1     1      0    3924
   851 ;;                                             27 BANK1      1     1      0
   852 ;;                       _Motor_Status
   853 ;;                           _Delay_ms
   854 ;;                           _Deal_Yaw
   855 ;;                          _Track_Run
   856 ;; ---------------------------------------------------------------------------------
   857 ;; (1) _Track_TWO                                            0     0      0    3832
   858 ;;                           _Deal_Yaw
   859 ;;                          _Track_Run
   860 ;;                       _Motor_Status
   861 ;; ---------------------------------------------------------------------------------
   862 ;; (1) _Track_ONE                                            0     0      0    2508
   863 ;;                           _Deal_Yaw
   864 ;;                       _Motor_Status
   865 ;; ---------------------------------------------------------------------------------
   866 ;; (2) _Track_Run                                            1     1      0    1324
   867 ;;                                             21 BANK1      1     1      0
   868 ;;                            _HD_Read
   869 ;;                       _Motor_Status
   870 ;;                           _Delay_ms
   871 ;; ---------------------------------------------------------------------------------
   872 ;; (2) _Deal_Yaw                                             6     2      4    1276
   873 ;;                                             21 BANK1      6     2      4
   874 ;;                       _Motor_Status
   875 ;; ---------------------------------------------------------------------------------
   876 ;; (3) _Motor_Status                                         2     1      1    1232
   877 ;;                                             19 BANK1      2     1      1
   878 ;;                _Motor_SetRightSpeed
   879 ;;                 _Motor_SetLeftSpeed
   880 ;; ---------------------------------------------------------------------------------
   881 ;; (1) _JY62_ShowData                                       14    12      2    1285
   882 ;;                                             29 BANK1     14    12      2
   883 ;;                           _LCD_Init
   884 ;;                     _LCD_ShowString
   885 ;;                            _sprintf
   886 ;;                              _DELAY
   887 ;; ---------------------------------------------------------------------------------
   888 ;; (4) _Motor_SetLeftSpeed                                   2     2      0     594
   889 ;;                                             17 BANK1      2     2      0
   890 ;;                  _PWM2_SetDutyCycle
   891 ;; ---------------------------------------------------------------------------------
   892 ;; (4) _Motor_SetRightSpeed                                  2     2      0     594
   893 ;;                                             17 BANK1      2     2      0
   894 ;;                  _PWM1_SetDutyCycle
   895 ;; ---------------------------------------------------------------------------------
   896 ;; (2) _LCD_ShowString                                       6     2      4     273
   897 ;;                                              2 BANK1      6     2      4
   898 ;;                             _ENABLE
   899 ;;                            _ENABLE1
   900 ;;                              _DELAY
   901 ;; ---------------------------------------------------------------------------------
   902 ;; (2) _LCD_Init                                             0     0      0      92
   903 ;;                              _DELAY
   904 ;;                             _ENABLE
   905 ;; ---------------------------------------------------------------------------------
   906 ;; (5) _PWM2_SetDutyCycle                                    2     2      0     437
   907 ;;                                             15 BANK1      2     2      0
   908 ;;                             ___wmul
   909 ;;                            ___awdiv
   910 ;; ---------------------------------------------------------------------------------
   911 ;; (5) _PWM1_SetDutyCycle                                    2     2      0     437
   912 ;;                                             15 BANK1      2     2      0
   913 ;;                             ___wmul
   914 ;;                            ___awdiv
   915 ;; ---------------------------------------------------------------------------------
   916 ;; (1) _point_status                                         2     2      0      92
   917 ;;                                              6 BANK1      2     2      0
   918 ;;                           _Delay_ms
   919 ;; ---------------------------------------------------------------------------------
   920 ;; (1) _Motor_Init                                           0     0      0       0
   921 ;;                           _PWM_Init
   922 ;; ---------------------------------------------------------------------------------
   923 ;; (3) _ENABLE1                                              0     0      0      46
   924 ;;                              _DELAY
   925 ;; ---------------------------------------------------------------------------------
   926 ;; (3) _ENABLE                                               0     0      0      46
   927 ;;                              _DELAY
   928 ;; ---------------------------------------------------------------------------------
   929 ;; (2) _sprintf                                             15    12      3     798
   930 ;;                                             14 BANK1     15    12      3
   931 ;;                            ___lwdiv
   932 ;;                            ___lwmod
   933 ;; ---------------------------------------------------------------------------------
   934 ;; (6) ___awdiv                                              9     5      4     300
   935 ;;                                              6 BANK1      9     5      4
   936 ;;                             ___wmul (ARG)
   937 ;; ---------------------------------------------------------------------------------
   938 ;; (3) ___lwmod                                              6     2      4     159
   939 ;;                                              8 BANK1      6     2      4
   940 ;;                            ___lwdiv (ARG)
   941 ;; ---------------------------------------------------------------------------------
   942 ;; (3) ___lwdiv                                              8     4      4     162
   943 ;;                                              0 BANK1      8     4      4
   944 ;; ---------------------------------------------------------------------------------
   945 ;; (6) ___wmul                                               6     2      4      92
   946 ;;                                              0 BANK1      6     2      4
   947 ;; ---------------------------------------------------------------------------------
   948 ;; (3) _HD_Read                                              0     0      0       0
   949 ;; ---------------------------------------------------------------------------------
   950 ;; (3) _Delay_ms                                             6     4      2      92
   951 ;;                                              0 BANK1      6     4      2
   952 ;; ---------------------------------------------------------------------------------
   953 ;; (2) _PWM_Init                                             0     0      0       0
   954 ;; ---------------------------------------------------------------------------------
   955 ;; (1) _GanWei_Init                                          0     0      0       0
   956 ;; ---------------------------------------------------------------------------------
   957 ;; (2) _DELAY                                                2     2      0      46
   958 ;;                                              0 BANK1      2     2      0
   959 ;; ---------------------------------------------------------------------------------
   960 ;; (1) _Uart_Init                                            0     0      0       0
   961 ;; ---------------------------------------------------------------------------------
   962 ;; (1) _Beep_Init                                            0     0      0       0
   963 ;; ---------------------------------------------------------------------------------
   964 ;; Estimated maximum stack depth 6
   965 ;; ---------------------------------------------------------------------------------
   966 ;; (Depth) Function   	        Calls       Base Space   Used Autos Params    Refs
   967 ;; ---------------------------------------------------------------------------------
   968 ;; (7) _uart_service                                         6     6      0    1823
   969 ;;                                             53 BANK0      6     6      0
   970 ;;                   _JY62_ReceiveData
   971 ;; ---------------------------------------------------------------------------------
   972 ;; (8) _JY62_ReceiveData                                     7     7      0    1800
   973 ;;                                             46 BANK0      7     7      0
   974 ;;                           ___awtoft
   975 ;;                            ___ftmul
   976 ;;                            ___ftdiv
   977 ;;                            ___fttol
   978 ;; ---------------------------------------------------------------------------------
   979 ;; (9) ___awtoft                                             6     3      3     300
   980 ;;                                             12 COMMON     2     2      0
   981 ;;                                             10 BANK0      4     1      3
   982 ;;                           ___ftpack
   983 ;;                            ___fttol (ARG)
   984 ;; ---------------------------------------------------------------------------------
   985 ;; (9) ___ftmul                                             16    10      6     535
   986 ;;                                             14 BANK0     16    10      6
   987 ;;                           ___ftpack
   988 ;;                           ___awtoft (ARG)
   989 ;;                            ___fttol (ARG)
   990 ;; ---------------------------------------------------------------------------------
   991 ;; (9) ___ftdiv                                             16    10      6     489
   992 ;;                                             30 BANK0     16    10      6
   993 ;;                           ___ftpack
   994 ;;                            ___ftmul (ARG)
   995 ;;                           ___awtoft (ARG)
   996 ;;                            ___fttol (ARG)
   997 ;; ---------------------------------------------------------------------------------
   998 ;; (9) ___fttol                                             14    10      4     252
   999 ;;                                              8 COMMON     4     0      4
  1000 ;;                                              0 BANK0     10    10      0
  1001 ;;                           ___ftpack (ARG)
  1002 ;; ---------------------------------------------------------------------------------
  1003 ;; (10) ___ftpack                                            8     3      5     209
  1004 ;;                                              0 COMMON     8     3      5
  1005 ;; ---------------------------------------------------------------------------------
  1006 ;; Estimated maximum stack depth 10
  1007 ;; ---------------------------------------------------------------------------------
  1008                           
  1009 ;; Call Graph Graphs:
  1010                           
  1011 ;; _main (ROOT)
  1012 ;;   _Motor_Init
  1013 ;;     _PWM_Init
  1014 ;;   _Beep_Init
  1015 ;;   _LCD_Init
  1016 ;;     _DELAY
  1017 ;;     _ENABLE
  1018 ;;       _DELAY
  1019 ;;   _Uart_Init
  1020 ;;   _GanWei_Init
  1021 ;;   _JY62_ShowData
  1022 ;;     _LCD_Init
  1023 ;;       _DELAY
  1024 ;;       _ENABLE
  1025 ;;         _DELAY
  1026 ;;     _LCD_ShowString
  1027 ;;       _ENABLE
  1028 ;;         _DELAY
  1029 ;;       _ENABLE1
  1030 ;;         _DELAY
  1031 ;;       _DELAY
  1032 ;;     _sprintf
  1033 ;;       ___lwdiv
  1034 ;;       ___lwmod
  1035 ;;         ___lwdiv (ARG)
  1036 ;;     _DELAY
  1037 ;;   _point_status
  1038 ;;     _Delay_ms
  1039 ;;   _Track_ONE
  1040 ;;     _Deal_Yaw
  1041 ;;       _Motor_Status
  1042 ;;         _Motor_SetRightSpeed
  1043 ;;           _PWM1_SetDutyCycle
  1044 ;;             ___wmul
  1045 ;;             ___awdiv
  1046 ;;               ___wmul (ARG)
  1047 ;;         _Motor_SetLeftSpeed
  1048 ;;           _PWM2_SetDutyCycle
  1049 ;;             ___wmul
  1050 ;;             ___awdiv
  1051 ;;               ___wmul (ARG)
  1052 ;;     _Motor_Status
  1053 ;;       _Motor_SetRightSpeed
  1054 ;;         _PWM1_SetDutyCycle
  1055 ;;           ___wmul
  1056 ;;           ___awdiv
  1057 ;;             ___wmul (ARG)
  1058 ;;       _Motor_SetLeftSpeed
  1059 ;;         _PWM2_SetDutyCycle
  1060 ;;           ___wmul
  1061 ;;           ___awdiv
  1062 ;;             ___wmul (ARG)
  1063 ;;   _Track_TWO
  1064 ;;     _Deal_Yaw
  1065 ;;       _Motor_Status
  1066 ;;         _Motor_SetRightSpeed
  1067 ;;           _PWM1_SetDutyCycle
  1068 ;;             ___wmul
  1069 ;;             ___awdiv
  1070 ;;               ___wmul (ARG)
  1071 ;;         _Motor_SetLeftSpeed
  1072 ;;           _PWM2_SetDutyCycle
  1073 ;;             ___wmul
  1074 ;;             ___awdiv
  1075 ;;               ___wmul (ARG)
  1076 ;;     _Track_Run
  1077 ;;       _HD_Read
  1078 ;;       _Motor_Status
  1079 ;;         _Motor_SetRightSpeed
  1080 ;;           _PWM1_SetDutyCycle
  1081 ;;             ___wmul
  1082 ;;             ___awdiv
  1083 ;;               ___wmul (ARG)
  1084 ;;         _Motor_SetLeftSpeed
  1085 ;;           _PWM2_SetDutyCycle
  1086 ;;             ___wmul
  1087 ;;             ___awdiv
  1088 ;;               ___wmul (ARG)
  1089 ;;       _Delay_ms
  1090 ;;     _Motor_Status
  1091 ;;       _Motor_SetRightSpeed
  1092 ;;         _PWM1_SetDutyCycle
  1093 ;;           ___wmul
  1094 ;;           ___awdiv
  1095 ;;             ___wmul (ARG)
  1096 ;;       _Motor_SetLeftSpeed
  1097 ;;         _PWM2_SetDutyCycle
  1098 ;;           ___wmul
  1099 ;;           ___awdiv
  1100 ;;             ___wmul (ARG)
  1101 ;;   _Track_THREE
  1102 ;;     _Motor_Status
  1103 ;;       _Motor_SetRightSpeed
  1104 ;;         _PWM1_SetDutyCycle
  1105 ;;           ___wmul
  1106 ;;           ___awdiv
  1107 ;;             ___wmul (ARG)
  1108 ;;       _Motor_SetLeftSpeed
  1109 ;;         _PWM2_SetDutyCycle
  1110 ;;           ___wmul
  1111 ;;           ___awdiv
  1112 ;;             ___wmul (ARG)
  1113 ;;     _Delay_ms
  1114 ;;     _Deal_Yaw
  1115 ;;       _Motor_Status
  1116 ;;         _Motor_SetRightSpeed
  1117 ;;           _PWM1_SetDutyCycle
  1118 ;;             ___wmul
  1119 ;;             ___awdiv
  1120 ;;               ___wmul (ARG)
  1121 ;;         _Motor_SetLeftSpeed
  1122 ;;           _PWM2_SetDutyCycle
  1123 ;;             ___wmul
  1124 ;;             ___awdiv
  1125 ;;               ___wmul (ARG)
  1126 ;;     _Track_Run
  1127 ;;       _HD_Read
  1128 ;;       _Motor_Status
  1129 ;;         _Motor_SetRightSpeed
  1130 ;;           _PWM1_SetDutyCycle
  1131 ;;             ___wmul
  1132 ;;             ___awdiv
  1133 ;;               ___wmul (ARG)
  1134 ;;         _Motor_SetLeftSpeed
  1135 ;;           _PWM2_SetDutyCycle
  1136 ;;             ___wmul
  1137 ;;             ___awdiv
  1138 ;;               ___wmul (ARG)
  1139 ;;       _Delay_ms
  1140 ;;
  1141 ;; _uart_service (ROOT)
  1142 ;;   _JY62_ReceiveData
  1143 ;;     ___awtoft
  1144 ;;       ___ftpack
  1145 ;;       ___fttol (ARG)
  1146 ;;         ___ftpack (ARG)
  1147 ;;     ___ftmul
  1148 ;;       ___ftpack
  1149 ;;       ___awtoft (ARG)
  1150 ;;         ___ftpack
  1151 ;;         ___fttol (ARG)
  1152 ;;           ___ftpack (ARG)
  1153 ;;       ___fttol (ARG)
  1154 ;;         ___ftpack (ARG)
  1155 ;;     ___ftdiv
  1156 ;;       ___ftpack
  1157 ;;       ___ftmul (ARG)
  1158 ;;         ___ftpack
  1159 ;;         ___awtoft (ARG)
  1160 ;;           ___ftpack
  1161 ;;           ___fttol (ARG)
  1162 ;;             ___ftpack (ARG)
  1163 ;;         ___fttol (ARG)
  1164 ;;           ___ftpack (ARG)
  1165 ;;       ___awtoft (ARG)
  1166 ;;         ___ftpack
  1167 ;;         ___fttol (ARG)
  1168 ;;           ___ftpack (ARG)
  1169 ;;       ___fttol (ARG)
  1170 ;;         ___ftpack (ARG)
  1171 ;;     ___fttol
  1172 ;;       ___ftpack (ARG)
  1173 ;;
  1174                           
  1175 ;; Address spaces:
  1176                           
  1177 ;;Name               Size   Autos  Total    Cost      Usage
  1178 ;;BITCOMMON            E      0       0       0        0.0%
  1179 ;;EEDATA             100      0       0       0        0.0%
  1180 ;;NULL                 0      0       0       0        0.0%
  1181 ;;CODE                 0      0       0       0        0.0%
  1182 ;;COMMON               E      E       E       1      100.0%
  1183 ;;BITSFR0              0      0       0       1        0.0%
  1184 ;;SFR0                 0      0       0       1        0.0%
  1185 ;;BITSFR1              0      0       0       2        0.0%
  1186 ;;SFR1                 0      0       0       2        0.0%
  1187 ;;STACK                0      0       E       2        0.0%
  1188 ;;ABS                  0      0      93       3        0.0%
  1189 ;;BITBANK0            50      0       0       4        0.0%
  1190 ;;BITSFR3              0      0       0       4        0.0%
  1191 ;;SFR3                 0      0       0       4        0.0%
  1192 ;;BANK0               50     3B      4A       5       92.5%
  1193 ;;BITSFR2              0      0       0       5        0.0%
  1194 ;;SFR2                 0      0       0       5        0.0%
  1195 ;;BITBANK1            50      0       0       6        0.0%
  1196 ;;BANK1               50     2B      3B       7       73.8%
  1197 ;;BITBANK3            60      0       0       8        0.0%
  1198 ;;BANK3               60      0       0       9        0.0%
  1199 ;;BITBANK2            60      0       0      10        0.0%
  1200 ;;BANK2               60      0       0      11        0.0%
  1201 ;;DATA                 0      0      A1      12        0.0%
  1202                           
  1203                           	global	_main
  1204                           psect	maintext,global,class=CODE,delta=2
  1205                           global __pmaintext
  1206  0C77                     __pmaintext:
  1207                           
  1208 ;; *************** function _main *****************
  1209 ;; Defined at:
  1210 ;;		line 14 in file "E:\MPLAB_IDE\pic16f877a_car\PIC16F877A_CAR\main.c"
  1211 ;; Parameters:    Size  Location     Type
  1212 ;;		None
  1213 ;; Auto vars:     Size  Location     Type
  1214 ;;		None
  1215 ;; Return value:  Size  Location     Type
  1216 ;;		None               void
  1217 ;; Registers used:
  1218 ;;		wreg, fsr0l, fsr0h, status,2, status,0, btemp+1, pclath, cstack
  1219 ;; Tracked objects:
  1220 ;;		On entry : 17F/0
  1221 ;;		On exit  : 0/0
  1222 ;;		Unchanged: 0/0
  1223 ;; Data sizes:     COMMON   BANK0   BANK1   BANK3   BANK2
  1224 ;;      Params:         0       0       0       0       0
  1225 ;;      Locals:         0       0       0       0       0
  1226 ;;      Temps:          0       0       0       0       0
  1227 ;;      Totals:         0       0       0       0       0
  1228 ;;Total ram usage:        0 bytes
  1229 ;; Hardware stack levels required when called:   10
  1230 ;; This function calls:
  1231 ;;		_Motor_Init
  1232 ;;		_Beep_Init
  1233 ;;		_LCD_Init
  1234 ;;		_Uart_Init
  1235 ;;		_GanWei_Init
  1236 ;;		_JY62_ShowData
  1237 ;;		_point_status
  1238 ;;		_Track_ONE
  1239 ;;		_Track_TWO
  1240 ;;		_Track_THREE
  1241 ;; This function is called by:
  1242 ;;		Startup code after reset
  1243 ;; This function uses a non-reentrant model
  1244 ;;
  1245                           psect	maintext
  1246                           	file	"E:\MPLAB_IDE\pic16f877a_car\PIC16F877A_CAR\main.c"
  1247                           	line	14
  1248                           	global	__size_of_main
  1249  0040                     	__size_of_main	equ	__end_of_main-_main
  1250                           	
  1251  0C77                     _main:	
  1252 ;; hardware stack exceeded
  1253                           	opt	stack 0
  1254                           ; Regs used in _main: [wreg-fsr0h+status,2+status,0+btemp+1+pclath+cstack]
  1255                           	line	15
  1256                           	
  1257  0C77                     l10845:	
  1258                           ;main.c: 15: Motor_Init();
  1259  0C77  120A  158A  2260   	fcall	_Motor_Init
              120A  158A         
  1260                           	line	16
  1261                           	
  1262  0C7C                     l10847:	
  1263                           ;main.c: 16: Beep_Init();
  1264  0C7C  120A  158A  2235   	fcall	_Beep_Init
              120A  158A         
  1265                           	line	17
  1266                           	
  1267  0C81                     l10849:	
  1268                           ;main.c: 17: LCD_Init();
  1269  0C81  120A  158A  2437   	fcall	_LCD_Init
              120A  158A         
  1270                           	line	18
  1271                           	
  1272  0C86                     l10851:	
  1273                           ;main.c: 18: Uart_Init();
  1274  0C86  120A  158A  2297   	fcall	_Uart_Init
              120A  158A         
  1275                           	line	19
  1276                           	
  1277  0C8B                     l10853:	
  1278                           ;main.c: 19: GanWei_Init();
  1279  0C8B  120A  158A  222F   	fcall	_GanWei_Init
              120A  158A         
  1280  0C90  2C91               	goto	l10855
  1281                           	line	21
  1282                           ;main.c: 21: while (1)
  1283                           	
  1284  0C91                     l3508:	
  1285                           	line	23
  1286                           	
  1287  0C91                     l10855:	
  1288                           ;main.c: 22: {
  1289                           ;main.c: 23: JY62_ShowData(Yaw);
  1290  0C91  1683               	bsf	status, 5	;RP0=1, select bank1
  1291  0C92  1303               	bcf	status, 6	;RP1=0, select bank1
  1292  0C93  0854               	movf	(_Yaw+1)^080h,w
  1293  0C94  01BE               	clrf	(?_JY62_ShowData+1)^080h
  1294  0C95  07BE               	addwf	(?_JY62_ShowData+1)^080h
  1295  0C96  0853               	movf	(_Yaw)^080h,w
  1296  0C97  01BD               	clrf	(?_JY62_ShowData)^080h
  1297  0C98  07BD               	addwf	(?_JY62_ShowData)^080h
  1298                           
  1299  0C99  120A  158A  23FD   	fcall	_JY62_ShowData
              120A  158A         
  1300                           	line	24
  1301                           	
  1302  0C9E                     l10857:	
  1303                           ;main.c: 24: point_status();
  1304  0C9E  120A  158A  2635   	fcall	_point_status
              120A  158A         
  1305                           	line	25
  1306                           	
  1307  0CA3                     l10859:	
  1308                           ;main.c: 25: Track_ONE();
  1309  0CA3  120A  158A  22E8   	fcall	_Track_ONE
              120A  158A         
  1310                           	line	26
  1311                           	
  1312  0CA8                     l10861:	
  1313                           ;main.c: 26: Track_TWO();
  1314  0CA8  120A  158A  25DD   	fcall	_Track_TWO
              120A  158A         
  1315                           	line	27
  1316                           	
  1317  0CAD                     l10863:	
  1318                           ;main.c: 27: Track_THREE();
  1319  0CAD  120A  118A  259D   	fcall	_Track_THREE
              120A  158A         
  1320  0CB2  2C91               	goto	l10855
  1321                           	line	28
  1322                           	
  1323  0CB3                     l3509:	
  1324                           	line	21
  1325  0CB3  2C91               	goto	l10855
  1326                           	
  1327  0CB4                     l3510:	
  1328                           	line	29
  1329                           	
  1330  0CB4                     l3511:	
  1331                           	global	start
  1332  0CB4  120A  118A  2812   	ljmp	start
  1333                           	opt stack 0
  1334                           GLOBAL	__end_of_main
  1335  0CB7                     	__end_of_main:
  1336 ;; =============== function _main ends ============
  1337                           
  1338                           	signat	_main,88
  1339                           	global	_Track_THREE
  1340                           psect	text892,local,class=CODE,delta=2
  1341                           global __ptext892
  1342  059D                     __ptext892:
  1343                           
  1344 ;; *************** function _Track_THREE *****************
  1345 ;; Defined at:
  1346 ;;		line 125 in file "E:\MPLAB_IDE\pic16f877a_car\PIC16F877A_CAR\track.c"
  1347 ;; Parameters:    Size  Location     Type
  1348 ;;		None
  1349 ;; Auto vars:     Size  Location     Type
  1350 ;;		None
  1351 ;; Return value:  Size  Location     Type
  1352 ;;		None               void
  1353 ;; Registers used:
  1354 ;;		wreg, status,2, status,0, btemp+1, pclath, cstack
  1355 ;; Tracked objects:
  1356 ;;		On entry : 0/0
  1357 ;;		On exit  : 0/0
  1358 ;;		Unchanged: 0/0
  1359 ;; Data sizes:     COMMON   BANK0   BANK1   BANK3   BANK2
  1360 ;;      Params:         0       0       0       0       0
  1361 ;;      Locals:         0       0       0       0       0
  1362 ;;      Temps:          0       0       1       0       0
  1363 ;;      Totals:         0       0       1       0       0
  1364 ;;Total ram usage:        1 bytes
  1365 ;; Hardware stack levels used:    1
  1366 ;; Hardware stack levels required when called:    9
  1367 ;; This function calls:
  1368 ;;		_Motor_Status
  1369 ;;		_Delay_ms
  1370 ;;		_Deal_Yaw
  1371 ;;		_Track_Run
  1372 ;; This function is called by:
  1373 ;;		_main
  1374 ;; This function uses a non-reentrant model
  1375 ;;
  1376                           psect	text892
  1377                           	file	"E:\MPLAB_IDE\pic16f877a_car\PIC16F877A_CAR\track.c"
  1378                           	line	125
  1379                           	global	__size_of_Track_THREE
  1380  00AE                     	__size_of_Track_THREE	equ	__end_of_Track_THREE-_Track_THREE
  1381                           	
  1382  059D                     _Track_THREE:	
  1383 ;; hardware stack exceeded
  1384                           	opt	stack 0
  1385                           ; Regs used in _Track_THREE: [wreg+status,2+status,0+btemp+1+pclath+cstack]
  1386                           	line	127
  1387                           	
  1388  059D                     l10823:	
  1389                           ;track.c: 127: Motor_Status(0,0);
  1390  059D  1683               	bsf	status, 5	;RP0=1, select bank1
  1391  059E  1303               	bcf	status, 6	;RP1=0, select bank1
  1392  059F  01B3               	clrf	(?_Motor_Status)^080h
  1393  05A0  3000               	movlw	(0)
  1394  05A1  120A  158A  2270   	fcall	_Motor_Status
              120A  118A         
  1395                           	line	128
  1396                           ;track.c: 128: Delay_ms(3000);
  1397  05A6  30B8               	movlw	low(0BB8h)
  1398  05A7  1683               	bsf	status, 5	;RP0=1, select bank1
  1399  05A8  1303               	bcf	status, 6	;RP1=0, select bank1
  1400  05A9  00A0               	movwf	(?_Delay_ms)^080h
  1401  05AA  300B               	movlw	high(0BB8h)
  1402  05AB  00A1               	movwf	((?_Delay_ms)^080h)+1
  1403  05AC  120A  158A  2364   	fcall	_Delay_ms
              120A  118A         
  1404                           	line	129
  1405                           ;track.c: 129: Motor_Status(35,20);
  1406  05B1  3014               	movlw	(014h)
  1407  05B2  1683               	bsf	status, 5	;RP0=1, select bank1
  1408  05B3  1303               	bcf	status, 6	;RP1=0, select bank1
  1409  05B4  00BB               	movwf	(??_Track_THREE+0)^080h+0
  1410  05B5  083B               	movf	(??_Track_THREE+0)^080h+0,w
  1411  05B6  00B3               	movwf	(?_Motor_Status)^080h
  1412  05B7  3023               	movlw	(023h)
  1413  05B8  120A  158A  2270   	fcall	_Motor_Status
              120A  118A         
  1414                           	line	130
  1415                           ;track.c: 130: Delay_ms(3000);
  1416  05BD  30B8               	movlw	low(0BB8h)
  1417  05BE  1683               	bsf	status, 5	;RP0=1, select bank1
  1418  05BF  1303               	bcf	status, 6	;RP1=0, select bank1
  1419  05C0  00A0               	movwf	(?_Delay_ms)^080h
  1420  05C1  300B               	movlw	high(0BB8h)
  1421  05C2  00A1               	movwf	((?_Delay_ms)^080h)+1
  1422  05C3  120A  158A  2364   	fcall	_Delay_ms
              120A  118A         
  1423                           	line	131
  1424                           	
  1425  05C8                     l10825:	
  1426                           ;track.c: 131: Deal_Yaw(Yaw,-36);
  1427  05C8  1683               	bsf	status, 5	;RP0=1, select bank1
  1428  05C9  1303               	bcf	status, 6	;RP1=0, select bank1
  1429  05CA  0854               	movf	(_Yaw+1)^080h,w
  1430  05CB  01B6               	clrf	(?_Deal_Yaw+1)^080h
  1431  05CC  07B6               	addwf	(?_Deal_Yaw+1)^080h
  1432  05CD  0853               	movf	(_Yaw)^080h,w
  1433  05CE  01B5               	clrf	(?_Deal_Yaw)^080h
  1434  05CF  07B5               	addwf	(?_Deal_Yaw)^080h
  1435                           
  1436  05D0  30DC               	movlw	low(-36)
  1437  05D1  00B7               	movwf	0+(?_Deal_Yaw)^080h+02h
  1438  05D2  30FF               	movlw	high(-36)
  1439  05D3  00B8               	movwf	(0+(?_Deal_Yaw)^080h+02h)+1
  1440  05D4  120A  118A  26F1   	fcall	_Deal_Yaw
              120A  118A         
  1441                           	line	134
  1442                           	
  1443  05D9                     l10827:	
  1444                           ;track.c: 134: if(runflag==1)
  1445  05D9  1683               	bsf	status, 5	;RP0=1, select bank1
  1446  05DA  1303               	bcf	status, 6	;RP1=0, select bank1
  1447  05DB  085A               	movf	(_runflag)^080h,w
  1448  05DC  3A01               	xorlw	01h
  1449  05DD  1D03               	skipz
  1450  05DE  2DE0               	goto	u5581
  1451  05DF  2DE1               	goto	u5580
  1452  05E0                     u5581:
  1453  05E0  2DE7               	goto	l10831
  1454  05E1                     u5580:
  1455                           	line	135
  1456                           	
  1457  05E1                     l10829:	
  1458                           ;track.c: 135: Track_Run();
  1459  05E1  120A  118A  2015   	fcall	_Track_Run
              120A  118A         
  1460  05E6  2DE7               	goto	l10831
  1461                           	
  1462  05E7                     l7099:	
  1463                           	line	138
  1464                           	
  1465  05E7                     l10831:	
  1466                           ;track.c: 138: if(runflag==2){
  1467  05E7  1683               	bsf	status, 5	;RP0=1, select bank1
  1468  05E8  1303               	bcf	status, 6	;RP1=0, select bank1
  1469  05E9  085A               	movf	(_runflag)^080h,w
  1470  05EA  3A02               	xorlw	02h
  1471  05EB  1D03               	skipz
  1472  05EC  2DEE               	goto	u5591
  1473  05ED  2DEF               	goto	u5590
  1474  05EE                     u5591:
  1475  05EE  2E2A               	goto	l10837
  1476  05EF                     u5590:
  1477                           	line	139
  1478                           	
  1479  05EF                     l10833:	
  1480                           ;track.c: 139: Motor_Status(0,0);
  1481  05EF  01B3               	clrf	(?_Motor_Status)^080h
  1482  05F0  3000               	movlw	(0)
  1483  05F1  120A  158A  2270   	fcall	_Motor_Status
              120A  118A         
  1484                           	line	140
  1485                           ;track.c: 140: Delay_ms(3000);
  1486  05F6  30B8               	movlw	low(0BB8h)
  1487  05F7  1683               	bsf	status, 5	;RP0=1, select bank1
  1488  05F8  1303               	bcf	status, 6	;RP1=0, select bank1
  1489  05F9  00A0               	movwf	(?_Delay_ms)^080h
  1490  05FA  300B               	movlw	high(0BB8h)
  1491  05FB  00A1               	movwf	((?_Delay_ms)^080h)+1
  1492  05FC  120A  158A  2364   	fcall	_Delay_ms
              120A  118A         
  1493                           	line	141
  1494                           ;track.c: 141: Motor_Status(20,40);
  1495  0601  3028               	movlw	(028h)
  1496  0602  1683               	bsf	status, 5	;RP0=1, select bank1
  1497  0603  1303               	bcf	status, 6	;RP1=0, select bank1
  1498  0604  00BB               	movwf	(??_Track_THREE+0)^080h+0
  1499  0605  083B               	movf	(??_Track_THREE+0)^080h+0,w
  1500  0606  00B3               	movwf	(?_Motor_Status)^080h
  1501  0607  3014               	movlw	(014h)
  1502  0608  120A  158A  2270   	fcall	_Motor_Status
              120A  118A         
  1503                           	line	142
  1504                           ;track.c: 142: Delay_ms(3000);
  1505  060D  30B8               	movlw	low(0BB8h)
  1506  060E  1683               	bsf	status, 5	;RP0=1, select bank1
  1507  060F  1303               	bcf	status, 6	;RP1=0, select bank1
  1508  0610  00A0               	movwf	(?_Delay_ms)^080h
  1509  0611  300B               	movlw	high(0BB8h)
  1510  0612  00A1               	movwf	((?_Delay_ms)^080h)+1
  1511  0613  120A  158A  2364   	fcall	_Delay_ms
              120A  118A         
  1512                           	line	143
  1513                           	
  1514  0618                     l10835:	
  1515                           ;track.c: 143: Deal_Yaw(Yaw,140);
  1516  0618  1683               	bsf	status, 5	;RP0=1, select bank1
  1517  0619  1303               	bcf	status, 6	;RP1=0, select bank1
  1518  061A  0854               	movf	(_Yaw+1)^080h,w
  1519  061B  01B6               	clrf	(?_Deal_Yaw+1)^080h
  1520  061C  07B6               	addwf	(?_Deal_Yaw+1)^080h
  1521  061D  0853               	movf	(_Yaw)^080h,w
  1522  061E  01B5               	clrf	(?_Deal_Yaw)^080h
  1523  061F  07B5               	addwf	(?_Deal_Yaw)^080h
  1524                           
  1525  0620  308C               	movlw	low(08Ch)
  1526  0621  00B7               	movwf	0+(?_Deal_Yaw)^080h+02h
  1527  0622  3000               	movlw	high(08Ch)
  1528  0623  00B8               	movwf	(0+(?_Deal_Yaw)^080h+02h)+1
  1529  0624  120A  118A  26F1   	fcall	_Deal_Yaw
              120A  118A         
  1530  0629  2E2A               	goto	l10837
  1531                           	line	144
  1532                           	
  1533  062A                     l7100:	
  1534                           	line	147
  1535                           	
  1536  062A                     l10837:	
  1537                           ;track.c: 144: }
  1538                           ;track.c: 147: if(runflag==3)
  1539  062A  1683               	bsf	status, 5	;RP0=1, select bank1
  1540  062B  1303               	bcf	status, 6	;RP1=0, select bank1
  1541  062C  085A               	movf	(_runflag)^080h,w
  1542  062D  3A03               	xorlw	03h
  1543  062E  1D03               	skipz
  1544  062F  2E31               	goto	u5601
  1545  0630  2E32               	goto	u5600
  1546  0631                     u5601:
  1547  0631  2E38               	goto	l10841
  1548  0632                     u5600:
  1549                           	line	148
  1550                           	
  1551  0632                     l10839:	
  1552                           ;track.c: 148: Track_Run();
  1553  0632  120A  118A  2015   	fcall	_Track_Run
              120A  118A         
  1554  0637  2E38               	goto	l10841
  1555                           	
  1556  0638                     l7101:	
  1557                           	line	150
  1558                           	
  1559  0638                     l10841:	
  1560                           ;track.c: 150: if(runflag>=4){
  1561  0638  3004               	movlw	(04h)
  1562  0639  1683               	bsf	status, 5	;RP0=1, select bank1
  1563  063A  1303               	bcf	status, 6	;RP1=0, select bank1
  1564  063B  025A               	subwf	(_runflag)^080h,w
  1565  063C  1C03               	skipc
  1566  063D  2E3F               	goto	u5611
  1567  063E  2E40               	goto	u5610
  1568  063F                     u5611:
  1569  063F  2E4A               	goto	l7106
  1570  0640                     u5610:
  1571                           	line	151
  1572                           	
  1573  0640                     l10843:	
  1574                           ;track.c: 151: Motor_Status(0,0);
  1575  0640  01B3               	clrf	(?_Motor_Status)^080h
  1576  0641  3000               	movlw	(0)
  1577  0642  120A  158A  2270   	fcall	_Motor_Status
              120A  118A         
  1578  0647  2E48               	goto	l7104
  1579                           	line	152
  1580                           ;track.c: 152: while(1);
  1581                           	
  1582  0648                     l7103:	
  1583                           	
  1584  0648                     l7104:	
  1585  0648  2E48               	goto	l7104
  1586                           	
  1587  0649                     l7105:	
  1588  0649  2E4A               	goto	l7106
  1589                           	line	153
  1590                           	
  1591  064A                     l7102:	
  1592                           	line	155
  1593                           	
  1594  064A                     l7106:	
  1595  064A  0008               	return
  1596                           	opt stack 0
  1597                           GLOBAL	__end_of_Track_THREE
  1598  064B                     	__end_of_Track_THREE:
  1599 ;; =============== function _Track_THREE ends ============
  1600                           
  1601                           	signat	_Track_THREE,88
  1602                           	global	_Track_TWO
  1603                           psect	text893,local,class=CODE,delta=2
  1604                           global __ptext893
  1605  0DDD                     __ptext893:
  1606                           
  1607 ;; *************** function _Track_TWO *****************
  1608 ;; Defined at:
  1609 ;;		line 100 in file "E:\MPLAB_IDE\pic16f877a_car\PIC16F877A_CAR\track.c"
  1610 ;; Parameters:    Size  Location     Type
  1611 ;;		None
  1612 ;; Auto vars:     Size  Location     Type
  1613 ;;		None
  1614 ;; Return value:  Size  Location     Type
  1615 ;;		None               void
  1616 ;; Registers used:
  1617 ;;		wreg, status,2, status,0, btemp+1, pclath, cstack
  1618 ;; Tracked objects:
  1619 ;;		On entry : 0/0
  1620 ;;		On exit  : 0/0
  1621 ;;		Unchanged: 0/0
  1622 ;; Data sizes:     COMMON   BANK0   BANK1   BANK3   BANK2
  1623 ;;      Params:         0       0       0       0       0
  1624 ;;      Locals:         0       0       0       0       0
  1625 ;;      Temps:          0       0       0       0       0
  1626 ;;      Totals:         0       0       0       0       0
  1627 ;;Total ram usage:        0 bytes
  1628 ;; Hardware stack levels used:    1
  1629 ;; Hardware stack levels required when called:    9
  1630 ;; This function calls:
  1631 ;;		_Deal_Yaw
  1632 ;;		_Track_Run
  1633 ;;		_Motor_Status
  1634 ;; This function is called by:
  1635 ;;		_main
  1636 ;; This function uses a non-reentrant model
  1637 ;;
  1638                           psect	text893
  1639                           	file	"E:\MPLAB_IDE\pic16f877a_car\PIC16F877A_CAR\track.c"
  1640                           	line	100
  1641                           	global	__size_of_Track_TWO
  1642  0058                     	__size_of_Track_TWO	equ	__end_of_Track_TWO-_Track_TWO
  1643                           	
  1644  0DDD                     _Track_TWO:	
  1645 ;; hardware stack exceeded
  1646                           	opt	stack 0
  1647                           ; Regs used in _Track_TWO: [wreg+status,2+status,0+btemp+1+pclath+cstack]
  1648                           	line	102
  1649                           	
  1650  0DDD                     l10805:	
  1651                           ;track.c: 102: Deal_Yaw(Yaw,0);
  1652  0DDD  1683               	bsf	status, 5	;RP0=1, select bank1
  1653  0DDE  1303               	bcf	status, 6	;RP1=0, select bank1
  1654  0DDF  0854               	movf	(_Yaw+1)^080h,w
  1655  0DE0  01B6               	clrf	(?_Deal_Yaw+1)^080h
  1656  0DE1  07B6               	addwf	(?_Deal_Yaw+1)^080h
  1657  0DE2  0853               	movf	(_Yaw)^080h,w
  1658  0DE3  01B5               	clrf	(?_Deal_Yaw)^080h
  1659  0DE4  07B5               	addwf	(?_Deal_Yaw)^080h
  1660                           
  1661  0DE5  3000               	movlw	low(0)
  1662  0DE6  00B7               	movwf	0+(?_Deal_Yaw)^080h+02h
  1663  0DE7  3000               	movlw	high(0)
  1664  0DE8  00B8               	movwf	(0+(?_Deal_Yaw)^080h+02h)+1
  1665  0DE9  120A  118A  26F1   	fcall	_Deal_Yaw
              120A  158A         
  1666                           	line	105
  1667                           	
  1668  0DEE                     l10807:	
  1669                           ;track.c: 105: if(runflag==1)
  1670  0DEE  1683               	bsf	status, 5	;RP0=1, select bank1
  1671  0DEF  1303               	bcf	status, 6	;RP1=0, select bank1
  1672  0DF0  085A               	movf	(_runflag)^080h,w
  1673  0DF1  3A01               	xorlw	01h
  1674  0DF2  1D03               	skipz
  1675  0DF3  2DF5               	goto	u5541
  1676  0DF4  2DF6               	goto	u5540
  1677  0DF5                     u5541:
  1678  0DF5  2DFC               	goto	l10811
  1679  0DF6                     u5540:
  1680                           	line	106
  1681                           	
  1682  0DF6                     l10809:	
  1683                           ;track.c: 106: Track_Run();
  1684  0DF6  120A  118A  2015   	fcall	_Track_Run
              120A  158A         
  1685  0DFB  2DFC               	goto	l10811
  1686                           	
  1687  0DFC                     l7089:	
  1688                           	line	109
  1689                           	
  1690  0DFC                     l10811:	
  1691                           ;track.c: 109: if(runflag==2)
  1692  0DFC  1683               	bsf	status, 5	;RP0=1, select bank1
  1693  0DFD  1303               	bcf	status, 6	;RP1=0, select bank1
  1694  0DFE  085A               	movf	(_runflag)^080h,w
  1695  0DFF  3A02               	xorlw	02h
  1696  0E00  1D03               	skipz
  1697  0E01  2E03               	goto	u5551
  1698  0E02  2E04               	goto	u5550
  1699  0E03                     u5551:
  1700  0E03  2E14               	goto	l10815
  1701  0E04                     u5550:
  1702                           	line	110
  1703                           	
  1704  0E04                     l10813:	
  1705                           ;track.c: 110: Deal_Yaw(Yaw,180);
  1706  0E04  0854               	movf	(_Yaw+1)^080h,w
  1707  0E05  01B6               	clrf	(?_Deal_Yaw+1)^080h
  1708  0E06  07B6               	addwf	(?_Deal_Yaw+1)^080h
  1709  0E07  0853               	movf	(_Yaw)^080h,w
  1710  0E08  01B5               	clrf	(?_Deal_Yaw)^080h
  1711  0E09  07B5               	addwf	(?_Deal_Yaw)^080h
  1712                           
  1713  0E0A  30B4               	movlw	low(0B4h)
  1714  0E0B  00B7               	movwf	0+(?_Deal_Yaw)^080h+02h
  1715  0E0C  3000               	movlw	high(0B4h)
  1716  0E0D  00B8               	movwf	(0+(?_Deal_Yaw)^080h+02h)+1
  1717  0E0E  120A  118A  26F1   	fcall	_Deal_Yaw
              120A  158A         
  1718  0E13  2E14               	goto	l10815
  1719                           	
  1720  0E14                     l7090:	
  1721                           	line	113
  1722                           	
  1723  0E14                     l10815:	
  1724                           ;track.c: 113: if(runflag==3)
  1725  0E14  1683               	bsf	status, 5	;RP0=1, select bank1
  1726  0E15  1303               	bcf	status, 6	;RP1=0, select bank1
  1727  0E16  085A               	movf	(_runflag)^080h,w
  1728  0E17  3A03               	xorlw	03h
  1729  0E18  1D03               	skipz
  1730  0E19  2E1B               	goto	u5561
  1731  0E1A  2E1C               	goto	u5560
  1732  0E1B                     u5561:
  1733  0E1B  2E22               	goto	l10819
  1734  0E1C                     u5560:
  1735                           	line	114
  1736                           	
  1737  0E1C                     l10817:	
  1738                           ;track.c: 114: Track_Run();
  1739  0E1C  120A  118A  2015   	fcall	_Track_Run
              120A  158A         
  1740  0E21  2E22               	goto	l10819
  1741                           	
  1742  0E22                     l7091:	
  1743                           	line	116
  1744                           	
  1745  0E22                     l10819:	
  1746                           ;track.c: 116: if(runflag>=4)
  1747  0E22  3004               	movlw	(04h)
  1748  0E23  1683               	bsf	status, 5	;RP0=1, select bank1
  1749  0E24  1303               	bcf	status, 6	;RP1=0, select bank1
  1750  0E25  025A               	subwf	(_runflag)^080h,w
  1751  0E26  1C03               	skipc
  1752  0E27  2E29               	goto	u5571
  1753  0E28  2E2A               	goto	u5570
  1754  0E29                     u5571:
  1755  0E29  2E34               	goto	l7096
  1756  0E2A                     u5570:
  1757                           	line	118
  1758                           	
  1759  0E2A                     l10821:	
  1760                           ;track.c: 117: {
  1761                           ;track.c: 118: Motor_Status(0,0);
  1762  0E2A  01B3               	clrf	(?_Motor_Status)^080h
  1763  0E2B  3000               	movlw	(0)
  1764  0E2C  120A  158A  2270   	fcall	_Motor_Status
              120A  158A         
  1765  0E31  2E32               	goto	l7094
  1766                           	line	119
  1767                           ;track.c: 119: while(1);
  1768                           	
  1769  0E32                     l7093:	
  1770                           	
  1771  0E32                     l7094:	
  1772  0E32  2E32               	goto	l7094
  1773                           	
  1774  0E33                     l7095:	
  1775  0E33  2E34               	goto	l7096
  1776                           	line	120
  1777                           	
  1778  0E34                     l7092:	
  1779                           	line	122
  1780                           	
  1781  0E34                     l7096:	
  1782  0E34  0008               	return
  1783                           	opt stack 0
  1784                           GLOBAL	__end_of_Track_TWO
  1785  0E35                     	__end_of_Track_TWO:
  1786 ;; =============== function _Track_TWO ends ============
  1787                           
  1788                           	signat	_Track_TWO,88
  1789                           	global	_Track_ONE
  1790                           psect	text894,local,class=CODE,delta=2
  1791                           global __ptext894
  1792  0AE8                     __ptext894:
  1793                           
  1794 ;; *************** function _Track_ONE *****************
  1795 ;; Defined at:
  1796 ;;		line 90 in file "E:\MPLAB_IDE\pic16f877a_car\PIC16F877A_CAR\track.c"
  1797 ;; Parameters:    Size  Location     Type
  1798 ;;		None
  1799 ;; Auto vars:     Size  Location     Type
  1800 ;;		None
  1801 ;; Return value:  Size  Location     Type
  1802 ;;		None               void
  1803 ;; Registers used:
  1804 ;;		wreg, status,2, status,0, btemp+1, pclath, cstack
  1805 ;; Tracked objects:
  1806 ;;		On entry : 0/0
  1807 ;;		On exit  : 0/0
  1808 ;;		Unchanged: 0/0
  1809 ;; Data sizes:     COMMON   BANK0   BANK1   BANK3   BANK2
  1810 ;;      Params:         0       0       0       0       0
  1811 ;;      Locals:         0       0       0       0       0
  1812 ;;      Temps:          0       0       0       0       0
  1813 ;;      Totals:         0       0       0       0       0
  1814 ;;Total ram usage:        0 bytes
  1815 ;; Hardware stack levels used:    1
  1816 ;; Hardware stack levels required when called:    9
  1817 ;; This function calls:
  1818 ;;		_Deal_Yaw
  1819 ;;		_Motor_Status
  1820 ;; This function is called by:
  1821 ;;		_main
  1822 ;; This function uses a non-reentrant model
  1823 ;;
  1824                           psect	text894
  1825                           	file	"E:\MPLAB_IDE\pic16f877a_car\PIC16F877A_CAR\track.c"
  1826                           	line	90
  1827                           	global	__size_of_Track_ONE
  1828  0024                     	__size_of_Track_ONE	equ	__end_of_Track_ONE-_Track_ONE
  1829                           	
  1830  0AE8                     _Track_ONE:	
  1831 ;; hardware stack exceeded
  1832                           	opt	stack 0
  1833                           ; Regs used in _Track_ONE: [wreg+status,2+status,0+btemp+1+pclath+cstack]
  1834                           	line	91
  1835                           	
  1836  0AE8                     l10799:	
  1837                           ;track.c: 91: Deal_Yaw(Yaw,0);
  1838  0AE8  1683               	bsf	status, 5	;RP0=1, select bank1
  1839  0AE9  1303               	bcf	status, 6	;RP1=0, select bank1
  1840  0AEA  0854               	movf	(_Yaw+1)^080h,w
  1841  0AEB  01B6               	clrf	(?_Deal_Yaw+1)^080h
  1842  0AEC  07B6               	addwf	(?_Deal_Yaw+1)^080h
  1843  0AED  0853               	movf	(_Yaw)^080h,w
  1844  0AEE  01B5               	clrf	(?_Deal_Yaw)^080h
  1845  0AEF  07B5               	addwf	(?_Deal_Yaw)^080h
  1846                           
  1847  0AF0  3000               	movlw	low(0)
  1848  0AF1  00B7               	movwf	0+(?_Deal_Yaw)^080h+02h
  1849  0AF2  3000               	movlw	high(0)
  1850  0AF3  00B8               	movwf	(0+(?_Deal_Yaw)^080h+02h)+1
  1851  0AF4  120A  118A  26F1   	fcall	_Deal_Yaw
              120A  158A         
  1852                           	line	92
  1853                           	
  1854  0AF9                     l10801:	
  1855                           ;track.c: 92: if(runflag==1)
  1856  0AF9  1683               	bsf	status, 5	;RP0=1, select bank1
  1857  0AFA  1303               	bcf	status, 6	;RP1=0, select bank1
  1858  0AFB  085A               	movf	(_runflag)^080h,w
  1859  0AFC  3A01               	xorlw	01h
  1860  0AFD  1D03               	skipz
  1861  0AFE  2B00               	goto	u5531
  1862  0AFF  2B01               	goto	u5530
  1863  0B00                     u5531:
  1864  0B00  2B0B               	goto	l7086
  1865  0B01                     u5530:
  1866                           	line	94
  1867                           	
  1868  0B01                     l10803:	
  1869                           ;track.c: 93: {
  1870                           ;track.c: 94: Motor_Status(0,0);
  1871  0B01  01B3               	clrf	(?_Motor_Status)^080h
  1872  0B02  3000               	movlw	(0)
  1873  0B03  120A  158A  2270   	fcall	_Motor_Status
              120A  158A         
  1874  0B08  2B09               	goto	l7084
  1875                           	line	95
  1876                           ;track.c: 95: while(1);
  1877                           	
  1878  0B09                     l7083:	
  1879                           	
  1880  0B09                     l7084:	
  1881  0B09  2B09               	goto	l7084
  1882                           	
  1883  0B0A                     l7085:	
  1884  0B0A  2B0B               	goto	l7086
  1885                           	line	96
  1886                           	
  1887  0B0B                     l7082:	
  1888                           	line	97
  1889                           	
  1890  0B0B                     l7086:	
  1891  0B0B  0008               	return
  1892                           	opt stack 0
  1893                           GLOBAL	__end_of_Track_ONE
  1894  0B0C                     	__end_of_Track_ONE:
  1895 ;; =============== function _Track_ONE ends ============
  1896                           
  1897                           	signat	_Track_ONE,88
  1898                           	global	_Track_Run
  1899                           psect	text895,local,class=CODE,delta=2
  1900                           global __ptext895
  1901  0015                     __ptext895:
  1902                           
  1903 ;; *************** function _Track_Run *****************
  1904 ;; Defined at:
  1905 ;;		line 33 in file "E:\MPLAB_IDE\pic16f877a_car\PIC16F877A_CAR\track.c"
  1906 ;; Parameters:    Size  Location     Type
  1907 ;;		None
  1908 ;; Auto vars:     Size  Location     Type
  1909 ;;		None
  1910 ;; Return value:  Size  Location     Type
  1911 ;;		None               void
  1912 ;; Registers used:
  1913 ;;		wreg, status,2, status,0, pclath, cstack
  1914 ;; Tracked objects:
  1915 ;;		On entry : 0/0
  1916 ;;		On exit  : 0/0
  1917 ;;		Unchanged: 0/0
  1918 ;; Data sizes:     COMMON   BANK0   BANK1   BANK3   BANK2
  1919 ;;      Params:         0       0       0       0       0
  1920 ;;      Locals:         0       0       0       0       0
  1921 ;;      Temps:          0       0       1       0       0
  1922 ;;      Totals:         0       0       1       0       0
  1923 ;;Total ram usage:        1 bytes
  1924 ;; Hardware stack levels used:    1
  1925 ;; Hardware stack levels required when called:    8
  1926 ;; This function calls:
  1927 ;;		_HD_Read
  1928 ;;		_Motor_Status
  1929 ;;		_Delay_ms
  1930 ;; This function is called by:
  1931 ;;		_Track_TWO
  1932 ;;		_Track_THREE
  1933 ;; This function uses a non-reentrant model
  1934 ;;
  1935                           psect	text895
  1936                           	file	"E:\MPLAB_IDE\pic16f877a_car\PIC16F877A_CAR\track.c"
  1937                           	line	33
  1938                           	global	__size_of_Track_Run
  1939  0203                     	__size_of_Track_Run	equ	__end_of_Track_Run-_Track_Run
  1940                           	
  1941  0015                     _Track_Run:	
  1942 ;; hardware stack exceeded
  1943                           	opt	stack 0
  1944                           ; Regs used in _Track_Run: [wreg+status,2+status,0+pclath+cstack]
  1945                           	line	34
  1946                           	
  1947  0015                     l10669:	
  1948                           ;track.c: 34: HD_Read();
  1949  0015  120A  158A  277F   	fcall	_HD_Read
              120A  118A         
  1950                           	line	35
  1951                           	
  1952  001A                     l10671:	
  1953                           ;track.c: 35: if(HD[0]==1 && HD[1]==1 && HD[2]==1 && HD[3]==0 && HD[4]==0 && HD[5]==1 &&
                                  HD[6]==1 && HD[7]==1)
  1954  001A  1683               	bsf	status, 5	;RP0=1, select bank1
  1955  001B  1303               	bcf	status, 6	;RP1=0, select bank1
  1956  001C  084B               	movf	(_HD)^080h,w
  1957  001D  3A01               	xorlw	01h
  1958  001E  1D03               	skipz
  1959  001F  2821               	goto	u4971
  1960  0020  2822               	goto	u4970
  1961  0021                     u4971:
  1962  0021  2860               	goto	l10689
  1963  0022                     u4970:
  1964                           	
  1965  0022                     l10673:	
  1966  0022  084C               	movf	0+(_HD)^080h+01h,w
  1967  0023  3A01               	xorlw	01h
  1968  0024  1D03               	skipz
  1969  0025  2827               	goto	u4981
  1970  0026  2828               	goto	u4980
  1971  0027                     u4981:
  1972  0027  2860               	goto	l10689
  1973  0028                     u4980:
  1974                           	
  1975  0028                     l10675:	
  1976  0028  084D               	movf	0+(_HD)^080h+02h,w
  1977  0029  3A01               	xorlw	01h
  1978  002A  1D03               	skipz
  1979  002B  282D               	goto	u4991
  1980  002C  282E               	goto	u4990
  1981  002D                     u4991:
  1982  002D  2860               	goto	l10689
  1983  002E                     u4990:
  1984                           	
  1985  002E                     l10677:	
  1986  002E  08CE               	movf	0+(_HD)^080h+03h,f
  1987  002F  1D03               	skipz
  1988  0030  2832               	goto	u5001
  1989  0031  2833               	goto	u5000
  1990  0032                     u5001:
  1991  0032  2860               	goto	l10689
  1992  0033                     u5000:
  1993                           	
  1994  0033                     l10679:	
  1995  0033  08CF               	movf	0+(_HD)^080h+04h,f
  1996  0034  1D03               	skipz
  1997  0035  2837               	goto	u5011
  1998  0036  2838               	goto	u5010
  1999  0037                     u5011:
  2000  0037  2860               	goto	l10689
  2001  0038                     u5010:
  2002                           	
  2003  0038                     l10681:	
  2004  0038  0850               	movf	0+(_HD)^080h+05h,w
  2005  0039  3A01               	xorlw	01h
  2006  003A  1D03               	skipz
  2007  003B  283D               	goto	u5021
  2008  003C  283E               	goto	u5020
  2009  003D                     u5021:
  2010  003D  2860               	goto	l10689
  2011  003E                     u5020:
  2012                           	
  2013  003E                     l10683:	
  2014  003E  0851               	movf	0+(_HD)^080h+06h,w
  2015  003F  3A01               	xorlw	01h
  2016  0040  1D03               	skipz
  2017  0041  2843               	goto	u5031
  2018  0042  2844               	goto	u5030
  2019  0043                     u5031:
  2020  0043  2860               	goto	l10689
  2021  0044                     u5030:
  2022                           	
  2023  0044                     l10685:	
  2024  0044  0852               	movf	0+(_HD)^080h+07h,w
  2025  0045  3A01               	xorlw	01h
  2026  0046  1D03               	skipz
  2027  0047  2849               	goto	u5041
  2028  0048  284A               	goto	u5040
  2029  0049                     u5041:
  2030  0049  2860               	goto	l10689
  2031  004A                     u5040:
  2032                           	line	37
  2033                           	
  2034  004A                     l10687:	
  2035                           ;track.c: 36: {
  2036                           ;track.c: 37: Motor_Status(30,30);
  2037  004A  301E               	movlw	(01Eh)
  2038  004B  00B5               	movwf	(??_Track_Run+0)^080h+0
  2039  004C  0835               	movf	(??_Track_Run+0)^080h+0,w
  2040  004D  00B3               	movwf	(?_Motor_Status)^080h
  2041  004E  301E               	movlw	(01Eh)
  2042  004F  120A  158A  2270   	fcall	_Motor_Status
              120A  118A         
  2043                           	line	38
  2044                           ;track.c: 38: Delay_ms(10);
  2045  0054  300A               	movlw	low(0Ah)
  2046  0055  1683               	bsf	status, 5	;RP0=1, select bank1
  2047  0056  1303               	bcf	status, 6	;RP1=0, select bank1
  2048  0057  00A0               	movwf	(?_Delay_ms)^080h
  2049  0058  3000               	movlw	high(0Ah)
  2050  0059  00A1               	movwf	((?_Delay_ms)^080h)+1
  2051  005A  120A  158A  2364   	fcall	_Delay_ms
              120A  118A         
  2052                           	line	39
  2053                           ;track.c: 39: }else if((HD[0]==0 || HD[1]==0) && HD[2]==1 && HD[3]==1 && HD[4]==1 && HD[
                                 5]==1 && HD[6]==1 && HD[7]==1)
  2054  005F  2A17               	goto	l7073
  2055                           	
  2056  0060                     l7047:	
  2057                           	
  2058  0060                     l10689:	
  2059  0060  1683               	bsf	status, 5	;RP0=1, select bank1
  2060  0061  1303               	bcf	status, 6	;RP1=0, select bank1
  2061  0062  084B               	movf	(_HD)^080h,w
  2062  0063  1D03               	skipz
  2063  0064  2866               	goto	u5050
  2064  0065  286C               	goto	l10693
  2065  0066                     u5050:
  2066                           	
  2067  0066                     l10691:	
  2068  0066  08CC               	movf	0+(_HD)^080h+01h,f
  2069  0067  1D03               	skipz
  2070  0068  286A               	goto	u5061
  2071  0069  286B               	goto	u5060
  2072  006A                     u5061:
  2073  006A  28A6               	goto	l10707
  2074  006B                     u5060:
  2075  006B  286C               	goto	l10693
  2076                           	
  2077  006C                     l7051:	
  2078                           	
  2079  006C                     l10693:	
  2080  006C  084D               	movf	0+(_HD)^080h+02h,w
  2081  006D  3A01               	xorlw	01h
  2082  006E  1D03               	skipz
  2083  006F  2871               	goto	u5071
  2084  0070  2872               	goto	u5070
  2085  0071                     u5071:
  2086  0071  28A6               	goto	l10707
  2087  0072                     u5070:
  2088                           	
  2089  0072                     l10695:	
  2090  0072  084E               	movf	0+(_HD)^080h+03h,w
  2091  0073  3A01               	xorlw	01h
  2092  0074  1D03               	skipz
  2093  0075  2877               	goto	u5081
  2094  0076  2878               	goto	u5080
  2095  0077                     u5081:
  2096  0077  28A6               	goto	l10707
  2097  0078                     u5080:
  2098                           	
  2099  0078                     l10697:	
  2100  0078  084F               	movf	0+(_HD)^080h+04h,w
  2101  0079  3A01               	xorlw	01h
  2102  007A  1D03               	skipz
  2103  007B  287D               	goto	u5091
  2104  007C  287E               	goto	u5090
  2105  007D                     u5091:
  2106  007D  28A6               	goto	l10707
  2107  007E                     u5090:
  2108                           	
  2109  007E                     l10699:	
  2110  007E  0850               	movf	0+(_HD)^080h+05h,w
  2111  007F  3A01               	xorlw	01h
  2112  0080  1D03               	skipz
  2113  0081  2883               	goto	u5101
  2114  0082  2884               	goto	u5100
  2115  0083                     u5101:
  2116  0083  28A6               	goto	l10707
  2117  0084                     u5100:
  2118                           	
  2119  0084                     l10701:	
  2120  0084  0851               	movf	0+(_HD)^080h+06h,w
  2121  0085  3A01               	xorlw	01h
  2122  0086  1D03               	skipz
  2123  0087  2889               	goto	u5111
  2124  0088  288A               	goto	u5110
  2125  0089                     u5111:
  2126  0089  28A6               	goto	l10707
  2127  008A                     u5110:
  2128                           	
  2129  008A                     l10703:	
  2130  008A  0852               	movf	0+(_HD)^080h+07h,w
  2131  008B  3A01               	xorlw	01h
  2132  008C  1D03               	skipz
  2133  008D  288F               	goto	u5121
  2134  008E  2890               	goto	u5120
  2135  008F                     u5121:
  2136  008F  28A6               	goto	l10707
  2137  0090                     u5120:
  2138                           	line	41
  2139                           	
  2140  0090                     l10705:	
  2141                           ;track.c: 40: {
  2142                           ;track.c: 41: Motor_Status(20,35);
  2143  0090  3023               	movlw	(023h)
  2144  0091  00B5               	movwf	(??_Track_Run+0)^080h+0
  2145  0092  0835               	movf	(??_Track_Run+0)^080h+0,w
  2146  0093  00B3               	movwf	(?_Motor_Status)^080h
  2147  0094  3014               	movlw	(014h)
  2148  0095  120A  158A  2270   	fcall	_Motor_Status
              120A  118A         
  2149                           	line	42
  2150                           ;track.c: 42: Delay_ms(10);
  2151  009A  300A               	movlw	low(0Ah)
  2152  009B  1683               	bsf	status, 5	;RP0=1, select bank1
  2153  009C  1303               	bcf	status, 6	;RP1=0, select bank1
  2154  009D  00A0               	movwf	(?_Delay_ms)^080h
  2155  009E  3000               	movlw	high(0Ah)
  2156  009F  00A1               	movwf	((?_Delay_ms)^080h)+1
  2157  00A0  120A  158A  2364   	fcall	_Delay_ms
              120A  118A         
  2158                           	line	43
  2159                           ;track.c: 43: }else if(HD[0]==1 && HD[1]==1 && HD[2]==1 && HD[3]==1 && HD[4]==1 && HD[5]
                                 ==1 && (HD[6]==0 || HD[7]==0))
  2160  00A5  2A17               	goto	l7073
  2161                           	
  2162  00A6                     l7049:	
  2163                           	
  2164  00A6                     l10707:	
  2165  00A6  1683               	bsf	status, 5	;RP0=1, select bank1
  2166  00A7  1303               	bcf	status, 6	;RP1=0, select bank1
  2167  00A8  084B               	movf	(_HD)^080h,w
  2168  00A9  3A01               	xorlw	01h
  2169  00AA  1D03               	skipz
  2170  00AB  28AD               	goto	u5131
  2171  00AC  28AE               	goto	u5130
  2172  00AD                     u5131:
  2173  00AD  28EC               	goto	l10725
  2174  00AE                     u5130:
  2175                           	
  2176  00AE                     l10709:	
  2177  00AE  084C               	movf	0+(_HD)^080h+01h,w
  2178  00AF  3A01               	xorlw	01h
  2179  00B0  1D03               	skipz
  2180  00B1  28B3               	goto	u5141
  2181  00B2  28B4               	goto	u5140
  2182  00B3                     u5141:
  2183  00B3  28EC               	goto	l10725
  2184  00B4                     u5140:
  2185                           	
  2186  00B4                     l10711:	
  2187  00B4  084D               	movf	0+(_HD)^080h+02h,w
  2188  00B5  3A01               	xorlw	01h
  2189  00B6  1D03               	skipz
  2190  00B7  28B9               	goto	u5151
  2191  00B8  28BA               	goto	u5150
  2192  00B9                     u5151:
  2193  00B9  28EC               	goto	l10725
  2194  00BA                     u5150:
  2195                           	
  2196  00BA                     l10713:	
  2197  00BA  084E               	movf	0+(_HD)^080h+03h,w
  2198  00BB  3A01               	xorlw	01h
  2199  00BC  1D03               	skipz
  2200  00BD  28BF               	goto	u5161
  2201  00BE  28C0               	goto	u5160
  2202  00BF                     u5161:
  2203  00BF  28EC               	goto	l10725
  2204  00C0                     u5160:
  2205                           	
  2206  00C0                     l10715:	
  2207  00C0  084F               	movf	0+(_HD)^080h+04h,w
  2208  00C1  3A01               	xorlw	01h
  2209  00C2  1D03               	skipz
  2210  00C3  28C5               	goto	u5171
  2211  00C4  28C6               	goto	u5170
  2212  00C5                     u5171:
  2213  00C5  28EC               	goto	l10725
  2214  00C6                     u5170:
  2215                           	
  2216  00C6                     l10717:	
  2217  00C6  0850               	movf	0+(_HD)^080h+05h,w
  2218  00C7  3A01               	xorlw	01h
  2219  00C8  1D03               	skipz
  2220  00C9  28CB               	goto	u5181
  2221  00CA  28CC               	goto	u5180
  2222  00CB                     u5181:
  2223  00CB  28EC               	goto	l10725
  2224  00CC                     u5180:
  2225                           	
  2226  00CC                     l10719:	
  2227  00CC  0851               	movf	0+(_HD)^080h+06h,w
  2228  00CD  1D03               	skipz
  2229  00CE  28D0               	goto	u5190
  2230  00CF  28D6               	goto	l10723
  2231  00D0                     u5190:
  2232                           	
  2233  00D0                     l10721:	
  2234  00D0  08D2               	movf	0+(_HD)^080h+07h,f
  2235  00D1  1D03               	skipz
  2236  00D2  28D4               	goto	u5201
  2237  00D3  28D5               	goto	u5200
  2238  00D4                     u5201:
  2239  00D4  28EC               	goto	l10725
  2240  00D5                     u5200:
  2241  00D5  28D6               	goto	l10723
  2242                           	
  2243  00D6                     l7055:	
  2244                           	line	45
  2245                           	
  2246  00D6                     l10723:	
  2247                           ;track.c: 44: {
  2248                           ;track.c: 45: Motor_Status(35,20);
  2249  00D6  3014               	movlw	(014h)
  2250  00D7  00B5               	movwf	(??_Track_Run+0)^080h+0
  2251  00D8  0835               	movf	(??_Track_Run+0)^080h+0,w
  2252  00D9  00B3               	movwf	(?_Motor_Status)^080h
  2253  00DA  3023               	movlw	(023h)
  2254  00DB  120A  158A  2270   	fcall	_Motor_Status
              120A  118A         
  2255                           	line	46
  2256                           ;track.c: 46: Delay_ms(10);
  2257  00E0  300A               	movlw	low(0Ah)
  2258  00E1  1683               	bsf	status, 5	;RP0=1, select bank1
  2259  00E2  1303               	bcf	status, 6	;RP1=0, select bank1
  2260  00E3  00A0               	movwf	(?_Delay_ms)^080h
  2261  00E4  3000               	movlw	high(0Ah)
  2262  00E5  00A1               	movwf	((?_Delay_ms)^080h)+1
  2263  00E6  120A  158A  2364   	fcall	_Delay_ms
              120A  118A         
  2264                           	line	47
  2265                           ;track.c: 47: }else if(HD[0]==1 && (HD[1]==0 || HD[2]==0) && HD[3]==1 && HD[4]==1 && HD[
                                 5]==1 && HD[6]==1 && HD[7]==1)
  2266  00EB  2A17               	goto	l7073
  2267                           	
  2268  00EC                     l7053:	
  2269                           	
  2270  00EC                     l10725:	
  2271  00EC  1683               	bsf	status, 5	;RP0=1, select bank1
  2272  00ED  1303               	bcf	status, 6	;RP1=0, select bank1
  2273  00EE  084B               	movf	(_HD)^080h,w
  2274  00EF  3A01               	xorlw	01h
  2275  00F0  1D03               	skipz
  2276  00F1  28F3               	goto	u5211
  2277  00F2  28F4               	goto	u5210
  2278  00F3                     u5211:
  2279  00F3  2932               	goto	l10743
  2280  00F4                     u5210:
  2281                           	
  2282  00F4                     l10727:	
  2283  00F4  084C               	movf	0+(_HD)^080h+01h,w
  2284  00F5  1D03               	skipz
  2285  00F6  28F8               	goto	u5220
  2286  00F7  28FE               	goto	l10731
  2287  00F8                     u5220:
  2288                           	
  2289  00F8                     l10729:	
  2290  00F8  08CD               	movf	0+(_HD)^080h+02h,f
  2291  00F9  1D03               	skipz
  2292  00FA  28FC               	goto	u5231
  2293  00FB  28FD               	goto	u5230
  2294  00FC                     u5231:
  2295  00FC  2932               	goto	l10743
  2296  00FD                     u5230:
  2297  00FD  28FE               	goto	l10731
  2298                           	
  2299  00FE                     l7059:	
  2300                           	
  2301  00FE                     l10731:	
  2302  00FE  084E               	movf	0+(_HD)^080h+03h,w
  2303  00FF  3A01               	xorlw	01h
  2304  0100  1D03               	skipz
  2305  0101  2903               	goto	u5241
  2306  0102  2904               	goto	u5240
  2307  0103                     u5241:
  2308  0103  2932               	goto	l10743
  2309  0104                     u5240:
  2310                           	
  2311  0104                     l10733:	
  2312  0104  084F               	movf	0+(_HD)^080h+04h,w
  2313  0105  3A01               	xorlw	01h
  2314  0106  1D03               	skipz
  2315  0107  2909               	goto	u5251
  2316  0108  290A               	goto	u5250
  2317  0109                     u5251:
  2318  0109  2932               	goto	l10743
  2319  010A                     u5250:
  2320                           	
  2321  010A                     l10735:	
  2322  010A  0850               	movf	0+(_HD)^080h+05h,w
  2323  010B  3A01               	xorlw	01h
  2324  010C  1D03               	skipz
  2325  010D  290F               	goto	u5261
  2326  010E  2910               	goto	u5260
  2327  010F                     u5261:
  2328  010F  2932               	goto	l10743
  2329  0110                     u5260:
  2330                           	
  2331  0110                     l10737:	
  2332  0110  0851               	movf	0+(_HD)^080h+06h,w
  2333  0111  3A01               	xorlw	01h
  2334  0112  1D03               	skipz
  2335  0113  2915               	goto	u5271
  2336  0114  2916               	goto	u5270
  2337  0115                     u5271:
  2338  0115  2932               	goto	l10743
  2339  0116                     u5270:
  2340                           	
  2341  0116                     l10739:	
  2342  0116  0852               	movf	0+(_HD)^080h+07h,w
  2343  0117  3A01               	xorlw	01h
  2344  0118  1D03               	skipz
  2345  0119  291B               	goto	u5281
  2346  011A  291C               	goto	u5280
  2347  011B                     u5281:
  2348  011B  2932               	goto	l10743
  2349  011C                     u5280:
  2350                           	line	49
  2351                           	
  2352  011C                     l10741:	
  2353                           ;track.c: 48: {
  2354                           ;track.c: 49: Motor_Status(20,35);
  2355  011C  3023               	movlw	(023h)
  2356  011D  00B5               	movwf	(??_Track_Run+0)^080h+0
  2357  011E  0835               	movf	(??_Track_Run+0)^080h+0,w
  2358  011F  00B3               	movwf	(?_Motor_Status)^080h
  2359  0120  3014               	movlw	(014h)
  2360  0121  120A  158A  2270   	fcall	_Motor_Status
              120A  118A         
  2361                           	line	50
  2362                           ;track.c: 50: Delay_ms(10);
  2363  0126  300A               	movlw	low(0Ah)
  2364  0127  1683               	bsf	status, 5	;RP0=1, select bank1
  2365  0128  1303               	bcf	status, 6	;RP1=0, select bank1
  2366  0129  00A0               	movwf	(?_Delay_ms)^080h
  2367  012A  3000               	movlw	high(0Ah)
  2368  012B  00A1               	movwf	((?_Delay_ms)^080h)+1
  2369  012C  120A  158A  2364   	fcall	_Delay_ms
              120A  118A         
  2370                           	line	51
  2371                           ;track.c: 51: }else if(HD[0]==1 && HD[1]==1 && (HD[2]==0 || HD[3]==0) && HD[4]==1 && HD[
                                 5]==1 && HD[6]==1 && HD[7]==1)
  2372  0131  2A17               	goto	l7073
  2373                           	
  2374  0132                     l7057:	
  2375                           	
  2376  0132                     l10743:	
  2377  0132  1683               	bsf	status, 5	;RP0=1, select bank1
  2378  0133  1303               	bcf	status, 6	;RP1=0, select bank1
  2379  0134  084B               	movf	(_HD)^080h,w
  2380  0135  3A01               	xorlw	01h
  2381  0136  1D03               	skipz
  2382  0137  2939               	goto	u5291
  2383  0138  293A               	goto	u5290
  2384  0139                     u5291:
  2385  0139  2978               	goto	l10761
  2386  013A                     u5290:
  2387                           	
  2388  013A                     l10745:	
  2389  013A  084C               	movf	0+(_HD)^080h+01h,w
  2390  013B  3A01               	xorlw	01h
  2391  013C  1D03               	skipz
  2392  013D  293F               	goto	u5301
  2393  013E  2940               	goto	u5300
  2394  013F                     u5301:
  2395  013F  2978               	goto	l10761
  2396  0140                     u5300:
  2397                           	
  2398  0140                     l10747:	
  2399  0140  084D               	movf	0+(_HD)^080h+02h,w
  2400  0141  1D03               	skipz
  2401  0142  2944               	goto	u5310
  2402  0143  294A               	goto	l10751
  2403  0144                     u5310:
  2404                           	
  2405  0144                     l10749:	
  2406  0144  08CE               	movf	0+(_HD)^080h+03h,f
  2407  0145  1D03               	skipz
  2408  0146  2948               	goto	u5321
  2409  0147  2949               	goto	u5320
  2410  0148                     u5321:
  2411  0148  2978               	goto	l10761
  2412  0149                     u5320:
  2413  0149  294A               	goto	l10751
  2414                           	
  2415  014A                     l7063:	
  2416                           	
  2417  014A                     l10751:	
  2418  014A  084F               	movf	0+(_HD)^080h+04h,w
  2419  014B  3A01               	xorlw	01h
  2420  014C  1D03               	skipz
  2421  014D  294F               	goto	u5331
  2422  014E  2950               	goto	u5330
  2423  014F                     u5331:
  2424  014F  2978               	goto	l10761
  2425  0150                     u5330:
  2426                           	
  2427  0150                     l10753:	
  2428  0150  0850               	movf	0+(_HD)^080h+05h,w
  2429  0151  3A01               	xorlw	01h
  2430  0152  1D03               	skipz
  2431  0153  2955               	goto	u5341
  2432  0154  2956               	goto	u5340
  2433  0155                     u5341:
  2434  0155  2978               	goto	l10761
  2435  0156                     u5340:
  2436                           	
  2437  0156                     l10755:	
  2438  0156  0851               	movf	0+(_HD)^080h+06h,w
  2439  0157  3A01               	xorlw	01h
  2440  0158  1D03               	skipz
  2441  0159  295B               	goto	u5351
  2442  015A  295C               	goto	u5350
  2443  015B                     u5351:
  2444  015B  2978               	goto	l10761
  2445  015C                     u5350:
  2446                           	
  2447  015C                     l10757:	
  2448  015C  0852               	movf	0+(_HD)^080h+07h,w
  2449  015D  3A01               	xorlw	01h
  2450  015E  1D03               	skipz
  2451  015F  2961               	goto	u5361
  2452  0160  2962               	goto	u5360
  2453  0161                     u5361:
  2454  0161  2978               	goto	l10761
  2455  0162                     u5360:
  2456                           	line	53
  2457                           	
  2458  0162                     l10759:	
  2459                           ;track.c: 52: {
  2460                           ;track.c: 53: Motor_Status(20,35);
  2461  0162  3023               	movlw	(023h)
  2462  0163  00B5               	movwf	(??_Track_Run+0)^080h+0
  2463  0164  0835               	movf	(??_Track_Run+0)^080h+0,w
  2464  0165  00B3               	movwf	(?_Motor_Status)^080h
  2465  0166  3014               	movlw	(014h)
  2466  0167  120A  158A  2270   	fcall	_Motor_Status
              120A  118A         
  2467                           	line	54
  2468                           ;track.c: 54: Delay_ms(10);
  2469  016C  300A               	movlw	low(0Ah)
  2470  016D  1683               	bsf	status, 5	;RP0=1, select bank1
  2471  016E  1303               	bcf	status, 6	;RP1=0, select bank1
  2472  016F  00A0               	movwf	(?_Delay_ms)^080h
  2473  0170  3000               	movlw	high(0Ah)
  2474  0171  00A1               	movwf	((?_Delay_ms)^080h)+1
  2475  0172  120A  158A  2364   	fcall	_Delay_ms
              120A  118A         
  2476                           	line	55
  2477                           ;track.c: 55: }else if(HD[0]==1 && HD[1]==1 && HD[2]==1 && HD[3]==1 && HD[4]==1 && (HD[5
                                 ]==0 || HD[6]==0) && HD[7]==1)
  2478  0177  2A17               	goto	l7073
  2479                           	
  2480  0178                     l7061:	
  2481                           	
  2482  0178                     l10761:	
  2483  0178  1683               	bsf	status, 5	;RP0=1, select bank1
  2484  0179  1303               	bcf	status, 6	;RP1=0, select bank1
  2485  017A  084B               	movf	(_HD)^080h,w
  2486  017B  3A01               	xorlw	01h
  2487  017C  1D03               	skipz
  2488  017D  297F               	goto	u5371
  2489  017E  2980               	goto	u5370
  2490  017F                     u5371:
  2491  017F  29BE               	goto	l10779
  2492  0180                     u5370:
  2493                           	
  2494  0180                     l10763:	
  2495  0180  084C               	movf	0+(_HD)^080h+01h,w
  2496  0181  3A01               	xorlw	01h
  2497  0182  1D03               	skipz
  2498  0183  2985               	goto	u5381
  2499  0184  2986               	goto	u5380
  2500  0185                     u5381:
  2501  0185  29BE               	goto	l10779
  2502  0186                     u5380:
  2503                           	
  2504  0186                     l10765:	
  2505  0186  084D               	movf	0+(_HD)^080h+02h,w
  2506  0187  3A01               	xorlw	01h
  2507  0188  1D03               	skipz
  2508  0189  298B               	goto	u5391
  2509  018A  298C               	goto	u5390
  2510  018B                     u5391:
  2511  018B  29BE               	goto	l10779
  2512  018C                     u5390:
  2513                           	
  2514  018C                     l10767:	
  2515  018C  084E               	movf	0+(_HD)^080h+03h,w
  2516  018D  3A01               	xorlw	01h
  2517  018E  1D03               	skipz
  2518  018F  2991               	goto	u5401
  2519  0190  2992               	goto	u5400
  2520  0191                     u5401:
  2521  0191  29BE               	goto	l10779
  2522  0192                     u5400:
  2523                           	
  2524  0192                     l10769:	
  2525  0192  084F               	movf	0+(_HD)^080h+04h,w
  2526  0193  3A01               	xorlw	01h
  2527  0194  1D03               	skipz
  2528  0195  2997               	goto	u5411
  2529  0196  2998               	goto	u5410
  2530  0197                     u5411:
  2531  0197  29BE               	goto	l10779
  2532  0198                     u5410:
  2533                           	
  2534  0198                     l10771:	
  2535  0198  0850               	movf	0+(_HD)^080h+05h,w
  2536  0199  1D03               	skipz
  2537  019A  299C               	goto	u5420
  2538  019B  29A2               	goto	l10775
  2539  019C                     u5420:
  2540                           	
  2541  019C                     l10773:	
  2542  019C  08D1               	movf	0+(_HD)^080h+06h,f
  2543  019D  1D03               	skipz
  2544  019E  29A0               	goto	u5431
  2545  019F  29A1               	goto	u5430
  2546  01A0                     u5431:
  2547  01A0  29BE               	goto	l10779
  2548  01A1                     u5430:
  2549  01A1  29A2               	goto	l10775
  2550                           	
  2551  01A2                     l7067:	
  2552                           	
  2553  01A2                     l10775:	
  2554  01A2  0852               	movf	0+(_HD)^080h+07h,w
  2555  01A3  3A01               	xorlw	01h
  2556  01A4  1D03               	skipz
  2557  01A5  29A7               	goto	u5441
  2558  01A6  29A8               	goto	u5440
  2559  01A7                     u5441:
  2560  01A7  29BE               	goto	l10779
  2561  01A8                     u5440:
  2562                           	line	57
  2563                           	
  2564  01A8                     l10777:	
  2565                           ;track.c: 56: {
  2566                           ;track.c: 57: Motor_Status(35,20);
  2567  01A8  3014               	movlw	(014h)
  2568  01A9  00B5               	movwf	(??_Track_Run+0)^080h+0
  2569  01AA  0835               	movf	(??_Track_Run+0)^080h+0,w
  2570  01AB  00B3               	movwf	(?_Motor_Status)^080h
  2571  01AC  3023               	movlw	(023h)
  2572  01AD  120A  158A  2270   	fcall	_Motor_Status
              120A  118A         
  2573                           	line	58
  2574                           ;track.c: 58: Delay_ms(10);
  2575  01B2  300A               	movlw	low(0Ah)
  2576  01B3  1683               	bsf	status, 5	;RP0=1, select bank1
  2577  01B4  1303               	bcf	status, 6	;RP1=0, select bank1
  2578  01B5  00A0               	movwf	(?_Delay_ms)^080h
  2579  01B6  3000               	movlw	high(0Ah)
  2580  01B7  00A1               	movwf	((?_Delay_ms)^080h)+1
  2581  01B8  120A  158A  2364   	fcall	_Delay_ms
              120A  118A         
  2582                           	line	59
  2583                           ;track.c: 59: }else if(HD[0]==1 && HD[1]==1 && HD[2]==1 && HD[3]==1 && (HD[4]==0 || HD[5
                                 ]==0) && HD[6]==1 && HD[7]==1)
  2584  01BD  2A17               	goto	l7073
  2585                           	
  2586  01BE                     l7065:	
  2587                           	
  2588  01BE                     l10779:	
  2589  01BE  1683               	bsf	status, 5	;RP0=1, select bank1
  2590  01BF  1303               	bcf	status, 6	;RP1=0, select bank1
  2591  01C0  084B               	movf	(_HD)^080h,w
  2592  01C1  3A01               	xorlw	01h
  2593  01C2  1D03               	skipz
  2594  01C3  29C5               	goto	u5451
  2595  01C4  29C6               	goto	u5450
  2596  01C5                     u5451:
  2597  01C5  2A04               	goto	l10797
  2598  01C6                     u5450:
  2599                           	
  2600  01C6                     l10781:	
  2601  01C6  084C               	movf	0+(_HD)^080h+01h,w
  2602  01C7  3A01               	xorlw	01h
  2603  01C8  1D03               	skipz
  2604  01C9  29CB               	goto	u5461
  2605  01CA  29CC               	goto	u5460
  2606  01CB                     u5461:
  2607  01CB  2A04               	goto	l10797
  2608  01CC                     u5460:
  2609                           	
  2610  01CC                     l10783:	
  2611  01CC  084D               	movf	0+(_HD)^080h+02h,w
  2612  01CD  3A01               	xorlw	01h
  2613  01CE  1D03               	skipz
  2614  01CF  29D1               	goto	u5471
  2615  01D0  29D2               	goto	u5470
  2616  01D1                     u5471:
  2617  01D1  2A04               	goto	l10797
  2618  01D2                     u5470:
  2619                           	
  2620  01D2                     l10785:	
  2621  01D2  084E               	movf	0+(_HD)^080h+03h,w
  2622  01D3  3A01               	xorlw	01h
  2623  01D4  1D03               	skipz
  2624  01D5  29D7               	goto	u5481
  2625  01D6  29D8               	goto	u5480
  2626  01D7                     u5481:
  2627  01D7  2A04               	goto	l10797
  2628  01D8                     u5480:
  2629                           	
  2630  01D8                     l10787:	
  2631  01D8  084F               	movf	0+(_HD)^080h+04h,w
  2632  01D9  1D03               	skipz
  2633  01DA  29DC               	goto	u5490
  2634  01DB  29E2               	goto	l10791
  2635  01DC                     u5490:
  2636                           	
  2637  01DC                     l10789:	
  2638  01DC  08D0               	movf	0+(_HD)^080h+05h,f
  2639  01DD  1D03               	skipz
  2640  01DE  29E0               	goto	u5501
  2641  01DF  29E1               	goto	u5500
  2642  01E0                     u5501:
  2643  01E0  2A04               	goto	l10797
  2644  01E1                     u5500:
  2645  01E1  29E2               	goto	l10791
  2646                           	
  2647  01E2                     l7071:	
  2648                           	
  2649  01E2                     l10791:	
  2650  01E2  0851               	movf	0+(_HD)^080h+06h,w
  2651  01E3  3A01               	xorlw	01h
  2652  01E4  1D03               	skipz
  2653  01E5  29E7               	goto	u5511
  2654  01E6  29E8               	goto	u5510
  2655  01E7                     u5511:
  2656  01E7  2A04               	goto	l10797
  2657  01E8                     u5510:
  2658                           	
  2659  01E8                     l10793:	
  2660  01E8  0852               	movf	0+(_HD)^080h+07h,w
  2661  01E9  3A01               	xorlw	01h
  2662  01EA  1D03               	skipz
  2663  01EB  29ED               	goto	u5521
  2664  01EC  29EE               	goto	u5520
  2665  01ED                     u5521:
  2666  01ED  2A04               	goto	l10797
  2667  01EE                     u5520:
  2668                           	line	61
  2669                           	
  2670  01EE                     l10795:	
  2671                           ;track.c: 60: {
  2672                           ;track.c: 61: Motor_Status(35,20);
  2673  01EE  3014               	movlw	(014h)
  2674  01EF  00B5               	movwf	(??_Track_Run+0)^080h+0
  2675  01F0  0835               	movf	(??_Track_Run+0)^080h+0,w
  2676  01F1  00B3               	movwf	(?_Motor_Status)^080h
  2677  01F2  3023               	movlw	(023h)
  2678  01F3  120A  158A  2270   	fcall	_Motor_Status
              120A  118A         
  2679                           	line	62
  2680                           ;track.c: 62: Delay_ms(10);
  2681  01F8  300A               	movlw	low(0Ah)
  2682  01F9  1683               	bsf	status, 5	;RP0=1, select bank1
  2683  01FA  1303               	bcf	status, 6	;RP1=0, select bank1
  2684  01FB  00A0               	movwf	(?_Delay_ms)^080h
  2685  01FC  3000               	movlw	high(0Ah)
  2686  01FD  00A1               	movwf	((?_Delay_ms)^080h)+1
  2687  01FE  120A  158A  2364   	fcall	_Delay_ms
              120A  118A         
  2688                           	line	63
  2689                           ;track.c: 63: }else{
  2690  0203  2A17               	goto	l7073
  2691                           	
  2692  0204                     l7069:	
  2693                           	line	64
  2694                           	
  2695  0204                     l10797:	
  2696                           ;track.c: 64: Motor_Status(30,30);
  2697  0204  301E               	movlw	(01Eh)
  2698  0205  1683               	bsf	status, 5	;RP0=1, select bank1
  2699  0206  1303               	bcf	status, 6	;RP1=0, select bank1
  2700  0207  00B5               	movwf	(??_Track_Run+0)^080h+0
  2701  0208  0835               	movf	(??_Track_Run+0)^080h+0,w
  2702  0209  00B3               	movwf	(?_Motor_Status)^080h
  2703  020A  301E               	movlw	(01Eh)
  2704  020B  120A  158A  2270   	fcall	_Motor_Status
              120A  118A         
  2705  0210  2A17               	goto	l7073
  2706                           	line	65
  2707                           	
  2708  0211                     l7072:	
  2709  0211  2A17               	goto	l7073
  2710                           	
  2711  0212                     l7068:	
  2712  0212  2A17               	goto	l7073
  2713                           	
  2714  0213                     l7064:	
  2715  0213  2A17               	goto	l7073
  2716                           	
  2717  0214                     l7060:	
  2718  0214  2A17               	goto	l7073
  2719                           	
  2720  0215                     l7056:	
  2721  0215  2A17               	goto	l7073
  2722                           	
  2723  0216                     l7052:	
  2724  0216  2A17               	goto	l7073
  2725                           	
  2726  0217                     l7048:	
  2727                           	line	66
  2728                           	
  2729  0217                     l7073:	
  2730  0217  0008               	return
  2731                           	opt stack 0
  2732                           GLOBAL	__end_of_Track_Run
  2733  0218                     	__end_of_Track_Run:
  2734 ;; =============== function _Track_Run ends ============
  2735                           
  2736                           	signat	_Track_Run,88
  2737                           	global	_Deal_Yaw
  2738                           psect	text896,local,class=CODE,delta=2
  2739                           global __ptext896
  2740  06F1                     __ptext896:
  2741                           
  2742 ;; *************** function _Deal_Yaw *****************
  2743 ;; Defined at:
  2744 ;;		line 10 in file "E:\MPLAB_IDE\pic16f877a_car\PIC16F877A_CAR\node.c"
  2745 ;; Parameters:    Size  Location     Type
  2746 ;;  yaw             2   21[BANK1 ] int 
  2747 ;;  aim_angel       2   23[BANK1 ] int 
  2748 ;; Auto vars:     Size  Location     Type
  2749 ;;		None
  2750 ;; Return value:  Size  Location     Type
  2751 ;;		None               void
  2752 ;; Registers used:
  2753 ;;		wreg, status,2, status,0, btemp+1, pclath, cstack
  2754 ;; Tracked objects:
  2755 ;;		On entry : 0/0
  2756 ;;		On exit  : 0/0
  2757 ;;		Unchanged: 0/0
  2758 ;; Data sizes:     COMMON   BANK0   BANK1   BANK3   BANK2
  2759 ;;      Params:         0       0       4       0       0
  2760 ;;      Locals:         0       0       0       0       0
  2761 ;;      Temps:          0       0       2       0       0
  2762 ;;      Totals:         0       0       6       0       0
  2763 ;;Total ram usage:        6 bytes
  2764 ;; Hardware stack levels used:    1
  2765 ;; Hardware stack levels required when called:    8
  2766 ;; This function calls:
  2767 ;;		_Motor_Status
  2768 ;; This function is called by:
  2769 ;;		_Track_ONE
  2770 ;;		_Track_TWO
  2771 ;;		_Track_THREE
  2772 ;; This function uses a non-reentrant model
  2773 ;;
  2774                           psect	text896
  2775                           	file	"E:\MPLAB_IDE\pic16f877a_car\PIC16F877A_CAR\node.c"
  2776                           	line	10
  2777                           	global	__size_of_Deal_Yaw
  2778  009C                     	__size_of_Deal_Yaw	equ	__end_of_Deal_Yaw-_Deal_Yaw
  2779                           	
  2780  06F1                     _Deal_Yaw:	
  2781 ;; hardware stack exceeded
  2782                           	opt	stack 0
  2783                           ; Regs used in _Deal_Yaw: [wreg+status,2+status,0+btemp+1+pclath+cstack]
  2784                           	line	11
  2785                           	
  2786  06F1                     l10645:	
  2787                           ;node.c: 11: offset=aim_angel-yaw;
  2788  06F1  1683               	bsf	status, 5	;RP0=1, select bank1
  2789  06F2  1303               	bcf	status, 6	;RP1=0, select bank1
  2790  06F3  0935               	comf	(Deal_Yaw@yaw)^080h,w
  2791  06F4  00B9               	movwf	(??_Deal_Yaw+0)^080h+0
  2792  06F5  0936               	comf	(Deal_Yaw@yaw+1)^080h,w
  2793  06F6  00BA               	movwf	((??_Deal_Yaw+0)^080h+0+1)
  2794  06F7  0AB9               	incf	(??_Deal_Yaw+0)^080h+0,f
  2795  06F8  1903               	skipnz
  2796  06F9  0ABA               	incf	((??_Deal_Yaw+0)^080h+0+1),f
  2797  06FA  0837               	movf	(Deal_Yaw@aim_angel)^080h,w
  2798  06FB  0739               	addwf	0+(??_Deal_Yaw+0)^080h+0,w
  2799  06FC  00D7               	movwf	(_offset)^080h
  2800  06FD  0838               	movf	(Deal_Yaw@aim_angel+1)^080h,w
  2801  06FE  1803               	skipnc
  2802  06FF  0A38               	incf	(Deal_Yaw@aim_angel+1)^080h,w
  2803  0700  073A               	addwf	1+(??_Deal_Yaw+0)^080h+0,w
  2804  0701  00D8               	movwf	1+(_offset)^080h
  2805                           	line	12
  2806                           	
  2807  0702                     l10647:	
  2808                           ;node.c: 12: if(offset>180)
  2809  0702  0858               	movf	(_offset+1)^080h,w
  2810  0703  3A80               	xorlw	80h
  2811  0704  00FF               	movwf	btemp+1
  2812  0705  3080               	movlw	(high(0B5h))^80h
  2813  0706  027F               	subwf	btemp+1,w
  2814  0707  1D03               	skipz
  2815  0708  2F0B               	goto	u4915
  2816  0709  30B5               	movlw	low(0B5h)
  2817  070A  0257               	subwf	(_offset)^080h,w
  2818  070B                     u4915:
  2819                           
  2820  070B  1C03               	skipc
  2821  070C  2F0E               	goto	u4911
  2822  070D  2F0F               	goto	u4910
  2823  070E                     u4911:
  2824  070E  2F18               	goto	l10651
  2825  070F                     u4910:
  2826                           	line	13
  2827                           	
  2828  070F                     l10649:	
  2829                           ;node.c: 13: offset-=360;
  2830  070F  3098               	movlw	low(-360)
  2831  0710  1683               	bsf	status, 5	;RP0=1, select bank1
  2832  0711  1303               	bcf	status, 6	;RP1=0, select bank1
  2833  0712  07D7               	addwf	(_offset)^080h,f
  2834  0713  1803               	skipnc
  2835  0714  0AD8               	incf	(_offset+1)^080h,f
  2836  0715  30FE               	movlw	high(-360)
  2837  0716  07D8               	addwf	(_offset+1)^080h,f
  2838  0717  2F18               	goto	l10651
  2839                           	
  2840  0718                     l6314:	
  2841                           	line	14
  2842                           	
  2843  0718                     l10651:	
  2844                           ;node.c: 14: if(offset<-180)
  2845  0718  1683               	bsf	status, 5	;RP0=1, select bank1
  2846  0719  1303               	bcf	status, 6	;RP1=0, select bank1
  2847  071A  0858               	movf	(_offset+1)^080h,w
  2848  071B  3A80               	xorlw	80h
  2849  071C  00FF               	movwf	btemp+1
  2850  071D  307F               	movlw	(high(-180))^80h
  2851  071E  027F               	subwf	btemp+1,w
  2852  071F  1D03               	skipz
  2853  0720  2F23               	goto	u4925
  2854  0721  304C               	movlw	low(-180)
  2855  0722  0257               	subwf	(_offset)^080h,w
  2856  0723                     u4925:
  2857                           
  2858  0723  1803               	skipnc
  2859  0724  2F26               	goto	u4921
  2860  0725  2F27               	goto	u4920
  2861  0726                     u4921:
  2862  0726  2F30               	goto	l10655
  2863  0727                     u4920:
  2864                           	line	15
  2865                           	
  2866  0727                     l10653:	
  2867                           ;node.c: 15: offset+=360;
  2868  0727  3068               	movlw	low(0168h)
  2869  0728  1683               	bsf	status, 5	;RP0=1, select bank1
  2870  0729  1303               	bcf	status, 6	;RP1=0, select bank1
  2871  072A  07D7               	addwf	(_offset)^080h,f
  2872  072B  1803               	skipnc
  2873  072C  0AD8               	incf	(_offset+1)^080h,f
  2874  072D  3001               	movlw	high(0168h)
  2875  072E  07D8               	addwf	(_offset+1)^080h,f
  2876  072F  2F30               	goto	l10655
  2877                           	
  2878  0730                     l6315:	
  2879                           	line	17
  2880                           	
  2881  0730                     l10655:	
  2882                           ;node.c: 17: if(30>offset&&offset>0)
  2883  0730  1683               	bsf	status, 5	;RP0=1, select bank1
  2884  0731  1303               	bcf	status, 6	;RP1=0, select bank1
  2885  0732  0858               	movf	(_offset+1)^080h,w
  2886  0733  3A80               	xorlw	80h
  2887  0734  00FF               	movwf	btemp+1
  2888  0735  3080               	movlw	(high(01Eh))^80h
  2889  0736  027F               	subwf	btemp+1,w
  2890  0737  1D03               	skipz
  2891  0738  2F3B               	goto	u4935
  2892  0739  301E               	movlw	low(01Eh)
  2893  073A  0257               	subwf	(_offset)^080h,w
  2894  073B                     u4935:
  2895                           
  2896  073B  1803               	skipnc
  2897  073C  2F3E               	goto	u4931
  2898  073D  2F3F               	goto	u4930
  2899  073E                     u4931:
  2900  073E  2F5C               	goto	l10661
  2901  073F                     u4930:
  2902                           	
  2903  073F                     l10657:	
  2904  073F  1683               	bsf	status, 5	;RP0=1, select bank1
  2905  0740  1303               	bcf	status, 6	;RP1=0, select bank1
  2906  0741  0858               	movf	(_offset+1)^080h,w
  2907  0742  3A80               	xorlw	80h
  2908  0743  00FF               	movwf	btemp+1
  2909  0744  3080               	movlw	(high(01h))^80h
  2910  0745  027F               	subwf	btemp+1,w
  2911  0746  1D03               	skipz
  2912  0747  2F4A               	goto	u4945
  2913  0748  3001               	movlw	low(01h)
  2914  0749  0257               	subwf	(_offset)^080h,w
  2915  074A                     u4945:
  2916                           
  2917  074A  1C03               	skipc
  2918  074B  2F4D               	goto	u4941
  2919  074C  2F4E               	goto	u4940
  2920  074D                     u4941:
  2921  074D  2F5C               	goto	l10661
  2922  074E                     u4940:
  2923                           	line	18
  2924                           	
  2925  074E                     l10659:	
  2926                           ;node.c: 18: Motor_Status(30,30+offset);
  2927  074E  1683               	bsf	status, 5	;RP0=1, select bank1
  2928  074F  1303               	bcf	status, 6	;RP1=0, select bank1
  2929  0750  0857               	movf	(_offset)^080h,w
  2930  0751  3E1E               	addlw	01Eh
  2931  0752  00B9               	movwf	(??_Deal_Yaw+0)^080h+0
  2932  0753  0839               	movf	(??_Deal_Yaw+0)^080h+0,w
  2933  0754  00B3               	movwf	(?_Motor_Status)^080h
  2934  0755  301E               	movlw	(01Eh)
  2935  0756  120A  158A  2270   	fcall	_Motor_Status
              120A  118A         
  2936  075B  2F8C               	goto	l6320
  2937                           	line	19
  2938                           	
  2939  075C                     l6316:	
  2940                           	
  2941  075C                     l10661:	
  2942                           ;node.c: 19: else if(-30<offset&&offset<0)
  2943  075C  1683               	bsf	status, 5	;RP0=1, select bank1
  2944  075D  1303               	bcf	status, 6	;RP1=0, select bank1
  2945  075E  0858               	movf	(_offset+1)^080h,w
  2946  075F  3A80               	xorlw	80h
  2947  0760  00FF               	movwf	btemp+1
  2948  0761  307F               	movlw	(high(-29))^80h
  2949  0762  027F               	subwf	btemp+1,w
  2950  0763  1D03               	skipz
  2951  0764  2F67               	goto	u4955
  2952  0765  30E3               	movlw	low(-29)
  2953  0766  0257               	subwf	(_offset)^080h,w
  2954  0767                     u4955:
  2955                           
  2956  0767  1C03               	skipc
  2957  0768  2F6A               	goto	u4951
  2958  0769  2F6B               	goto	u4950
  2959  076A                     u4951:
  2960  076A  2F7E               	goto	l10667
  2961  076B                     u4950:
  2962                           	
  2963  076B                     l10663:	
  2964  076B  1683               	bsf	status, 5	;RP0=1, select bank1
  2965  076C  1303               	bcf	status, 6	;RP1=0, select bank1
  2966  076D  1FD8               	btfss	(_offset+1)^080h,7
  2967  076E  2F70               	goto	u4961
  2968  076F  2F71               	goto	u4960
  2969  0770                     u4961:
  2970  0770  2F7E               	goto	l10667
  2971  0771                     u4960:
  2972                           	line	20
  2973                           	
  2974  0771                     l10665:	
  2975                           ;node.c: 20: Motor_Status(30-offset,30);
  2976  0771  301E               	movlw	(01Eh)
  2977  0772  00B9               	movwf	(??_Deal_Yaw+0)^080h+0
  2978  0773  0839               	movf	(??_Deal_Yaw+0)^080h+0,w
  2979  0774  00B3               	movwf	(?_Motor_Status)^080h
  2980  0775  0357               	decf	(_offset)^080h,w
  2981  0776  3AFF               	xorlw	0ffh
  2982  0777  3E1E               	addlw	01Eh
  2983  0778  120A  158A  2270   	fcall	_Motor_Status
              120A  118A         
  2984  077D  2F8C               	goto	l6320
  2985                           	line	21
  2986                           	
  2987  077E                     l6318:	
  2988                           	line	22
  2989                           	
  2990  077E                     l10667:	
  2991                           ;node.c: 21: else
  2992                           ;node.c: 22: Motor_Status(20,20);
  2993  077E  3014               	movlw	(014h)
  2994  077F  1683               	bsf	status, 5	;RP0=1, select bank1
  2995  0780  1303               	bcf	status, 6	;RP1=0, select bank1
  2996  0781  00B9               	movwf	(??_Deal_Yaw+0)^080h+0
  2997  0782  0839               	movf	(??_Deal_Yaw+0)^080h+0,w
  2998  0783  00B3               	movwf	(?_Motor_Status)^080h
  2999  0784  3014               	movlw	(014h)
  3000  0785  120A  158A  2270   	fcall	_Motor_Status
              120A  118A         
  3001  078A  2F8C               	goto	l6320
  3002                           	
  3003  078B                     l6319:	
  3004  078B  2F8C               	goto	l6320
  3005                           	
  3006  078C                     l6317:	
  3007                           	line	23
  3008                           	
  3009  078C                     l6320:	
  3010  078C  0008               	return
  3011                           	opt stack 0
  3012                           GLOBAL	__end_of_Deal_Yaw
  3013  078D                     	__end_of_Deal_Yaw:
  3014 ;; =============== function _Deal_Yaw ends ============
  3015                           
  3016                           	signat	_Deal_Yaw,8312
  3017                           	global	_Motor_Status
  3018                           psect	text897,local,class=CODE,delta=2
  3019                           global __ptext897
  3020  0A70                     __ptext897:
  3021                           
  3022 ;; *************** function _Motor_Status *****************
  3023 ;; Defined at:
  3024 ;;		line 86 in file "E:\MPLAB_IDE\pic16f877a_car\PIC16F877A_CAR\motor.c"
  3025 ;; Parameters:    Size  Location     Type
  3026 ;;  speedL          1    wreg     char 
  3027 ;;  speedR          1   19[BANK1 ] char 
  3028 ;; Auto vars:     Size  Location     Type
  3029 ;;  speedL          1   20[BANK1 ] char 
  3030 ;; Return value:  Size  Location     Type
  3031 ;;		None               void
  3032 ;; Registers used:
  3033 ;;		wreg, status,2, status,0, pclath, cstack
  3034 ;; Tracked objects:
  3035 ;;		On entry : 0/0
  3036 ;;		On exit  : 0/0
  3037 ;;		Unchanged: 0/0
  3038 ;; Data sizes:     COMMON   BANK0   BANK1   BANK3   BANK2
  3039 ;;      Params:         0       0       1       0       0
  3040 ;;      Locals:         0       0       1       0       0
  3041 ;;      Temps:          0       0       0       0       0
  3042 ;;      Totals:         0       0       2       0       0
  3043 ;;Total ram usage:        2 bytes
  3044 ;; Hardware stack levels used:    1
  3045 ;; Hardware stack levels required when called:    7
  3046 ;; This function calls:
  3047 ;;		_Motor_SetRightSpeed
  3048 ;;		_Motor_SetLeftSpeed
  3049 ;; This function is called by:
  3050 ;;		_Deal_Yaw
  3051 ;;		_Track_Run
  3052 ;;		_Track_ONE
  3053 ;;		_Track_TWO
  3054 ;;		_Track_THREE
  3055 ;;		_Motor_Stop
  3056 ;;		_Motor_Forward
  3057 ;;		_Motor_Backward
  3058 ;;		_Motor_TurnLeft
  3059 ;;		_Motor_TurnRight
  3060 ;; This function uses a non-reentrant model
  3061 ;;
  3062                           psect	text897
  3063                           	file	"E:\MPLAB_IDE\pic16f877a_car\PIC16F877A_CAR\motor.c"
  3064                           	line	86
  3065                           	global	__size_of_Motor_Status
  3066  0012                     	__size_of_Motor_Status	equ	__end_of_Motor_Status-_Motor_Status
  3067                           	
  3068  0A70                     _Motor_Status:	
  3069 ;; hardware stack exceeded
  3070                           	opt	stack 0
  3071                           ; Regs used in _Motor_Status: [wreg+status,2+status,0+pclath+cstack]
  3072                           ;Motor_Status@speedL stored from wreg
  3073  0A70  1683               	bsf	status, 5	;RP0=1, select bank1
  3074  0A71  1303               	bcf	status, 6	;RP1=0, select bank1
  3075  0A72  00B4               	movwf	(Motor_Status@speedL)^080h
  3076                           	line	87
  3077                           	
  3078  0A73                     l10643:	
  3079                           ;motor.c: 87: Motor_SetRightSpeed(speedR);
  3080  0A73  0833               	movf	(Motor_Status@speedR)^080h,w
  3081  0A74  120A  158A  24FD   	fcall	_Motor_SetRightSpeed
              120A  158A         
  3082                           	line	88
  3083                           ;motor.c: 88: Motor_SetLeftSpeed(speedL);
  3084  0A79  1683               	bsf	status, 5	;RP0=1, select bank1
  3085  0A7A  1303               	bcf	status, 6	;RP1=0, select bank1
  3086  0A7B  0834               	movf	(Motor_Status@speedL)^080h,w
  3087  0A7C  120A  158A  2545   	fcall	_Motor_SetLeftSpeed
              120A  158A         
  3088                           	line	89
  3089                           	
  3090  0A81                     l5610:	
  3091  0A81  0008               	return
  3092                           	opt stack 0
  3093                           GLOBAL	__end_of_Motor_Status
  3094  0A82                     	__end_of_Motor_Status:
  3095 ;; =============== function _Motor_Status ends ============
  3096                           
  3097                           	signat	_Motor_Status,8312
  3098                           	global	_JY62_ShowData
  3099                           psect	text898,local,class=CODE,delta=2
  3100                           global __ptext898
  3101  0BFD                     __ptext898:
  3102                           
  3103 ;; *************** function _JY62_ShowData *****************
  3104 ;; Defined at:
  3105 ;;		line 83 in file "E:\MPLAB_IDE\pic16f877a_car\PIC16F877A_CAR\JY62.c"
  3106 ;; Parameters:    Size  Location     Type
  3107 ;;  yaw             2   29[BANK1 ] int 
  3108 ;; Auto vars:     Size  Location     Type
  3109 ;;  str            11   32[BANK1 ] unsigned char [11]
  3110 ;; Return value:  Size  Location     Type
  3111 ;;		None               void
  3112 ;; Registers used:
  3113 ;;		wreg, fsr0l, fsr0h, status,2, status,0, btemp+1, pclath, cstack
  3114 ;; Tracked objects:
  3115 ;;		On entry : 0/0
  3116 ;;		On exit  : 0/0
  3117 ;;		Unchanged: 0/0
  3118 ;; Data sizes:     COMMON   BANK0   BANK1   BANK3   BANK2
  3119 ;;      Params:         0       0       2       0       0
  3120 ;;      Locals:         0       0      11       0       0
  3121 ;;      Temps:          0       0       1       0       0
  3122 ;;      Totals:         0       0      14       0       0
  3123 ;;Total ram usage:       14 bytes
  3124 ;; Hardware stack levels used:    1
  3125 ;; Hardware stack levels required when called:    7
  3126 ;; This function calls:
  3127 ;;		_LCD_Init
  3128 ;;		_LCD_ShowString
  3129 ;;		_sprintf
  3130 ;;		_DELAY
  3131 ;; This function is called by:
  3132 ;;		_main
  3133 ;; This function uses a non-reentrant model
  3134 ;;
  3135                           psect	text898
  3136                           	file	"E:\MPLAB_IDE\pic16f877a_car\PIC16F877A_CAR\JY62.c"
  3137                           	line	83
  3138                           	global	__size_of_JY62_ShowData
  3139  003A                     	__size_of_JY62_ShowData	equ	__end_of_JY62_ShowData-_JY62_ShowData
  3140                           	
  3141  0BFD                     _JY62_ShowData:	
  3142                           	opt	stack 0
  3143                           ; Regs used in _JY62_ShowData: [wreg-fsr0h+status,2+status,0+btemp+1+pclath+cstack]
  3144                           	line	85
  3145                           	
  3146  0BFD                     l10633:	
  3147                           ;JY62.c: 84: unsigned char str[11];
  3148                           ;JY62.c: 85: LCD_Init();
  3149  0BFD  120A  158A  2437   	fcall	_LCD_Init
              120A  158A         
  3150                           	line	86
  3151                           	
  3152  0C02                     l10635:	
  3153                           ;JY62.c: 86: LCD_ShowString("Yaw:", 0, 0);
  3154  0C02  300B               	movlw	low((STR_1-__stringbase))
  3155  0C03  1683               	bsf	status, 5	;RP0=1, select bank1
  3156  0C04  1303               	bcf	status, 6	;RP1=0, select bank1
  3157  0C05  00A2               	movwf	(?_LCD_ShowString)^080h
  3158  0C06  3080               	movlw	80h
  3159  0C07  00A3               	movwf	(?_LCD_ShowString+1)^080h
  3160  0C08  01A4               	clrf	0+(?_LCD_ShowString)^080h+02h
  3161  0C09  01A5               	clrf	0+(?_LCD_ShowString)^080h+03h
  3162  0C0A  120A  118A  278D   	fcall	_LCD_ShowString
              120A  158A         
  3163                           	line	88
  3164                           	
  3165  0C0F                     l10637:	
  3166                           ;JY62.c: 88: sprintf(str, "%d", yaw);
  3167  0C0F  3010               	movlw	((STR_2-__stringbase))&0ffh
  3168  0C10  1683               	bsf	status, 5	;RP0=1, select bank1
  3169  0C11  1303               	bcf	status, 6	;RP1=0, select bank1
  3170  0C12  00BF               	movwf	(??_JY62_ShowData+0)^080h+0
  3171  0C13  083F               	movf	(??_JY62_ShowData+0)^080h+0,w
  3172  0C14  00AE               	movwf	(?_sprintf)^080h
  3173  0C15  083E               	movf	(JY62_ShowData@yaw+1)^080h,w
  3174  0C16  01B0               	clrf	1+(?_sprintf)^080h+01h
  3175  0C17  07B0               	addwf	1+(?_sprintf)^080h+01h
  3176  0C18  083D               	movf	(JY62_ShowData@yaw)^080h,w
  3177  0C19  01AF               	clrf	0+(?_sprintf)^080h+01h
  3178  0C1A  07AF               	addwf	0+(?_sprintf)^080h+01h
  3179                           
  3180  0C1B  30C0               	movlw	(JY62_ShowData@str)&0ffh
  3181  0C1C  120A  118A  2218   	fcall	_sprintf
              120A  158A         
  3182                           	line	89
  3183                           	
  3184  0C21                     l10639:	
  3185                           ;JY62.c: 89: LCD_ShowString(str, 0, 4);
  3186  0C21  30C0               	movlw	(JY62_ShowData@str&0ffh)
  3187  0C22  1683               	bsf	status, 5	;RP0=1, select bank1
  3188  0C23  1303               	bcf	status, 6	;RP1=0, select bank1
  3189  0C24  00A2               	movwf	(?_LCD_ShowString)^080h
  3190  0C25  3000               	movlw	(0x1/2)
  3191  0C26  00A3               	movwf	(?_LCD_ShowString+1)^080h
  3192  0C27  01A4               	clrf	0+(?_LCD_ShowString)^080h+02h
  3193  0C28  3004               	movlw	(04h)
  3194  0C29  00BF               	movwf	(??_JY62_ShowData+0)^080h+0
  3195  0C2A  083F               	movf	(??_JY62_ShowData+0)^080h+0,w
  3196  0C2B  00A5               	movwf	0+(?_LCD_ShowString)^080h+03h
  3197  0C2C  120A  118A  278D   	fcall	_LCD_ShowString
              120A  158A         
  3198                           	line	91
  3199                           	
  3200  0C31                     l10641:	
  3201                           ;JY62.c: 91: DELAY();
  3202  0C31  120A  158A  22CC   	fcall	_DELAY
              120A  158A         
  3203                           	line	93
  3204                           	
  3205  0C36                     l1409:	
  3206  0C36  0008               	return
  3207                           	opt stack 0
  3208                           GLOBAL	__end_of_JY62_ShowData
  3209  0C37                     	__end_of_JY62_ShowData:
  3210 ;; =============== function _JY62_ShowData ends ============
  3211                           
  3212                           	signat	_JY62_ShowData,4216
  3213                           	global	_Motor_SetLeftSpeed
  3214                           psect	text899,local,class=CODE,delta=2
  3215                           global __ptext899
  3216  0D45                     __ptext899:
  3217                           
  3218 ;; *************** function _Motor_SetLeftSpeed *****************
  3219 ;; Defined at:
  3220 ;;		line 61 in file "E:\MPLAB_IDE\pic16f877a_car\PIC16F877A_CAR\motor.c"
  3221 ;; Parameters:    Size  Location     Type
  3222 ;;  speed           1    wreg     char 
  3223 ;; Auto vars:     Size  Location     Type
  3224 ;;  speed           1   18[BANK1 ] char 
  3225 ;; Return value:  Size  Location     Type
  3226 ;;		None               void
  3227 ;; Registers used:
  3228 ;;		wreg, status,2, status,0, pclath, cstack
  3229 ;; Tracked objects:
  3230 ;;		On entry : 0/0
  3231 ;;		On exit  : 0/0
  3232 ;;		Unchanged: 0/0
  3233 ;; Data sizes:     COMMON   BANK0   BANK1   BANK3   BANK2
  3234 ;;      Params:         0       0       0       0       0
  3235 ;;      Locals:         0       0       1       0       0
  3236 ;;      Temps:          0       0       1       0       0
  3237 ;;      Totals:         0       0       2       0       0
  3238 ;;Total ram usage:        2 bytes
  3239 ;; Hardware stack levels used:    1
  3240 ;; Hardware stack levels required when called:    6
  3241 ;; This function calls:
  3242 ;;		_PWM2_SetDutyCycle
  3243 ;; This function is called by:
  3244 ;;		_Motor_Status
  3245 ;; This function uses a non-reentrant model
  3246 ;;
  3247                           psect	text899
  3248                           	file	"E:\MPLAB_IDE\pic16f877a_car\PIC16F877A_CAR\motor.c"
  3249                           	line	61
  3250                           	global	__size_of_Motor_SetLeftSpeed
  3251  0048                     	__size_of_Motor_SetLeftSpeed	equ	__end_of_Motor_SetLeftSpeed-_Motor_SetLeftSpeed
  3252                           	
  3253  0D45                     _Motor_SetLeftSpeed:	
  3254 ;; hardware stack exceeded
  3255                           	opt	stack 0
  3256                           ; Regs used in _Motor_SetLeftSpeed: [wreg+status,2+status,0+pclath+cstack]
  3257                           ;Motor_SetLeftSpeed@speed stored from wreg
  3258  0D45  1683               	bsf	status, 5	;RP0=1, select bank1
  3259  0D46  1303               	bcf	status, 6	;RP1=0, select bank1
  3260  0D47  00B2               	movwf	(Motor_SetLeftSpeed@speed)^080h
  3261                           	line	62
  3262                           	
  3263  0D48                     l10615:	
  3264                           ;motor.c: 62: if(speed >100) {
  3265  0D48  0832               	movf	(Motor_SetLeftSpeed@speed)^080h,w
  3266  0D49  3A80               	xorlw	80h
  3267  0D4A  3E1B               	addlw	-((065h)^80h)
  3268  0D4B  1C03               	skipc
  3269  0D4C  2D4E               	goto	u4861
  3270  0D4D  2D4F               	goto	u4860
  3271  0D4E                     u4861:
  3272  0D4E  2D54               	goto	l10619
  3273  0D4F                     u4860:
  3274                           	line	63
  3275                           	
  3276  0D4F                     l10617:	
  3277                           ;motor.c: 63: speed = 100;
  3278  0D4F  3064               	movlw	(064h)
  3279  0D50  00B1               	movwf	(??_Motor_SetLeftSpeed+0)^080h+0
  3280  0D51  0831               	movf	(??_Motor_SetLeftSpeed+0)^080h+0,w
  3281  0D52  00B2               	movwf	(Motor_SetLeftSpeed@speed)^080h
  3282                           	line	64
  3283                           ;motor.c: 64: } else if(speed < -100) {
  3284  0D53  2D60               	goto	l5600
  3285                           	
  3286  0D54                     l5599:	
  3287                           	
  3288  0D54                     l10619:	
  3289  0D54  0832               	movf	(Motor_SetLeftSpeed@speed)^080h,w
  3290  0D55  3A80               	xorlw	80h
  3291  0D56  3EE4               	addlw	-((-100)^80h)
  3292  0D57  1803               	skipnc
  3293  0D58  2D5A               	goto	u4871
  3294  0D59  2D5B               	goto	u4870
  3295  0D5A                     u4871:
  3296  0D5A  2D60               	goto	l5600
  3297  0D5B                     u4870:
  3298                           	line	65
  3299                           	
  3300  0D5B                     l10621:	
  3301                           ;motor.c: 65: speed = -100;
  3302  0D5B  309C               	movlw	(-100)
  3303  0D5C  00B1               	movwf	(??_Motor_SetLeftSpeed+0)^080h+0
  3304  0D5D  0831               	movf	(??_Motor_SetLeftSpeed+0)^080h+0,w
  3305  0D5E  00B2               	movwf	(Motor_SetLeftSpeed@speed)^080h
  3306  0D5F  2D60               	goto	l5600
  3307                           	line	66
  3308                           	
  3309  0D60                     l5601:	
  3310                           	line	68
  3311                           	
  3312  0D60                     l5600:	
  3313                           ;motor.c: 66: }
  3314                           ;motor.c: 68: if (speed > 0) {
  3315  0D60  0832               	movf	(Motor_SetLeftSpeed@speed)^080h,w
  3316  0D61  3A80               	xorlw	80h
  3317  0D62  3E7F               	addlw	-((01h)^80h)
  3318  0D63  1C03               	skipc
  3319  0D64  2D66               	goto	u4881
  3320  0D65  2D67               	goto	u4880
  3321  0D66                     u4881:
  3322  0D66  2D6C               	goto	l10625
  3323  0D67                     u4880:
  3324                           	line	69
  3325                           	
  3326  0D67                     l10623:	
  3327                           ;motor.c: 69: RC4 = 1;
  3328  0D67  1283               	bcf	status, 5	;RP0=0, select bank0
  3329  0D68  1303               	bcf	status, 6	;RP1=0, select bank0
  3330  0D69  1607               	bsf	(60/8),(60)&7
  3331                           	line	70
  3332                           ;motor.c: 70: RC5 = 0;
  3333  0D6A  1287               	bcf	(61/8),(61)&7
  3334                           	line	71
  3335                           ;motor.c: 71: } else if(speed == 0){
  3336  0D6B  2D7D               	goto	l5603
  3337                           	
  3338  0D6C                     l5602:	
  3339                           	
  3340  0D6C                     l10625:	
  3341  0D6C  1683               	bsf	status, 5	;RP0=1, select bank1
  3342  0D6D  1303               	bcf	status, 6	;RP1=0, select bank1
  3343  0D6E  08B2               	movf	(Motor_SetLeftSpeed@speed)^080h,f
  3344  0D6F  1D03               	skipz
  3345  0D70  2D72               	goto	u4891
  3346  0D71  2D73               	goto	u4890
  3347  0D72                     u4891:
  3348  0D72  2D78               	goto	l5604
  3349  0D73                     u4890:
  3350                           	line	72
  3351                           	
  3352  0D73                     l10627:	
  3353                           ;motor.c: 72: RC4 = 0;
  3354  0D73  1283               	bcf	status, 5	;RP0=0, select bank0
  3355  0D74  1303               	bcf	status, 6	;RP1=0, select bank0
  3356  0D75  1207               	bcf	(60/8),(60)&7
  3357                           	line	73
  3358                           ;motor.c: 73: RC5 = 0;
  3359  0D76  1287               	bcf	(61/8),(61)&7
  3360                           	line	74
  3361                           ;motor.c: 74: } else {
  3362  0D77  2D7D               	goto	l5603
  3363                           	
  3364  0D78                     l5604:	
  3365                           	line	75
  3366                           ;motor.c: 75: RC4 = 0;
  3367  0D78  1283               	bcf	status, 5	;RP0=0, select bank0
  3368  0D79  1303               	bcf	status, 6	;RP1=0, select bank0
  3369  0D7A  1207               	bcf	(60/8),(60)&7
  3370                           	line	76
  3371                           ;motor.c: 76: RC5 = 1;
  3372  0D7B  1687               	bsf	(61/8),(61)&7
  3373  0D7C  2D7D               	goto	l5603
  3374                           	line	77
  3375                           	
  3376  0D7D                     l5605:	
  3377                           	
  3378  0D7D                     l5603:	
  3379                           	line	79
  3380                           ;motor.c: 77: }
  3381                           ;motor.c: 79: if(speed < 0) {
  3382  0D7D  1683               	bsf	status, 5	;RP0=1, select bank1
  3383  0D7E  1303               	bcf	status, 6	;RP1=0, select bank1
  3384  0D7F  1FB2               	btfss	(Motor_SetLeftSpeed@speed)^080h,7
  3385  0D80  2D82               	goto	u4901
  3386  0D81  2D83               	goto	u4900
  3387  0D82                     u4901:
  3388  0D82  2D86               	goto	l10631
  3389  0D83                     u4900:
  3390                           	line	80
  3391                           	
  3392  0D83                     l10629:	
  3393                           ;motor.c: 80: speed = -speed;
  3394  0D83  09B2               	comf	(Motor_SetLeftSpeed@speed)^080h,f
  3395  0D84  0AB2               	incf	(Motor_SetLeftSpeed@speed)^080h,f
  3396  0D85  2D86               	goto	l10631
  3397                           	line	81
  3398                           	
  3399  0D86                     l5606:	
  3400                           	line	82
  3401                           	
  3402  0D86                     l10631:	
  3403                           ;motor.c: 81: }
  3404                           ;motor.c: 82: PWM2_SetDutyCycle(speed);
  3405  0D86  0832               	movf	(Motor_SetLeftSpeed@speed)^080h,w
  3406  0D87  120A  158A  23C8   	fcall	_PWM2_SetDutyCycle
              120A  158A         
  3407                           	line	83
  3408                           	
  3409  0D8C                     l5607:	
  3410  0D8C  0008               	return
  3411                           	opt stack 0
  3412                           GLOBAL	__end_of_Motor_SetLeftSpeed
  3413  0D8D                     	__end_of_Motor_SetLeftSpeed:
  3414 ;; =============== function _Motor_SetLeftSpeed ends ============
  3415                           
  3416                           	signat	_Motor_SetLeftSpeed,4216
  3417                           	global	_Motor_SetRightSpeed
  3418                           psect	text900,local,class=CODE,delta=2
  3419                           global __ptext900
  3420  0CFD                     __ptext900:
  3421                           
  3422 ;; *************** function _Motor_SetRightSpeed *****************
  3423 ;; Defined at:
  3424 ;;		line 37 in file "E:\MPLAB_IDE\pic16f877a_car\PIC16F877A_CAR\motor.c"
  3425 ;; Parameters:    Size  Location     Type
  3426 ;;  speed           1    wreg     char 
  3427 ;; Auto vars:     Size  Location     Type
  3428 ;;  speed           1   18[BANK1 ] char 
  3429 ;; Return value:  Size  Location     Type
  3430 ;;		None               void
  3431 ;; Registers used:
  3432 ;;		wreg, status,2, status,0, pclath, cstack
  3433 ;; Tracked objects:
  3434 ;;		On entry : 0/0
  3435 ;;		On exit  : 0/0
  3436 ;;		Unchanged: 0/0
  3437 ;; Data sizes:     COMMON   BANK0   BANK1   BANK3   BANK2
  3438 ;;      Params:         0       0       0       0       0
  3439 ;;      Locals:         0       0       1       0       0
  3440 ;;      Temps:          0       0       1       0       0
  3441 ;;      Totals:         0       0       2       0       0
  3442 ;;Total ram usage:        2 bytes
  3443 ;; Hardware stack levels used:    1
  3444 ;; Hardware stack levels required when called:    6
  3445 ;; This function calls:
  3446 ;;		_PWM1_SetDutyCycle
  3447 ;; This function is called by:
  3448 ;;		_Motor_Status
  3449 ;; This function uses a non-reentrant model
  3450 ;;
  3451                           psect	text900
  3452                           	file	"E:\MPLAB_IDE\pic16f877a_car\PIC16F877A_CAR\motor.c"
  3453                           	line	37
  3454                           	global	__size_of_Motor_SetRightSpeed
  3455  0048                     	__size_of_Motor_SetRightSpeed	equ	__end_of_Motor_SetRightSpeed-_Motor_SetRightSpeed
  3456                           	
  3457  0CFD                     _Motor_SetRightSpeed:	
  3458 ;; hardware stack exceeded
  3459                           	opt	stack 0
  3460                           ; Regs used in _Motor_SetRightSpeed: [wreg+status,2+status,0+pclath+cstack]
  3461                           ;Motor_SetRightSpeed@speed stored from wreg
  3462  0CFD  1683               	bsf	status, 5	;RP0=1, select bank1
  3463  0CFE  1303               	bcf	status, 6	;RP1=0, select bank1
  3464  0CFF  00B2               	movwf	(Motor_SetRightSpeed@speed)^080h
  3465                           	line	38
  3466                           	
  3467  0D00                     l10597:	
  3468                           ;motor.c: 38: if(speed >100) {
  3469  0D00  0832               	movf	(Motor_SetRightSpeed@speed)^080h,w
  3470  0D01  3A80               	xorlw	80h
  3471  0D02  3E1B               	addlw	-((065h)^80h)
  3472  0D03  1C03               	skipc
  3473  0D04  2D06               	goto	u4811
  3474  0D05  2D07               	goto	u4810
  3475  0D06                     u4811:
  3476  0D06  2D0C               	goto	l10601
  3477  0D07                     u4810:
  3478                           	line	39
  3479                           	
  3480  0D07                     l10599:	
  3481                           ;motor.c: 39: speed = 100;
  3482  0D07  3064               	movlw	(064h)
  3483  0D08  00B1               	movwf	(??_Motor_SetRightSpeed+0)^080h+0
  3484  0D09  0831               	movf	(??_Motor_SetRightSpeed+0)^080h+0,w
  3485  0D0A  00B2               	movwf	(Motor_SetRightSpeed@speed)^080h
  3486                           	line	40
  3487                           ;motor.c: 40: } else if(speed < -100) {
  3488  0D0B  2D18               	goto	l5589
  3489                           	
  3490  0D0C                     l5588:	
  3491                           	
  3492  0D0C                     l10601:	
  3493  0D0C  0832               	movf	(Motor_SetRightSpeed@speed)^080h,w
  3494  0D0D  3A80               	xorlw	80h
  3495  0D0E  3EE4               	addlw	-((-100)^80h)
  3496  0D0F  1803               	skipnc
  3497  0D10  2D12               	goto	u4821
  3498  0D11  2D13               	goto	u4820
  3499  0D12                     u4821:
  3500  0D12  2D18               	goto	l5589
  3501  0D13                     u4820:
  3502                           	line	41
  3503                           	
  3504  0D13                     l10603:	
  3505                           ;motor.c: 41: speed = -100;
  3506  0D13  309C               	movlw	(-100)
  3507  0D14  00B1               	movwf	(??_Motor_SetRightSpeed+0)^080h+0
  3508  0D15  0831               	movf	(??_Motor_SetRightSpeed+0)^080h+0,w
  3509  0D16  00B2               	movwf	(Motor_SetRightSpeed@speed)^080h
  3510  0D17  2D18               	goto	l5589
  3511                           	line	42
  3512                           	
  3513  0D18                     l5590:	
  3514                           	line	44
  3515                           	
  3516  0D18                     l5589:	
  3517                           ;motor.c: 42: }
  3518                           ;motor.c: 44: if (speed > 0) {
  3519  0D18  0832               	movf	(Motor_SetRightSpeed@speed)^080h,w
  3520  0D19  3A80               	xorlw	80h
  3521  0D1A  3E7F               	addlw	-((01h)^80h)
  3522  0D1B  1C03               	skipc
  3523  0D1C  2D1E               	goto	u4831
  3524  0D1D  2D1F               	goto	u4830
  3525  0D1E                     u4831:
  3526  0D1E  2D24               	goto	l10607
  3527  0D1F                     u4830:
  3528                           	line	45
  3529                           	
  3530  0D1F                     l10605:	
  3531                           ;motor.c: 45: RC0 = 1;
  3532  0D1F  1283               	bcf	status, 5	;RP0=0, select bank0
  3533  0D20  1303               	bcf	status, 6	;RP1=0, select bank0
  3534  0D21  1407               	bsf	(56/8),(56)&7
  3535                           	line	46
  3536                           ;motor.c: 46: RC3 = 0;
  3537  0D22  1187               	bcf	(59/8),(59)&7
  3538                           	line	47
  3539                           ;motor.c: 47: } else if(speed == 0){
  3540  0D23  2D35               	goto	l5592
  3541                           	
  3542  0D24                     l5591:	
  3543                           	
  3544  0D24                     l10607:	
  3545  0D24  1683               	bsf	status, 5	;RP0=1, select bank1
  3546  0D25  1303               	bcf	status, 6	;RP1=0, select bank1
  3547  0D26  08B2               	movf	(Motor_SetRightSpeed@speed)^080h,f
  3548  0D27  1D03               	skipz
  3549  0D28  2D2A               	goto	u4841
  3550  0D29  2D2B               	goto	u4840
  3551  0D2A                     u4841:
  3552  0D2A  2D30               	goto	l5593
  3553  0D2B                     u4840:
  3554                           	line	48
  3555                           	
  3556  0D2B                     l10609:	
  3557                           ;motor.c: 48: RC0 = 0;
  3558  0D2B  1283               	bcf	status, 5	;RP0=0, select bank0
  3559  0D2C  1303               	bcf	status, 6	;RP1=0, select bank0
  3560  0D2D  1007               	bcf	(56/8),(56)&7
  3561                           	line	49
  3562                           ;motor.c: 49: RC3 = 0;
  3563  0D2E  1187               	bcf	(59/8),(59)&7
  3564                           	line	50
  3565                           ;motor.c: 50: } else {
  3566  0D2F  2D35               	goto	l5592
  3567                           	
  3568  0D30                     l5593:	
  3569                           	line	51
  3570                           ;motor.c: 51: RC0 = 0;
  3571  0D30  1283               	bcf	status, 5	;RP0=0, select bank0
  3572  0D31  1303               	bcf	status, 6	;RP1=0, select bank0
  3573  0D32  1007               	bcf	(56/8),(56)&7
  3574                           	line	52
  3575                           ;motor.c: 52: RC3 = 1;
  3576  0D33  1587               	bsf	(59/8),(59)&7
  3577  0D34  2D35               	goto	l5592
  3578                           	line	53
  3579                           	
  3580  0D35                     l5594:	
  3581                           	
  3582  0D35                     l5592:	
  3583                           	line	55
  3584                           ;motor.c: 53: }
  3585                           ;motor.c: 55: if(speed < 0) {
  3586  0D35  1683               	bsf	status, 5	;RP0=1, select bank1
  3587  0D36  1303               	bcf	status, 6	;RP1=0, select bank1
  3588  0D37  1FB2               	btfss	(Motor_SetRightSpeed@speed)^080h,7
  3589  0D38  2D3A               	goto	u4851
  3590  0D39  2D3B               	goto	u4850
  3591  0D3A                     u4851:
  3592  0D3A  2D3E               	goto	l10613
  3593  0D3B                     u4850:
  3594                           	line	56
  3595                           	
  3596  0D3B                     l10611:	
  3597                           ;motor.c: 56: speed = -speed;
  3598  0D3B  09B2               	comf	(Motor_SetRightSpeed@speed)^080h,f
  3599  0D3C  0AB2               	incf	(Motor_SetRightSpeed@speed)^080h,f
  3600  0D3D  2D3E               	goto	l10613
  3601                           	line	57
  3602                           	
  3603  0D3E                     l5595:	
  3604                           	line	58
  3605                           	
  3606  0D3E                     l10613:	
  3607                           ;motor.c: 57: }
  3608                           ;motor.c: 58: PWM1_SetDutyCycle(speed);
  3609  0D3E  0832               	movf	(Motor_SetRightSpeed@speed)^080h,w
  3610  0D3F  120A  158A  2393   	fcall	_PWM1_SetDutyCycle
              120A  158A         
  3611                           	line	59
  3612                           	
  3613  0D44                     l5596:	
  3614  0D44  0008               	return
  3615                           	opt stack 0
  3616                           GLOBAL	__end_of_Motor_SetRightSpeed
  3617  0D45                     	__end_of_Motor_SetRightSpeed:
  3618 ;; =============== function _Motor_SetRightSpeed ends ============
  3619                           
  3620                           	signat	_Motor_SetRightSpeed,4216
  3621                           	global	_LCD_ShowString
  3622                           psect	text901,local,class=CODE,delta=2
  3623                           global __ptext901
  3624  078D                     __ptext901:
  3625                           
  3626 ;; *************** function _LCD_ShowString *****************
  3627 ;; Defined at:
  3628 ;;		line 48 in file "E:\MPLAB_IDE\pic16f877a_car\PIC16F877A_CAR\LCD.c"
  3629 ;; Parameters:    Size  Location     Type
  3630 ;;  str             2    2[BANK1 ] PTR unsigned char 
  3631 ;;		 -> JY62_ShowData@str(11), STR_1(5), 
  3632 ;;  row             1    4[BANK1 ] unsigned char 
  3633 ;;  col             1    5[BANK1 ] unsigned char 
  3634 ;; Auto vars:     Size  Location     Type
  3635 ;;  address         1    7[BANK1 ] unsigned char 
  3636 ;; Return value:  Size  Location     Type
  3637 ;;		None               void
  3638 ;; Registers used:
  3639 ;;		wreg, fsr0l, fsr0h, status,2, status,0, btemp+1, pclath, cstack
  3640 ;; Tracked objects:
  3641 ;;		On entry : 0/0
  3642 ;;		On exit  : 0/0
  3643 ;;		Unchanged: 0/0
  3644 ;; Data sizes:     COMMON   BANK0   BANK1   BANK3   BANK2
  3645 ;;      Params:         0       0       4       0       0
  3646 ;;      Locals:         0       0       1       0       0
  3647 ;;      Temps:          0       0       1       0       0
  3648 ;;      Totals:         0       0       6       0       0
  3649 ;;Total ram usage:        6 bytes
  3650 ;; Hardware stack levels used:    1
  3651 ;; Hardware stack levels required when called:    6
  3652 ;; This function calls:
  3653 ;;		_ENABLE
  3654 ;;		_ENABLE1
  3655 ;;		_DELAY
  3656 ;; This function is called by:
  3657 ;;		_JY62_ShowData
  3658 ;; This function uses a non-reentrant model
  3659 ;;
  3660                           psect	text901
  3661                           	file	"E:\MPLAB_IDE\pic16f877a_car\PIC16F877A_CAR\LCD.c"
  3662                           	line	48
  3663                           	global	__size_of_LCD_ShowString
  3664  005A                     	__size_of_LCD_ShowString	equ	__end_of_LCD_ShowString-_LCD_ShowString
  3665                           	
  3666  078D                     _LCD_ShowString:	
  3667 ;; using string table level
  3668                           	opt	stack 1
  3669                           ; Regs used in _LCD_ShowString: [wreg-fsr0h+status,2+status,0+btemp+1+pclath+cstack]
  3670                           	line	50
  3671                           	
  3672  078D                     l10577:	
  3673                           ;LCD.c: 49: unsigned char address;
  3674                           ;LCD.c: 50: if (row == 0) {
  3675  078D  1683               	bsf	status, 5	;RP0=1, select bank1
  3676  078E  1303               	bcf	status, 6	;RP1=0, select bank1
  3677  078F  08A4               	movf	(LCD_ShowString@row)^080h,f
  3678  0790  1D03               	skipz
  3679  0791  2F93               	goto	u4791
  3680  0792  2F94               	goto	u4790
  3681  0793                     u4791:
  3682  0793  2F9A               	goto	l10581
  3683  0794                     u4790:
  3684                           	line	51
  3685                           	
  3686  0794                     l10579:	
  3687                           ;LCD.c: 51: address = 0x80 + col;
  3688  0794  0825               	movf	(LCD_ShowString@col)^080h,w
  3689  0795  3E80               	addlw	080h
  3690  0796  00A6               	movwf	(??_LCD_ShowString+0)^080h+0
  3691  0797  0826               	movf	(??_LCD_ShowString+0)^080h+0,w
  3692  0798  00A7               	movwf	(LCD_ShowString@address)^080h
  3693                           	line	52
  3694                           ;LCD.c: 52: } else {
  3695  0799  2FA0               	goto	l10583
  3696                           	
  3697  079A                     l2111:	
  3698                           	line	53
  3699                           	
  3700  079A                     l10581:	
  3701                           ;LCD.c: 53: address = 0xC0 + col;
  3702  079A  0825               	movf	(LCD_ShowString@col)^080h,w
  3703  079B  3EC0               	addlw	0C0h
  3704  079C  00A6               	movwf	(??_LCD_ShowString+0)^080h+0
  3705  079D  0826               	movf	(??_LCD_ShowString+0)^080h+0,w
  3706  079E  00A7               	movwf	(LCD_ShowString@address)^080h
  3707  079F  2FA0               	goto	l10583
  3708                           	line	54
  3709                           	
  3710  07A0                     l2112:	
  3711                           	line	55
  3712                           	
  3713  07A0                     l10583:	
  3714                           ;LCD.c: 54: }
  3715                           ;LCD.c: 55: PORTD = address;
  3716  07A0  0827               	movf	(LCD_ShowString@address)^080h,w
  3717  07A1  1283               	bcf	status, 5	;RP0=0, select bank0
  3718  07A2  1303               	bcf	status, 6	;RP1=0, select bank0
  3719  07A3  0088               	movwf	(8)	;volatile
  3720                           	line	56
  3721                           	
  3722  07A4                     l10585:	
  3723                           ;LCD.c: 56: ENABLE();
  3724  07A4  120A  158A  2244   	fcall	_ENABLE
              120A  118A         
  3725                           	line	58
  3726                           ;LCD.c: 58: while (*str != '\0') {
  3727  07A9  2FCF               	goto	l10595
  3728                           	
  3729  07AA                     l2114:	
  3730                           	line	59
  3731                           	
  3732  07AA                     l10587:	
  3733                           ;LCD.c: 59: PORTD = *str++;
  3734  07AA  1683               	bsf	status, 5	;RP0=1, select bank1
  3735  07AB  1303               	bcf	status, 6	;RP1=0, select bank1
  3736  07AC  0823               	movf	(LCD_ShowString@str+1)^080h,w
  3737  07AD  1283               	bcf	status, 5	;RP0=0, select bank0
  3738  07AE  1303               	bcf	status, 6	;RP1=0, select bank0
  3739  07AF  00FF               	movwf	btemp+1
  3740  07B0  1683               	bsf	status, 5	;RP0=1, select bank1
  3741  07B1  1303               	bcf	status, 6	;RP1=0, select bank1
  3742  07B2  0822               	movf	(LCD_ShowString@str)^080h,w
  3743  07B3  0084               	movwf	fsr0
  3744  07B4  1283               	bcf	status, 5	;RP0=0, select bank0
  3745  07B5  1303               	bcf	status, 6	;RP1=0, select bank0
  3746  07B6  120A  158A  2000   	fcall	stringtab
              120A  118A         
  3747  07BB  0088               	movwf	(8)	;volatile
  3748                           	
  3749  07BC                     l10589:	
  3750  07BC  3001               	movlw	low(01h)
  3751  07BD  1683               	bsf	status, 5	;RP0=1, select bank1
  3752  07BE  1303               	bcf	status, 6	;RP1=0, select bank1
  3753  07BF  07A2               	addwf	(LCD_ShowString@str)^080h,f
  3754  07C0  1803               	skipnc
  3755  07C1  0AA3               	incf	(LCD_ShowString@str+1)^080h,f
  3756  07C2  3000               	movlw	high(01h)
  3757  07C3  07A3               	addwf	(LCD_ShowString@str+1)^080h,f
  3758                           	line	60
  3759                           	
  3760  07C4                     l10591:	
  3761                           ;LCD.c: 60: ENABLE1();
  3762  07C4  120A  158A  2252   	fcall	_ENABLE1
              120A  118A         
  3763                           	line	61
  3764                           	
  3765  07C9                     l10593:	
  3766                           ;LCD.c: 61: DELAY();
  3767  07C9  120A  158A  22CC   	fcall	_DELAY
              120A  118A         
  3768  07CE  2FCF               	goto	l10595
  3769                           	line	62
  3770                           	
  3771  07CF                     l2113:	
  3772                           	line	58
  3773                           	
  3774  07CF                     l10595:	
  3775  07CF  1683               	bsf	status, 5	;RP0=1, select bank1
  3776  07D0  1303               	bcf	status, 6	;RP1=0, select bank1
  3777  07D1  0823               	movf	(LCD_ShowString@str+1)^080h,w
  3778  07D2  1283               	bcf	status, 5	;RP0=0, select bank0
  3779  07D3  1303               	bcf	status, 6	;RP1=0, select bank0
  3780  07D4  00FF               	movwf	btemp+1
  3781  07D5  1683               	bsf	status, 5	;RP0=1, select bank1
  3782  07D6  1303               	bcf	status, 6	;RP1=0, select bank1
  3783  07D7  0822               	movf	(LCD_ShowString@str)^080h,w
  3784  07D8  0084               	movwf	fsr0
  3785  07D9  1283               	bcf	status, 5	;RP0=0, select bank0
  3786  07DA  1303               	bcf	status, 6	;RP1=0, select bank0
  3787  07DB  120A  158A  2000   	fcall	stringtab
              120A  118A         
  3788  07E0  3800               	iorlw	0
  3789  07E1  1D03               	skipz
  3790  07E2  2FE4               	goto	u4801
  3791  07E3  2FE5               	goto	u4800
  3792  07E4                     u4801:
  3793  07E4  2FAA               	goto	l10587
  3794  07E5                     u4800:
  3795  07E5  2FE6               	goto	l2116
  3796                           	
  3797  07E6                     l2115:	
  3798                           	line	63
  3799                           	
  3800  07E6                     l2116:	
  3801  07E6  0008               	return
  3802                           	opt stack 0
  3803                           GLOBAL	__end_of_LCD_ShowString
  3804  07E7                     	__end_of_LCD_ShowString:
  3805 ;; =============== function _LCD_ShowString ends ============
  3806                           
  3807                           	signat	_LCD_ShowString,12408
  3808                           	global	_LCD_Init
  3809                           psect	text902,local,class=CODE,delta=2
  3810                           global __ptext902
  3811  0C37                     __ptext902:
  3812                           
  3813 ;; *************** function _LCD_Init *****************
  3814 ;; Defined at:
  3815 ;;		line 25 in file "E:\MPLAB_IDE\pic16f877a_car\PIC16F877A_CAR\LCD.c"
  3816 ;; Parameters:    Size  Location     Type
  3817 ;;		None
  3818 ;; Auto vars:     Size  Location     Type
  3819 ;;		None
  3820 ;; Return value:  Size  Location     Type
  3821 ;;		None               void
  3822 ;; Registers used:
  3823 ;;		wreg, status,2, status,0, pclath, cstack
  3824 ;; Tracked objects:
  3825 ;;		On entry : 0/0
  3826 ;;		On exit  : 0/0
  3827 ;;		Unchanged: 0/0
  3828 ;; Data sizes:     COMMON   BANK0   BANK1   BANK3   BANK2
  3829 ;;      Params:         0       0       0       0       0
  3830 ;;      Locals:         0       0       0       0       0
  3831 ;;      Temps:          0       0       0       0       0
  3832 ;;      Totals:         0       0       0       0       0
  3833 ;;Total ram usage:        0 bytes
  3834 ;; Hardware stack levels used:    1
  3835 ;; Hardware stack levels required when called:    6
  3836 ;; This function calls:
  3837 ;;		_DELAY
  3838 ;;		_ENABLE
  3839 ;; This function is called by:
  3840 ;;		_JY62_ShowData
  3841 ;;		_main
  3842 ;; This function uses a non-reentrant model
  3843 ;;
  3844                           psect	text902
  3845                           	file	"E:\MPLAB_IDE\pic16f877a_car\PIC16F877A_CAR\LCD.c"
  3846                           	line	25
  3847                           	global	__size_of_LCD_Init
  3848  0040                     	__size_of_LCD_Init	equ	__end_of_LCD_Init-_LCD_Init
  3849                           	
  3850  0C37                     _LCD_Init:	
  3851                           	opt	stack 0
  3852                           ; Regs used in _LCD_Init: [wreg+status,2+status,0+pclath+cstack]
  3853                           	line	26
  3854                           	
  3855  0C37                     l10547:	
  3856                           ;LCD.c: 26: TRISD = 0x00;
  3857  0C37  1683               	bsf	status, 5	;RP0=1, select bank1
  3858  0C38  1303               	bcf	status, 6	;RP1=0, select bank1
  3859  0C39  0188               	clrf	(136)^080h	;volatile
  3860                           	line	27
  3861                           	
  3862  0C3A                     l10549:	
  3863                           ;LCD.c: 27: ADCON1=7;
  3864  0C3A  3007               	movlw	(07h)
  3865  0C3B  009F               	movwf	(159)^080h	;volatile
  3866                           	line	28
  3867                           	
  3868  0C3C                     l10551:	
  3869                           ;LCD.c: 28: TRISA=0;
  3870  0C3C  0185               	clrf	(133)^080h	;volatile
  3871                           	line	29
  3872                           	
  3873  0C3D                     l10553:	
  3874                           ;LCD.c: 29: PORTD=0;
  3875  0C3D  1283               	bcf	status, 5	;RP0=0, select bank0
  3876  0C3E  1303               	bcf	status, 6	;RP1=0, select bank0
  3877  0C3F  0188               	clrf	(8)	;volatile
  3878                           	line	30
  3879                           	
  3880  0C40                     l10555:	
  3881                           ;LCD.c: 30: RA3=1;
  3882  0C40  1585               	bsf	(43/8),(43)&7
  3883                           	line	31
  3884                           	
  3885  0C41                     l10557:	
  3886                           ;LCD.c: 31: DELAY();
  3887  0C41  120A  158A  22CC   	fcall	_DELAY
              120A  158A         
  3888                           	line	33
  3889                           	
  3890  0C46                     l10559:	
  3891                           ;LCD.c: 33: TRISD=0; TRISA=0;
  3892  0C46  1683               	bsf	status, 5	;RP0=1, select bank1
  3893  0C47  1303               	bcf	status, 6	;RP1=0, select bank1
  3894  0C48  0188               	clrf	(136)^080h	;volatile
  3895                           	
  3896  0C49                     l10561:	
  3897  0C49  0185               	clrf	(133)^080h	;volatile
  3898                           	line	34
  3899                           	
  3900  0C4A                     l10563:	
  3901                           ;LCD.c: 34: PORTD=0;
  3902  0C4A  1283               	bcf	status, 5	;RP0=0, select bank0
  3903  0C4B  1303               	bcf	status, 6	;RP1=0, select bank0
  3904  0C4C  0188               	clrf	(8)	;volatile
  3905                           	line	35
  3906                           	
  3907  0C4D                     l10565:	
  3908                           ;LCD.c: 35: DELAY();
  3909  0C4D  120A  158A  22CC   	fcall	_DELAY
              120A  158A         
  3910                           	line	36
  3911                           ;LCD.c: 36: PORTD=1; ENABLE();
  3912  0C52  3001               	movlw	(01h)
  3913  0C53  1283               	bcf	status, 5	;RP0=0, select bank0
  3914  0C54  1303               	bcf	status, 6	;RP1=0, select bank0
  3915  0C55  0088               	movwf	(8)	;volatile
  3916                           	
  3917  0C56                     l10567:	
  3918  0C56  120A  158A  2244   	fcall	_ENABLE
              120A  158A         
  3919                           	line	37
  3920                           	
  3921  0C5B                     l10569:	
  3922                           ;LCD.c: 37: PORTD=0x38; ENABLE();
  3923  0C5B  3038               	movlw	(038h)
  3924  0C5C  1283               	bcf	status, 5	;RP0=0, select bank0
  3925  0C5D  1303               	bcf	status, 6	;RP1=0, select bank0
  3926  0C5E  0088               	movwf	(8)	;volatile
  3927  0C5F  120A  158A  2244   	fcall	_ENABLE
              120A  158A         
  3928                           	line	38
  3929                           	
  3930  0C64                     l10571:	
  3931                           ;LCD.c: 38: PORTD=0x0c; ENABLE();
  3932  0C64  300C               	movlw	(0Ch)
  3933  0C65  1283               	bcf	status, 5	;RP0=0, select bank0
  3934  0C66  1303               	bcf	status, 6	;RP1=0, select bank0
  3935  0C67  0088               	movwf	(8)	;volatile
  3936                           	
  3937  0C68                     l10573:	
  3938  0C68  120A  158A  2244   	fcall	_ENABLE
              120A  158A         
  3939                           	line	39
  3940                           ;LCD.c: 39: PORTD=0x06; ENABLE();
  3941  0C6D  3006               	movlw	(06h)
  3942  0C6E  1283               	bcf	status, 5	;RP0=0, select bank0
  3943  0C6F  1303               	bcf	status, 6	;RP1=0, select bank0
  3944  0C70  0088               	movwf	(8)	;volatile
  3945                           	
  3946  0C71                     l10575:	
  3947  0C71  120A  158A  2244   	fcall	_ENABLE
              120A  158A         
  3948                           	line	40
  3949                           	
  3950  0C76                     l2105:	
  3951  0C76  0008               	return
  3952                           	opt stack 0
  3953                           GLOBAL	__end_of_LCD_Init
  3954  0C77                     	__end_of_LCD_Init:
  3955 ;; =============== function _LCD_Init ends ============
  3956                           
  3957                           	signat	_LCD_Init,88
  3958                           	global	_PWM2_SetDutyCycle
  3959                           psect	text903,local,class=CODE,delta=2
  3960                           global __ptext903
  3961  0BC8                     __ptext903:
  3962                           
  3963 ;; *************** function _PWM2_SetDutyCycle *****************
  3964 ;; Defined at:
  3965 ;;		line 35 in file "E:\MPLAB_IDE\pic16f877a_car\PIC16F877A_CAR\PWM.c"
  3966 ;; Parameters:    Size  Location     Type
  3967 ;;  dutyCycle       1    wreg     char 
  3968 ;; Auto vars:     Size  Location     Type
  3969 ;;  dutyCycle       1   16[BANK1 ] char 
  3970 ;; Return value:  Size  Location     Type
  3971 ;;		None               void
  3972 ;; Registers used:
  3973 ;;		wreg, status,2, status,0, pclath, cstack
  3974 ;; Tracked objects:
  3975 ;;		On entry : 0/0
  3976 ;;		On exit  : 0/0
  3977 ;;		Unchanged: 0/0
  3978 ;; Data sizes:     COMMON   BANK0   BANK1   BANK3   BANK2
  3979 ;;      Params:         0       0       0       0       0
  3980 ;;      Locals:         0       0       1       0       0
  3981 ;;      Temps:          0       0       1       0       0
  3982 ;;      Totals:         0       0       2       0       0
  3983 ;;Total ram usage:        2 bytes
  3984 ;; Hardware stack levels used:    1
  3985 ;; Hardware stack levels required when called:    5
  3986 ;; This function calls:
  3987 ;;		___wmul
  3988 ;;		___awdiv
  3989 ;; This function is called by:
  3990 ;;		_Motor_SetLeftSpeed
  3991 ;; This function uses a non-reentrant model
  3992 ;;
  3993                           psect	text903
  3994                           	file	"E:\MPLAB_IDE\pic16f877a_car\PIC16F877A_CAR\PWM.c"
  3995                           	line	35
  3996                           	global	__size_of_PWM2_SetDutyCycle
  3997  0035                     	__size_of_PWM2_SetDutyCycle	equ	__end_of_PWM2_SetDutyCycle-_PWM2_SetDutyCycle
  3998                           	
  3999  0BC8                     _PWM2_SetDutyCycle:	
  4000 ;; hardware stack exceeded
  4001                           	opt	stack 0
  4002                           ; Regs used in _PWM2_SetDutyCycle: [wreg+status,2+status,0+pclath+cstack]
  4003                           ;PWM2_SetDutyCycle@dutyCycle stored from wreg
  4004                           	line	37
  4005  0BC8  1683               	bsf	status, 5	;RP0=1, select bank1
  4006  0BC9  1303               	bcf	status, 6	;RP1=0, select bank1
  4007  0BCA  00B0               	movwf	(PWM2_SetDutyCycle@dutyCycle)^080h
  4008                           	
  4009  0BCB                     l10541:	
  4010                           ;PWM.c: 37: if (dutyCycle > 100) {
  4011  0BCB  0830               	movf	(PWM2_SetDutyCycle@dutyCycle)^080h,w
  4012  0BCC  3A80               	xorlw	80h
  4013  0BCD  3E1B               	addlw	-((065h)^80h)
  4014  0BCE  1C03               	skipc
  4015  0BCF  2BD1               	goto	u4781
  4016  0BD0  2BD2               	goto	u4780
  4017  0BD1                     u4781:
  4018  0BD1  2BD7               	goto	l10545
  4019  0BD2                     u4780:
  4020                           	line	38
  4021                           	
  4022  0BD2                     l10543:	
  4023                           ;PWM.c: 38: dutyCycle = 100;
  4024  0BD2  3064               	movlw	(064h)
  4025  0BD3  00AF               	movwf	(??_PWM2_SetDutyCycle+0)^080h+0
  4026  0BD4  082F               	movf	(??_PWM2_SetDutyCycle+0)^080h+0,w
  4027  0BD5  00B0               	movwf	(PWM2_SetDutyCycle@dutyCycle)^080h
  4028  0BD6  2BD7               	goto	l10545
  4029                           	line	39
  4030                           	
  4031  0BD7                     l4203:	
  4032                           	line	42
  4033                           	
  4034  0BD7                     l10545:	
  4035                           ;PWM.c: 39: }
  4036                           ;PWM.c: 42: CCPR2L = (dutyCycle * 255) / 100;
  4037  0BD7  3064               	movlw	low(064h)
  4038  0BD8  00A6               	movwf	(?___awdiv)^080h
  4039  0BD9  3000               	movlw	high(064h)
  4040  0BDA  00A7               	movwf	((?___awdiv)^080h)+1
  4041  0BDB  0830               	movf	(PWM2_SetDutyCycle@dutyCycle)^080h,w
  4042  0BDC  00A0               	movwf	(?___wmul)^080h
  4043  0BDD  01A1               	clrf	(?___wmul+1)^080h
  4044  0BDE  1BA0               	btfsc	(?___wmul)^080h,7
  4045  0BDF  03A1               	decf	(?___wmul+1)^080h,f
  4046  0BE0  30FF               	movlw	low(0FFh)
  4047  0BE1  00A2               	movwf	0+(?___wmul)^080h+02h
  4048  0BE2  3000               	movlw	high(0FFh)
  4049  0BE3  00A3               	movwf	(0+(?___wmul)^080h+02h)+1
  4050  0BE4  120A  158A  2338   	fcall	___wmul
              120A  158A         
  4051  0BE9  1683               	bsf	status, 5	;RP0=1, select bank1
  4052  0BEA  1303               	bcf	status, 6	;RP1=0, select bank1
  4053  0BEB  0821               	movf	(1+(?___wmul))^080h,w
  4054  0BEC  01A9               	clrf	1+(?___awdiv)^080h+02h
  4055  0BED  07A9               	addwf	1+(?___awdiv)^080h+02h
  4056  0BEE  0820               	movf	(0+(?___wmul))^080h,w
  4057  0BEF  01A8               	clrf	0+(?___awdiv)^080h+02h
  4058  0BF0  07A8               	addwf	0+(?___awdiv)^080h+02h
  4059                           
  4060  0BF1  120A  158A  268E   	fcall	___awdiv
              120A  158A         
  4061  0BF6  1683               	bsf	status, 5	;RP0=1, select bank1
  4062  0BF7  1303               	bcf	status, 6	;RP1=0, select bank1
  4063  0BF8  0826               	movf	(0+(?___awdiv))^080h,w
  4064  0BF9  1283               	bcf	status, 5	;RP0=0, select bank0
  4065  0BFA  1303               	bcf	status, 6	;RP1=0, select bank0
  4066  0BFB  009B               	movwf	(27)	;volatile
  4067                           	line	43
  4068                           	
  4069  0BFC                     l4204:	
  4070  0BFC  0008               	return
  4071                           	opt stack 0
  4072                           GLOBAL	__end_of_PWM2_SetDutyCycle
  4073  0BFD                     	__end_of_PWM2_SetDutyCycle:
  4074 ;; =============== function _PWM2_SetDutyCycle ends ============
  4075                           
  4076                           	signat	_PWM2_SetDutyCycle,4216
  4077                           	global	_PWM1_SetDutyCycle
  4078                           psect	text904,local,class=CODE,delta=2
  4079                           global __ptext904
  4080  0B93                     __ptext904:
  4081                           
  4082 ;; *************** function _PWM1_SetDutyCycle *****************
  4083 ;; Defined at:
  4084 ;;		line 24 in file "E:\MPLAB_IDE\pic16f877a_car\PIC16F877A_CAR\PWM.c"
  4085 ;; Parameters:    Size  Location     Type
  4086 ;;  dutyCycle       1    wreg     char 
  4087 ;; Auto vars:     Size  Location     Type
  4088 ;;  dutyCycle       1   16[BANK1 ] char 
  4089 ;; Return value:  Size  Location     Type
  4090 ;;		None               void
  4091 ;; Registers used:
  4092 ;;		wreg, status,2, status,0, pclath, cstack
  4093 ;; Tracked objects:
  4094 ;;		On entry : 0/0
  4095 ;;		On exit  : 0/0
  4096 ;;		Unchanged: 0/0
  4097 ;; Data sizes:     COMMON   BANK0   BANK1   BANK3   BANK2
  4098 ;;      Params:         0       0       0       0       0
  4099 ;;      Locals:         0       0       1       0       0
  4100 ;;      Temps:          0       0       1       0       0
  4101 ;;      Totals:         0       0       2       0       0
  4102 ;;Total ram usage:        2 bytes
  4103 ;; Hardware stack levels used:    1
  4104 ;; Hardware stack levels required when called:    5
  4105 ;; This function calls:
  4106 ;;		___wmul
  4107 ;;		___awdiv
  4108 ;; This function is called by:
  4109 ;;		_Motor_SetRightSpeed
  4110 ;; This function uses a non-reentrant model
  4111 ;;
  4112                           psect	text904
  4113                           	file	"E:\MPLAB_IDE\pic16f877a_car\PIC16F877A_CAR\PWM.c"
  4114                           	line	24
  4115                           	global	__size_of_PWM1_SetDutyCycle
  4116  0035                     	__size_of_PWM1_SetDutyCycle	equ	__end_of_PWM1_SetDutyCycle-_PWM1_SetDutyCycle
  4117                           	
  4118  0B93                     _PWM1_SetDutyCycle:	
  4119 ;; hardware stack exceeded
  4120                           	opt	stack 0
  4121                           ; Regs used in _PWM1_SetDutyCycle: [wreg+status,2+status,0+pclath+cstack]
  4122                           ;PWM1_SetDutyCycle@dutyCycle stored from wreg
  4123                           	line	26
  4124  0B93  1683               	bsf	status, 5	;RP0=1, select bank1
  4125  0B94  1303               	bcf	status, 6	;RP1=0, select bank1
  4126  0B95  00B0               	movwf	(PWM1_SetDutyCycle@dutyCycle)^080h
  4127                           	
  4128  0B96                     l10535:	
  4129                           ;PWM.c: 26: if (dutyCycle > 100) {
  4130  0B96  0830               	movf	(PWM1_SetDutyCycle@dutyCycle)^080h,w
  4131  0B97  3A80               	xorlw	80h
  4132  0B98  3E1B               	addlw	-((065h)^80h)
  4133  0B99  1C03               	skipc
  4134  0B9A  2B9C               	goto	u4771
  4135  0B9B  2B9D               	goto	u4770
  4136  0B9C                     u4771:
  4137  0B9C  2BA2               	goto	l10539
  4138  0B9D                     u4770:
  4139                           	line	27
  4140                           	
  4141  0B9D                     l10537:	
  4142                           ;PWM.c: 27: dutyCycle = 100;
  4143  0B9D  3064               	movlw	(064h)
  4144  0B9E  00AF               	movwf	(??_PWM1_SetDutyCycle+0)^080h+0
  4145  0B9F  082F               	movf	(??_PWM1_SetDutyCycle+0)^080h+0,w
  4146  0BA0  00B0               	movwf	(PWM1_SetDutyCycle@dutyCycle)^080h
  4147  0BA1  2BA2               	goto	l10539
  4148                           	line	28
  4149                           	
  4150  0BA2                     l4199:	
  4151                           	line	31
  4152                           	
  4153  0BA2                     l10539:	
  4154                           ;PWM.c: 28: }
  4155                           ;PWM.c: 31: CCPR1L = (dutyCycle * 255) / 100;
  4156  0BA2  3064               	movlw	low(064h)
  4157  0BA3  00A6               	movwf	(?___awdiv)^080h
  4158  0BA4  3000               	movlw	high(064h)
  4159  0BA5  00A7               	movwf	((?___awdiv)^080h)+1
  4160  0BA6  0830               	movf	(PWM1_SetDutyCycle@dutyCycle)^080h,w
  4161  0BA7  00A0               	movwf	(?___wmul)^080h
  4162  0BA8  01A1               	clrf	(?___wmul+1)^080h
  4163  0BA9  1BA0               	btfsc	(?___wmul)^080h,7
  4164  0BAA  03A1               	decf	(?___wmul+1)^080h,f
  4165  0BAB  30FF               	movlw	low(0FFh)
  4166  0BAC  00A2               	movwf	0+(?___wmul)^080h+02h
  4167  0BAD  3000               	movlw	high(0FFh)
  4168  0BAE  00A3               	movwf	(0+(?___wmul)^080h+02h)+1
  4169  0BAF  120A  158A  2338   	fcall	___wmul
              120A  158A         
  4170  0BB4  1683               	bsf	status, 5	;RP0=1, select bank1
  4171  0BB5  1303               	bcf	status, 6	;RP1=0, select bank1
  4172  0BB6  0821               	movf	(1+(?___wmul))^080h,w
  4173  0BB7  01A9               	clrf	1+(?___awdiv)^080h+02h
  4174  0BB8  07A9               	addwf	1+(?___awdiv)^080h+02h
  4175  0BB9  0820               	movf	(0+(?___wmul))^080h,w
  4176  0BBA  01A8               	clrf	0+(?___awdiv)^080h+02h
  4177  0BBB  07A8               	addwf	0+(?___awdiv)^080h+02h
  4178                           
  4179  0BBC  120A  158A  268E   	fcall	___awdiv
              120A  158A         
  4180  0BC1  1683               	bsf	status, 5	;RP0=1, select bank1
  4181  0BC2  1303               	bcf	status, 6	;RP1=0, select bank1
  4182  0BC3  0826               	movf	(0+(?___awdiv))^080h,w
  4183  0BC4  1283               	bcf	status, 5	;RP0=0, select bank0
  4184  0BC5  1303               	bcf	status, 6	;RP1=0, select bank0
  4185  0BC6  0095               	movwf	(21)	;volatile
  4186                           	line	32
  4187                           	
  4188  0BC7                     l4200:	
  4189  0BC7  0008               	return
  4190                           	opt stack 0
  4191                           GLOBAL	__end_of_PWM1_SetDutyCycle
  4192  0BC8                     	__end_of_PWM1_SetDutyCycle:
  4193 ;; =============== function _PWM1_SetDutyCycle ends ============
  4194                           
  4195                           	signat	_PWM1_SetDutyCycle,4216
  4196                           	global	_point_status
  4197                           psect	text905,local,class=CODE,delta=2
  4198                           global __ptext905
  4199  0E35                     __ptext905:
  4200                           
  4201 ;; *************** function _point_status *****************
  4202 ;; Defined at:
  4203 ;;		line 71 in file "E:\MPLAB_IDE\pic16f877a_car\PIC16F877A_CAR\track.c"
  4204 ;; Parameters:    Size  Location     Type
  4205 ;;		None
  4206 ;; Auto vars:     Size  Location     Type
  4207 ;;		None
  4208 ;; Return value:  Size  Location     Type
  4209 ;;		None               void
  4210 ;; Registers used:
  4211 ;;		wreg, status,2, status,0, pclath, cstack
  4212 ;; Tracked objects:
  4213 ;;		On entry : 0/0
  4214 ;;		On exit  : 0/0
  4215 ;;		Unchanged: 0/0
  4216 ;; Data sizes:     COMMON   BANK0   BANK1   BANK3   BANK2
  4217 ;;      Params:         0       0       0       0       0
  4218 ;;      Locals:         0       0       0       0       0
  4219 ;;      Temps:          0       0       2       0       0
  4220 ;;      Totals:         0       0       2       0       0
  4221 ;;Total ram usage:        2 bytes
  4222 ;; Hardware stack levels used:    1
  4223 ;; Hardware stack levels required when called:    5
  4224 ;; This function calls:
  4225 ;;		_Delay_ms
  4226 ;; This function is called by:
  4227 ;;		_main
  4228 ;; This function uses a non-reentrant model
  4229 ;;
  4230                           psect	text905
  4231                           	file	"E:\MPLAB_IDE\pic16f877a_car\PIC16F877A_CAR\track.c"
  4232                           	line	71
  4233                           	global	__size_of_point_status
  4234  0059                     	__size_of_point_status	equ	__end_of_point_status-_point_status
  4235                           	
  4236  0E35                     _point_status:	
  4237                           	opt	stack 2
  4238                           ; Regs used in _point_status: [wreg+status,2+status,0+pclath+cstack]
  4239                           	line	72
  4240                           	
  4241  0E35                     l10517:	
  4242                           ;track.c: 72: if(PORTB==0XFF) flag=1;
  4243  0E35  1283               	bcf	status, 5	;RP0=0, select bank0
  4244  0E36  1303               	bcf	status, 6	;RP1=0, select bank0
  4245  0E37  0806               	movf	(6),w	;volatile
  4246  0E38  3AFF               	xorlw	0FFh
  4247  0E39  1D03               	skipz
  4248  0E3A  2E3C               	goto	u4741
  4249  0E3B  2E3D               	goto	u4740
  4250  0E3C                     u4741:
  4251  0E3C  2E43               	goto	l7076
  4252  0E3D                     u4740:
  4253                           	
  4254  0E3D                     l10519:	
  4255  0E3D  1683               	bsf	status, 5	;RP0=1, select bank1
  4256  0E3E  1303               	bcf	status, 6	;RP1=0, select bank1
  4257  0E3F  01D9               	clrf	(_flag)^080h
  4258  0E40  1403               	bsf	status,0
  4259  0E41  0DD9               	rlf	(_flag)^080h,f
  4260  0E42  2E47               	goto	l10521
  4261                           	line	73
  4262                           	
  4263  0E43                     l7076:	
  4264                           ;track.c: 73: else flag=0;
  4265  0E43  1683               	bsf	status, 5	;RP0=1, select bank1
  4266  0E44  1303               	bcf	status, 6	;RP1=0, select bank1
  4267  0E45  01D9               	clrf	(_flag)^080h
  4268  0E46  2E47               	goto	l10521
  4269                           	
  4270  0E47                     l7077:	
  4271                           	line	75
  4272                           	
  4273  0E47                     l10521:	
  4274                           ;track.c: 75: last_flag=flag;
  4275  0E47  0859               	movf	(_flag)^080h,w
  4276  0E48  00A6               	movwf	(??_point_status+0)^080h+0
  4277  0E49  01A7               	clrf	(??_point_status+0)^080h+0+1
  4278  0E4A  0826               	movf	0+(??_point_status+0)^080h+0,w
  4279  0E4B  00D5               	movwf	(_last_flag)^080h
  4280  0E4C  0827               	movf	1+(??_point_status+0)^080h+0,w
  4281  0E4D  00D6               	movwf	(_last_flag+1)^080h
  4282                           	line	77
  4283                           ;track.c: 77: if(PORTB!=0XFF&&last_flag!=flag)
  4284  0E4E  1283               	bcf	status, 5	;RP0=0, select bank0
  4285  0E4F  1303               	bcf	status, 6	;RP1=0, select bank0
  4286  0E50  0806               	movf	(6),w	;volatile
  4287  0E51  3AFF               	xorlw	0FFh
  4288  0E52  1903               	skipnz
  4289  0E53  2E55               	goto	u4751
  4290  0E54  2E56               	goto	u4750
  4291  0E55                     u4751:
  4292  0E55  2E8D               	goto	l7079
  4293  0E56                     u4750:
  4294                           	
  4295  0E56                     l10523:	
  4296  0E56  1683               	bsf	status, 5	;RP0=1, select bank1
  4297  0E57  1303               	bcf	status, 6	;RP1=0, select bank1
  4298  0E58  0859               	movf	(_flag)^080h,w
  4299  0E59  00A6               	movwf	(??_point_status+0)^080h+0
  4300  0E5A  01A7               	clrf	(??_point_status+0)^080h+0+1
  4301  0E5B  0856               	movf	(_last_flag+1)^080h,w
  4302  0E5C  0627               	xorwf	1+(??_point_status+0)^080h+0,w
  4303  0E5D  1D03               	skipz
  4304  0E5E  2E61               	goto	u4765
  4305  0E5F  0855               	movf	(_last_flag)^080h,w
  4306  0E60  0626               	xorwf	0+(??_point_status+0)^080h+0,w
  4307  0E61                     u4765:
  4308                           
  4309  0E61  1903               	skipnz
  4310  0E62  2E64               	goto	u4761
  4311  0E63  2E65               	goto	u4760
  4312  0E64                     u4761:
  4313  0E64  2E8D               	goto	l7079
  4314  0E65                     u4760:
  4315                           	line	79
  4316                           	
  4317  0E65                     l10525:	
  4318                           ;track.c: 78: {
  4319                           ;track.c: 79: RE0=!RE0;
  4320  0E65  3001               	movlw	1<<((72)&7)
  4321  0E66  1283               	bcf	status, 5	;RP0=0, select bank0
  4322  0E67  1303               	bcf	status, 6	;RP1=0, select bank0
  4323  0E68  0689               	xorwf	((72)/8),f
  4324                           	line	80
  4325                           	
  4326  0E69                     l10527:	
  4327                           ;track.c: 80: Delay_ms(100);
  4328  0E69  3064               	movlw	low(064h)
  4329  0E6A  1683               	bsf	status, 5	;RP0=1, select bank1
  4330  0E6B  1303               	bcf	status, 6	;RP1=0, select bank1
  4331  0E6C  00A0               	movwf	(?_Delay_ms)^080h
  4332  0E6D  3000               	movlw	high(064h)
  4333  0E6E  00A1               	movwf	((?_Delay_ms)^080h)+1
  4334  0E6F  120A  158A  2364   	fcall	_Delay_ms
              120A  158A         
  4335                           	line	81
  4336                           	
  4337  0E74                     l10529:	
  4338                           ;track.c: 81: RE0=!RE0;
  4339  0E74  3001               	movlw	1<<((72)&7)
  4340  0E75  1283               	bcf	status, 5	;RP0=0, select bank0
  4341  0E76  1303               	bcf	status, 6	;RP1=0, select bank0
  4342  0E77  0689               	xorwf	((72)/8),f
  4343                           	line	82
  4344                           ;track.c: 82: Delay_ms(100);
  4345  0E78  3064               	movlw	low(064h)
  4346  0E79  1683               	bsf	status, 5	;RP0=1, select bank1
  4347  0E7A  1303               	bcf	status, 6	;RP1=0, select bank1
  4348  0E7B  00A0               	movwf	(?_Delay_ms)^080h
  4349  0E7C  3000               	movlw	high(064h)
  4350  0E7D  00A1               	movwf	((?_Delay_ms)^080h)+1
  4351  0E7E  120A  158A  2364   	fcall	_Delay_ms
              120A  158A         
  4352                           	line	83
  4353                           	
  4354  0E83                     l10531:	
  4355                           ;track.c: 83: RE0=0;
  4356  0E83  1283               	bcf	status, 5	;RP0=0, select bank0
  4357  0E84  1303               	bcf	status, 6	;RP1=0, select bank0
  4358  0E85  1009               	bcf	(72/8),(72)&7
  4359                           	line	85
  4360                           	
  4361  0E86                     l10533:	
  4362                           ;track.c: 85: runflag++;
  4363  0E86  3001               	movlw	(01h)
  4364  0E87  1683               	bsf	status, 5	;RP0=1, select bank1
  4365  0E88  1303               	bcf	status, 6	;RP1=0, select bank1
  4366  0E89  00A6               	movwf	(??_point_status+0)^080h+0
  4367  0E8A  0826               	movf	(??_point_status+0)^080h+0,w
  4368  0E8B  07DA               	addwf	(_runflag)^080h,f
  4369  0E8C  2E8D               	goto	l7079
  4370                           	line	86
  4371                           	
  4372  0E8D                     l7078:	
  4373                           	line	87
  4374                           	
  4375  0E8D                     l7079:	
  4376  0E8D  0008               	return
  4377                           	opt stack 0
  4378                           GLOBAL	__end_of_point_status
  4379  0E8E                     	__end_of_point_status:
  4380 ;; =============== function _point_status ends ============
  4381                           
  4382                           	signat	_point_status,88
  4383                           	global	_Motor_Init
  4384                           psect	text906,local,class=CODE,delta=2
  4385                           global __ptext906
  4386  0A60                     __ptext906:
  4387                           
  4388 ;; *************** function _Motor_Init *****************
  4389 ;; Defined at:
  4390 ;;		line 21 in file "E:\MPLAB_IDE\pic16f877a_car\PIC16F877A_CAR\motor.c"
  4391 ;; Parameters:    Size  Location     Type
  4392 ;;		None
  4393 ;; Auto vars:     Size  Location     Type
  4394 ;;		None
  4395 ;; Return value:  Size  Location     Type
  4396 ;;		None               void
  4397 ;; Registers used:
  4398 ;;		wreg, status,2, status,0, pclath, cstack
  4399 ;; Tracked objects:
  4400 ;;		On entry : 0/0
  4401 ;;		On exit  : 0/0
  4402 ;;		Unchanged: 0/0
  4403 ;; Data sizes:     COMMON   BANK0   BANK1   BANK3   BANK2
  4404 ;;      Params:         0       0       0       0       0
  4405 ;;      Locals:         0       0       0       0       0
  4406 ;;      Temps:          0       0       0       0       0
  4407 ;;      Totals:         0       0       0       0       0
  4408 ;;Total ram usage:        0 bytes
  4409 ;; Hardware stack levels used:    1
  4410 ;; Hardware stack levels required when called:    5
  4411 ;; This function calls:
  4412 ;;		_PWM_Init
  4413 ;; This function is called by:
  4414 ;;		_main
  4415 ;; This function uses a non-reentrant model
  4416 ;;
  4417                           psect	text906
  4418                           	file	"E:\MPLAB_IDE\pic16f877a_car\PIC16F877A_CAR\motor.c"
  4419                           	line	21
  4420                           	global	__size_of_Motor_Init
  4421  0010                     	__size_of_Motor_Init	equ	__end_of_Motor_Init-_Motor_Init
  4422                           	
  4423  0A60                     _Motor_Init:	
  4424                           	opt	stack 2
  4425                           ; Regs used in _Motor_Init: [wreg+status,2+status,0+pclath+cstack]
  4426                           	line	23
  4427                           	
  4428  0A60                     l10505:	
  4429                           ;motor.c: 23: PWM_Init();
  4430  0A60  120A  118A  27E7   	fcall	_PWM_Init
              120A  158A         
  4431                           	line	26
  4432                           	
  4433  0A65                     l10507:	
  4434                           ;motor.c: 26: TRISC = 0XC0;
  4435  0A65  30C0               	movlw	(0C0h)
  4436  0A66  1683               	bsf	status, 5	;RP0=1, select bank1
  4437  0A67  1303               	bcf	status, 6	;RP1=0, select bank1
  4438  0A68  0087               	movwf	(135)^080h	;volatile
  4439                           	line	30
  4440                           	
  4441  0A69                     l10509:	
  4442                           ;motor.c: 30: RC0 = 0;
  4443  0A69  1283               	bcf	status, 5	;RP0=0, select bank0
  4444  0A6A  1303               	bcf	status, 6	;RP1=0, select bank0
  4445  0A6B  1007               	bcf	(56/8),(56)&7
  4446                           	line	31
  4447                           	
  4448  0A6C                     l10511:	
  4449                           ;motor.c: 31: RC3 = 0;
  4450  0A6C  1187               	bcf	(59/8),(59)&7
  4451                           	line	32
  4452                           	
  4453  0A6D                     l10513:	
  4454                           ;motor.c: 32: RC4 = 0;
  4455  0A6D  1207               	bcf	(60/8),(60)&7
  4456                           	line	33
  4457                           	
  4458  0A6E                     l10515:	
  4459                           ;motor.c: 33: RC5 = 0;
  4460  0A6E  1287               	bcf	(61/8),(61)&7
  4461                           	line	35
  4462                           	
  4463  0A6F                     l5585:	
  4464  0A6F  0008               	return
  4465                           	opt stack 0
  4466                           GLOBAL	__end_of_Motor_Init
  4467  0A70                     	__end_of_Motor_Init:
  4468 ;; =============== function _Motor_Init ends ============
  4469                           
  4470                           	signat	_Motor_Init,88
  4471                           	global	_ENABLE1
  4472                           psect	text907,local,class=CODE,delta=2
  4473                           global __ptext907
  4474  0A52                     __ptext907:
  4475                           
  4476 ;; *************** function _ENABLE1 *****************
  4477 ;; Defined at:
  4478 ;;		line 17 in file "E:\MPLAB_IDE\pic16f877a_car\PIC16F877A_CAR\LCD.c"
  4479 ;; Parameters:    Size  Location     Type
  4480 ;;		None
  4481 ;; Auto vars:     Size  Location     Type
  4482 ;;		None
  4483 ;; Return value:  Size  Location     Type
  4484 ;;		None               void
  4485 ;; Registers used:
  4486 ;;		wreg, status,2, status,0, pclath, cstack
  4487 ;; Tracked objects:
  4488 ;;		On entry : 0/0
  4489 ;;		On exit  : 0/0
  4490 ;;		Unchanged: 0/0
  4491 ;; Data sizes:     COMMON   BANK0   BANK1   BANK3   BANK2
  4492 ;;      Params:         0       0       0       0       0
  4493 ;;      Locals:         0       0       0       0       0
  4494 ;;      Temps:          0       0       0       0       0
  4495 ;;      Totals:         0       0       0       0       0
  4496 ;;Total ram usage:        0 bytes
  4497 ;; Hardware stack levels used:    1
  4498 ;; Hardware stack levels required when called:    5
  4499 ;; This function calls:
  4500 ;;		_DELAY
  4501 ;; This function is called by:
  4502 ;;		_LCD_ShowString
  4503 ;; This function uses a non-reentrant model
  4504 ;;
  4505                           psect	text907
  4506                           	file	"E:\MPLAB_IDE\pic16f877a_car\PIC16F877A_CAR\LCD.c"
  4507                           	line	17
  4508                           	global	__size_of_ENABLE1
  4509  000E                     	__size_of_ENABLE1	equ	__end_of_ENABLE1-_ENABLE1
  4510                           	
  4511  0A52                     _ENABLE1:	
  4512                           	opt	stack 0
  4513                           ; Regs used in _ENABLE1: [wreg+status,2+status,0+pclath+cstack]
  4514                           	line	18
  4515                           	
  4516  0A52                     l10499:	
  4517                           ;LCD.c: 18: RA5 = 1;
  4518  0A52  1283               	bcf	status, 5	;RP0=0, select bank0
  4519  0A53  1303               	bcf	status, 6	;RP1=0, select bank0
  4520  0A54  1685               	bsf	(45/8),(45)&7
  4521                           	line	19
  4522                           ;LCD.c: 19: RA4 = 0;
  4523  0A55  1205               	bcf	(44/8),(44)&7
  4524                           	line	20
  4525                           ;LCD.c: 20: RA3 = 0;
  4526  0A56  1185               	bcf	(43/8),(43)&7
  4527                           	line	21
  4528                           	
  4529  0A57                     l10501:	
  4530                           ;LCD.c: 21: DELAY();
  4531  0A57  120A  158A  22CC   	fcall	_DELAY
              120A  158A         
  4532                           	line	22
  4533                           	
  4534  0A5C                     l10503:	
  4535                           ;LCD.c: 22: RA3 = 1;
  4536  0A5C  1283               	bcf	status, 5	;RP0=0, select bank0
  4537  0A5D  1303               	bcf	status, 6	;RP1=0, select bank0
  4538  0A5E  1585               	bsf	(43/8),(43)&7
  4539                           	line	23
  4540                           	
  4541  0A5F                     l2102:	
  4542  0A5F  0008               	return
  4543                           	opt stack 0
  4544                           GLOBAL	__end_of_ENABLE1
  4545  0A60                     	__end_of_ENABLE1:
  4546 ;; =============== function _ENABLE1 ends ============
  4547                           
  4548                           	signat	_ENABLE1,88
  4549                           	global	_ENABLE
  4550                           psect	text908,local,class=CODE,delta=2
  4551                           global __ptext908
  4552  0A44                     __ptext908:
  4553                           
  4554 ;; *************** function _ENABLE *****************
  4555 ;; Defined at:
  4556 ;;		line 9 in file "E:\MPLAB_IDE\pic16f877a_car\PIC16F877A_CAR\LCD.c"
  4557 ;; Parameters:    Size  Location     Type
  4558 ;;		None
  4559 ;; Auto vars:     Size  Location     Type
  4560 ;;		None
  4561 ;; Return value:  Size  Location     Type
  4562 ;;		None               void
  4563 ;; Registers used:
  4564 ;;		wreg, status,2, status,0, pclath, cstack
  4565 ;; Tracked objects:
  4566 ;;		On entry : 0/0
  4567 ;;		On exit  : 0/0
  4568 ;;		Unchanged: 0/0
  4569 ;; Data sizes:     COMMON   BANK0   BANK1   BANK3   BANK2
  4570 ;;      Params:         0       0       0       0       0
  4571 ;;      Locals:         0       0       0       0       0
  4572 ;;      Temps:          0       0       0       0       0
  4573 ;;      Totals:         0       0       0       0       0
  4574 ;;Total ram usage:        0 bytes
  4575 ;; Hardware stack levels used:    1
  4576 ;; Hardware stack levels required when called:    5
  4577 ;; This function calls:
  4578 ;;		_DELAY
  4579 ;; This function is called by:
  4580 ;;		_LCD_Init
  4581 ;;		_LCD_ShowString
  4582 ;;		_LCD_Clear
  4583 ;; This function uses a non-reentrant model
  4584 ;;
  4585                           psect	text908
  4586                           	file	"E:\MPLAB_IDE\pic16f877a_car\PIC16F877A_CAR\LCD.c"
  4587                           	line	9
  4588                           	global	__size_of_ENABLE
  4589  000E                     	__size_of_ENABLE	equ	__end_of_ENABLE-_ENABLE
  4590                           	
  4591  0A44                     _ENABLE:	
  4592                           	opt	stack 0
  4593                           ; Regs used in _ENABLE: [wreg+status,2+status,0+pclath+cstack]
  4594                           	line	10
  4595                           	
  4596  0A44                     l10493:	
  4597                           ;LCD.c: 10: RA5 = 0;
  4598  0A44  1283               	bcf	status, 5	;RP0=0, select bank0
  4599  0A45  1303               	bcf	status, 6	;RP1=0, select bank0
  4600  0A46  1285               	bcf	(45/8),(45)&7
  4601                           	line	11
  4602                           ;LCD.c: 11: RA4 = 0;
  4603  0A47  1205               	bcf	(44/8),(44)&7
  4604                           	line	12
  4605                           ;LCD.c: 12: RA3 = 0;
  4606  0A48  1185               	bcf	(43/8),(43)&7
  4607                           	line	13
  4608                           	
  4609  0A49                     l10495:	
  4610                           ;LCD.c: 13: DELAY();
  4611  0A49  120A  158A  22CC   	fcall	_DELAY
              120A  158A         
  4612                           	line	14
  4613                           	
  4614  0A4E                     l10497:	
  4615                           ;LCD.c: 14: RA3 = 1;
  4616  0A4E  1283               	bcf	status, 5	;RP0=0, select bank0
  4617  0A4F  1303               	bcf	status, 6	;RP1=0, select bank0
  4618  0A50  1585               	bsf	(43/8),(43)&7
  4619                           	line	15
  4620                           	
  4621  0A51                     l2099:	
  4622  0A51  0008               	return
  4623                           	opt stack 0
  4624                           GLOBAL	__end_of_ENABLE
  4625  0A52                     	__end_of_ENABLE:
  4626 ;; =============== function _ENABLE ends ============
  4627                           
  4628                           	signat	_ENABLE,88
  4629                           	global	_sprintf
  4630                           psect	text909,local,class=CODE,delta=2
  4631                           global __ptext909
  4632  0218                     __ptext909:
  4633                           
  4634 ;; *************** function _sprintf *****************
  4635 ;; Defined at:
  4636 ;;		line 488 in file "C:\Program Files (x86)\HI-TECH Software\PICC\9.82\lib\doprnt.c"
  4637 ;; Parameters:    Size  Location     Type
  4638 ;;  sp              1    wreg     PTR unsigned char 
  4639 ;;		 -> JY62_ShowData@str(11), 
  4640 ;;  f               1   14[BANK1 ] PTR const unsigned char 
  4641 ;;		 -> STR_2(3), 
  4642 ;; Auto vars:     Size  Location     Type
  4643 ;;  sp              1   27[BANK1 ] PTR unsigned char 
  4644 ;;		 -> JY62_ShowData@str(11), 
  4645 ;;  _val            4   23[BANK1 ] struct .
  4646 ;;  c               1   28[BANK1 ] char 
  4647 ;;  prec            1   22[BANK1 ] char 
  4648 ;;  flag            1   21[BANK1 ] unsigned char 
  4649 ;;  ap              1   20[BANK1 ] PTR void [1]
  4650 ;;		 -> ?_sprintf(2), 
  4651 ;; Return value:  Size  Location     Type
  4652 ;;                  2   14[BANK1 ] int 
  4653 ;; Registers used:
  4654 ;;		wreg, fsr0l, fsr0h, status,2, status,0, btemp+1, pclath, cstack
  4655 ;; Tracked objects:
  4656 ;;		On entry : 0/0
  4657 ;;		On exit  : 0/0
  4658 ;;		Unchanged: 0/0
  4659 ;; Data sizes:     COMMON   BANK0   BANK1   BANK3   BANK2
  4660 ;;      Params:         0       0       3       0       0
  4661 ;;      Locals:         0       0       9       0       0
  4662 ;;      Temps:          0       0       3       0       0
  4663 ;;      Totals:         0       0      15       0       0
  4664 ;;Total ram usage:       15 bytes
  4665 ;; Hardware stack levels used:    1
  4666 ;; Hardware stack levels required when called:    5
  4667 ;; This function calls:
  4668 ;;		___lwdiv
  4669 ;;		___lwmod
  4670 ;; This function is called by:
  4671 ;;		_JY62_ShowData
  4672 ;; This function uses a non-reentrant model
  4673 ;;
  4674                           psect	text909
  4675                           	file	"C:\Program Files (x86)\HI-TECH Software\PICC\9.82\sources\doprnt.c"
  4676                           	line	488
  4677                           	global	__size_of_sprintf
  4678  0100                     	__size_of_sprintf	equ	__end_of_sprintf-_sprintf
  4679                           	
  4680  0218                     _sprintf:	
  4681                           	opt	stack 1
  4682                           ; Regs used in _sprintf: [wreg-fsr0h+status,2+status,0+btemp+1+pclath+cstack]
  4683                           ;sprintf@sp stored from wreg
  4684                           	line	537
  4685  0218  1683               	bsf	status, 5	;RP0=1, select bank1
  4686  0219  1303               	bcf	status, 6	;RP1=0, select bank1
  4687  021A  00BB               	movwf	(sprintf@sp)^080h
  4688                           	
  4689  021B                     l10435:	
  4690  021B  30AF               	movlw	(?_sprintf+01h)&0ffh
  4691  021C  00B1               	movwf	(??_sprintf+0)^080h+0
  4692  021D  0831               	movf	(??_sprintf+0)^080h+0,w
  4693  021E  00B4               	movwf	(sprintf@ap)^080h
  4694                           	line	540
  4695  021F  2AFE               	goto	l10487
  4696                           	
  4697  0220                     l7120:	
  4698                           	line	542
  4699                           	
  4700  0220                     l10437:	
  4701  0220  083C               	movf	(sprintf@c)^080h,w
  4702  0221  3A25               	xorlw	025h
  4703  0222  1903               	skipnz
  4704  0223  2A25               	goto	u4661
  4705  0224  2A26               	goto	u4660
  4706  0225                     u4661:
  4707  0225  2A32               	goto	l7121
  4708  0226                     u4660:
  4709                           	line	545
  4710                           	
  4711  0226                     l10439:	
  4712  0226  083C               	movf	(sprintf@c)^080h,w
  4713  0227  00B1               	movwf	(??_sprintf+0)^080h+0
  4714  0228  083B               	movf	(sprintf@sp)^080h,w
  4715  0229  0084               	movwf	fsr0
  4716  022A  0831               	movf	(??_sprintf+0)^080h+0,w
  4717  022B  1383               	bcf	status, 7	;select IRP bank0
  4718  022C  0080               	movwf	indf
  4719                           	
  4720  022D                     l10441:	
  4721  022D  3001               	movlw	(01h)
  4722  022E  00B1               	movwf	(??_sprintf+0)^080h+0
  4723  022F  0831               	movf	(??_sprintf+0)^080h+0,w
  4724  0230  07BB               	addwf	(sprintf@sp)^080h,f
  4725                           	line	546
  4726  0231  2AFE               	goto	l10487
  4727                           	line	547
  4728                           	
  4729  0232                     l7121:	
  4730                           	line	552
  4731  0232  01B5               	clrf	(sprintf@flag)^080h
  4732                           	line	638
  4733  0233  2A39               	goto	l10445
  4734                           	line	640
  4735                           	
  4736  0234                     l7123:	
  4737                           	line	641
  4738  0234  2B12               	goto	l10489
  4739                           	line	700
  4740                           	
  4741  0235                     l7125:	
  4742  0235  2A4E               	goto	l10447
  4743                           	line	701
  4744                           	
  4745  0236                     l7126:	
  4746                           	line	702
  4747  0236  2A4E               	goto	l10447
  4748                           	line	805
  4749                           	
  4750  0237                     l7128:	
  4751                           	line	816
  4752  0237  2AFE               	goto	l10487
  4753                           	line	825
  4754                           	
  4755  0238                     l10443:	
  4756  0238  2A4E               	goto	l10447
  4757                           	line	638
  4758                           	
  4759  0239                     l7122:	
  4760                           	
  4761  0239                     l10445:	
  4762  0239  3001               	movlw	01h
  4763  023A  07AE               	addwf	(sprintf@f)^080h,f
  4764  023B  30FF               	movlw	-01h
  4765  023C  072E               	addwf	(sprintf@f)^080h,w
  4766  023D  0084               	movwf	fsr0
  4767  023E  120A  158A  200A   	fcall	stringdir
              120A  118A         
  4768  0243  00BC               	movwf	(sprintf@c)^080h
  4769                           	; Switch size 1, requested type "space"
  4770                           ; Number of cases is 3, Range of values is 0 to 105
  4771                           ; switch strategies available:
  4772                           ; Name         Instructions Cycles
  4773                           ; simple_byte           10     6 (average)
  4774                           ; jumptable            260     6 (fixed)
  4775                           ; rangetable           110     6 (fixed)
  4776                           ; spacedrange          218     9 (fixed)
  4777                           ; locatedrange         106     3 (fixed)
  4778                           ;	Chosen strategy is simple_byte
  4779                           
  4780                           	opt asmopt_off
  4781  0244  3A00               	xorlw	0^0	; case 0
  4782  0245  1903               	skipnz
  4783  0246  2B12               	goto	l10489
  4784  0247  3A64               	xorlw	100^0	; case 100
  4785  0248  1903               	skipnz
  4786  0249  2A4E               	goto	l10447
  4787  024A  3A0D               	xorlw	105^100	; case 105
  4788  024B  1903               	skipnz
  4789  024C  2A4E               	goto	l10447
  4790  024D  2AFE               	goto	l10487
  4791                           	opt asmopt_on
  4792                           
  4793                           	line	825
  4794                           	
  4795  024E                     l7127:	
  4796                           	line	1254
  4797                           	
  4798  024E                     l10447:	
  4799  024E  0834               	movf	(sprintf@ap)^080h,w
  4800  024F  0084               	movwf	fsr0
  4801  0250  1383               	bcf	status, 7	;select IRP bank0
  4802  0251  0800               	movf	indf,w
  4803  0252  00B7               	movwf	(sprintf@_val)^080h
  4804  0253  0A84               	incf	fsr0,f
  4805  0254  0800               	movf	indf,w
  4806  0255  00B8               	movwf	(sprintf@_val+1)^080h
  4807                           	
  4808  0256                     l10449:	
  4809  0256  3002               	movlw	(02h)
  4810  0257  00B1               	movwf	(??_sprintf+0)^080h+0
  4811  0258  0831               	movf	(??_sprintf+0)^080h+0,w
  4812  0259  07B4               	addwf	(sprintf@ap)^080h,f
  4813                           	line	1256
  4814                           	
  4815  025A                     l10451:	
  4816  025A  1FB8               	btfss	(sprintf@_val+1)^080h,7
  4817  025B  2A5D               	goto	u4671
  4818  025C  2A5E               	goto	u4670
  4819  025D                     u4671:
  4820  025D  2A68               	goto	l10457
  4821  025E                     u4670:
  4822                           	line	1257
  4823                           	
  4824  025E                     l10453:	
  4825  025E  3003               	movlw	(03h)
  4826  025F  00B1               	movwf	(??_sprintf+0)^080h+0
  4827  0260  0831               	movf	(??_sprintf+0)^080h+0,w
  4828  0261  04B5               	iorwf	(sprintf@flag)^080h,f
  4829                           	line	1258
  4830                           	
  4831  0262                     l10455:	
  4832  0262  09B7               	comf	(sprintf@_val)^080h,f
  4833  0263  09B8               	comf	(sprintf@_val+1)^080h,f
  4834  0264  0AB7               	incf	(sprintf@_val)^080h,f
  4835  0265  1903               	skipnz
  4836  0266  0AB8               	incf	(sprintf@_val+1)^080h,f
  4837  0267  2A68               	goto	l10457
  4838                           	line	1259
  4839                           	
  4840  0268                     l7129:	
  4841                           	line	1300
  4842                           	
  4843  0268                     l10457:	
  4844  0268  01BC               	clrf	(sprintf@c)^080h
  4845  0269  1403               	bsf	status,0
  4846  026A  0DBC               	rlf	(sprintf@c)^080h,f
  4847                           	
  4848  026B                     l10459:	
  4849  026B  083C               	movf	(sprintf@c)^080h,w
  4850  026C  3A05               	xorlw	05h
  4851  026D  1D03               	skipz
  4852  026E  2A70               	goto	u4681
  4853  026F  2A71               	goto	u4680
  4854  0270                     u4681:
  4855  0270  2A73               	goto	l10463
  4856  0271                     u4680:
  4857  0271  2A9B               	goto	l10471
  4858                           	
  4859  0272                     l10461:	
  4860  0272  2A9B               	goto	l10471
  4861                           	line	1301
  4862                           	
  4863  0273                     l7130:	
  4864                           	
  4865  0273                     l10463:	
  4866  0273  083C               	movf	(sprintf@c)^080h,w
  4867  0274  00B1               	movwf	(??_sprintf+0)^080h+0
  4868  0275  0731               	addwf	(??_sprintf+0)^080h+0,w
  4869  0276  3E01               	addlw	low((_dpowers-__stringbase))
  4870  0277  0084               	movwf	fsr0
  4871  0278  120A  158A  200A   	fcall	stringdir
              120A  118A         
  4872  027D  00B2               	movwf	(??_sprintf+1)^080h+0
  4873  027E  120A  158A  200A   	fcall	stringdir
              120A  118A         
  4874  0283  00B3               	movwf	(??_sprintf+1)^080h+0+1
  4875  0284  0833               	movf	1+(??_sprintf+1)^080h+0,w
  4876  0285  0238               	subwf	(sprintf@_val+1)^080h,w
  4877  0286  1D03               	skipz
  4878  0287  2A8A               	goto	u4695
  4879  0288  0832               	movf	0+(??_sprintf+1)^080h+0,w
  4880  0289  0237               	subwf	(sprintf@_val)^080h,w
  4881  028A                     u4695:
  4882  028A  1803               	skipnc
  4883  028B  2A8D               	goto	u4691
  4884  028C  2A8E               	goto	u4690
  4885  028D                     u4691:
  4886  028D  2A90               	goto	l10467
  4887  028E                     u4690:
  4888  028E  2A9B               	goto	l10471
  4889                           	line	1302
  4890                           	
  4891  028F                     l10465:	
  4892  028F  2A9B               	goto	l10471
  4893                           	
  4894  0290                     l7132:	
  4895                           	line	1300
  4896                           	
  4897  0290                     l10467:	
  4898  0290  3001               	movlw	(01h)
  4899  0291  00B1               	movwf	(??_sprintf+0)^080h+0
  4900  0292  0831               	movf	(??_sprintf+0)^080h+0,w
  4901  0293  07BC               	addwf	(sprintf@c)^080h,f
  4902                           	
  4903  0294                     l10469:	
  4904  0294  083C               	movf	(sprintf@c)^080h,w
  4905  0295  3A05               	xorlw	05h
  4906  0296  1D03               	skipz
  4907  0297  2A99               	goto	u4701
  4908  0298  2A9A               	goto	u4700
  4909  0299                     u4701:
  4910  0299  2A73               	goto	l10463
  4911  029A                     u4700:
  4912  029A  2A9B               	goto	l10471
  4913                           	
  4914  029B                     l7131:	
  4915                           	line	1433
  4916                           	
  4917  029B                     l10471:	
  4918  029B  0835               	movf	(sprintf@flag)^080h,w
  4919  029C  3903               	andlw	03h
  4920  029D  1903               	btfsc	status,2
  4921  029E  2AA0               	goto	u4711
  4922  029F  2AA1               	goto	u4710
  4923  02A0                     u4711:
  4924  02A0  2AAD               	goto	l10477
  4925  02A1                     u4710:
  4926                           	line	1434
  4927                           	
  4928  02A1                     l10473:	
  4929  02A1  302D               	movlw	(02Dh)
  4930  02A2  00B1               	movwf	(??_sprintf+0)^080h+0
  4931  02A3  083B               	movf	(sprintf@sp)^080h,w
  4932  02A4  0084               	movwf	fsr0
  4933  02A5  0831               	movf	(??_sprintf+0)^080h+0,w
  4934  02A6  1383               	bcf	status, 7	;select IRP bank0
  4935  02A7  0080               	movwf	indf
  4936                           	
  4937  02A8                     l10475:	
  4938  02A8  3001               	movlw	(01h)
  4939  02A9  00B1               	movwf	(??_sprintf+0)^080h+0
  4940  02AA  0831               	movf	(??_sprintf+0)^080h+0,w
  4941  02AB  07BB               	addwf	(sprintf@sp)^080h,f
  4942  02AC  2AAD               	goto	l10477
  4943                           	
  4944  02AD                     l7133:	
  4945                           	line	1467
  4946                           	
  4947  02AD                     l10477:	
  4948  02AD  083C               	movf	(sprintf@c)^080h,w
  4949  02AE  00B1               	movwf	(??_sprintf+0)^080h+0
  4950  02AF  0831               	movf	(??_sprintf+0)^080h+0,w
  4951  02B0  00B6               	movwf	(sprintf@prec)^080h
  4952                           	line	1469
  4953  02B1  2AF2               	goto	l10485
  4954                           	
  4955  02B2                     l7135:	
  4956                           	line	1484
  4957                           	
  4958  02B2                     l10479:	
  4959  02B2  300A               	movlw	low(0Ah)
  4960  02B3  00A8               	movwf	(?___lwmod)^080h
  4961  02B4  3000               	movlw	high(0Ah)
  4962  02B5  00A9               	movwf	((?___lwmod)^080h)+1
  4963  02B6  0836               	movf	(sprintf@prec)^080h,w
  4964  02B7  00B1               	movwf	(??_sprintf+0)^080h+0
  4965  02B8  0731               	addwf	(??_sprintf+0)^080h+0,w
  4966  02B9  3E01               	addlw	low((_dpowers-__stringbase))
  4967  02BA  0084               	movwf	fsr0
  4968  02BB  120A  158A  200A   	fcall	stringdir
              120A  118A         
  4969  02C0  00A0               	movwf	(?___lwdiv)^080h
  4970  02C1  120A  158A  200A   	fcall	stringdir
              120A  118A         
  4971  02C6  00A1               	movwf	(?___lwdiv+1)^080h
  4972  02C7  0838               	movf	(sprintf@_val+1)^080h,w
  4973  02C8  01A3               	clrf	1+(?___lwdiv)^080h+02h
  4974  02C9  07A3               	addwf	1+(?___lwdiv)^080h+02h
  4975  02CA  0837               	movf	(sprintf@_val)^080h,w
  4976  02CB  01A2               	clrf	0+(?___lwdiv)^080h+02h
  4977  02CC  07A2               	addwf	0+(?___lwdiv)^080h+02h
  4978                           
  4979  02CD  120A  158A  258D   	fcall	___lwdiv
              120A  118A         
  4980  02D2  1683               	bsf	status, 5	;RP0=1, select bank1
  4981  02D3  1303               	bcf	status, 6	;RP1=0, select bank1
  4982  02D4  0821               	movf	(1+(?___lwdiv))^080h,w
  4983  02D5  01AB               	clrf	1+(?___lwmod)^080h+02h
  4984  02D6  07AB               	addwf	1+(?___lwmod)^080h+02h
  4985  02D7  0820               	movf	(0+(?___lwdiv))^080h,w
  4986  02D8  01AA               	clrf	0+(?___lwmod)^080h+02h
  4987  02D9  07AA               	addwf	0+(?___lwmod)^080h+02h
  4988                           
  4989  02DA  120A  158A  24B7   	fcall	___lwmod
              120A  118A         
  4990  02DF  1683               	bsf	status, 5	;RP0=1, select bank1
  4991  02E0  1303               	bcf	status, 6	;RP1=0, select bank1
  4992  02E1  0828               	movf	(0+(?___lwmod))^080h,w
  4993  02E2  3E30               	addlw	030h
  4994  02E3  00B2               	movwf	(??_sprintf+1)^080h+0
  4995  02E4  0832               	movf	(??_sprintf+1)^080h+0,w
  4996  02E5  00BC               	movwf	(sprintf@c)^080h
  4997                           	line	1516
  4998                           	
  4999  02E6                     l10481:	
  5000  02E6  083C               	movf	(sprintf@c)^080h,w
  5001  02E7  00B1               	movwf	(??_sprintf+0)^080h+0
  5002  02E8  083B               	movf	(sprintf@sp)^080h,w
  5003  02E9  0084               	movwf	fsr0
  5004  02EA  0831               	movf	(??_sprintf+0)^080h+0,w
  5005  02EB  1383               	bcf	status, 7	;select IRP bank0
  5006  02EC  0080               	movwf	indf
  5007                           	
  5008  02ED                     l10483:	
  5009  02ED  3001               	movlw	(01h)
  5010  02EE  00B1               	movwf	(??_sprintf+0)^080h+0
  5011  02EF  0831               	movf	(??_sprintf+0)^080h+0,w
  5012  02F0  07BB               	addwf	(sprintf@sp)^080h,f
  5013  02F1  2AF2               	goto	l10485
  5014                           	line	1517
  5015                           	
  5016  02F2                     l7134:	
  5017                           	line	1469
  5018                           	
  5019  02F2                     l10485:	
  5020  02F2  30FF               	movlw	(-1)
  5021  02F3  00B1               	movwf	(??_sprintf+0)^080h+0
  5022  02F4  0831               	movf	(??_sprintf+0)^080h+0,w
  5023  02F5  07B6               	addwf	(sprintf@prec)^080h,f
  5024  02F6  0836               	movf	((sprintf@prec)^080h),w
  5025  02F7  3AFF               	xorlw	-1
  5026  02F8  1D03               	skipz
  5027  02F9  2AFB               	goto	u4721
  5028  02FA  2AFC               	goto	u4720
  5029  02FB                     u4721:
  5030  02FB  2AB2               	goto	l10479
  5031  02FC                     u4720:
  5032  02FC  2AFE               	goto	l10487
  5033                           	
  5034  02FD                     l7136:	
  5035  02FD  2AFE               	goto	l10487
  5036                           	line	1525
  5037                           	
  5038  02FE                     l7119:	
  5039                           	line	540
  5040                           	
  5041  02FE                     l10487:	
  5042  02FE  3001               	movlw	01h
  5043  02FF  07AE               	addwf	(sprintf@f)^080h,f
  5044  0300  30FF               	movlw	-01h
  5045  0301  072E               	addwf	(sprintf@f)^080h,w
  5046  0302  0084               	movwf	fsr0
  5047  0303  120A  158A  200A   	fcall	stringdir
              120A  118A         
  5048  0308  00B1               	movwf	(??_sprintf+0)^080h+0
  5049  0309  0831               	movf	(??_sprintf+0)^080h+0,w
  5050  030A  00BC               	movwf	(sprintf@c)^080h
  5051  030B  08BC               	movf	((sprintf@c)^080h),f
  5052  030C  1D03               	skipz
  5053  030D  2B0F               	goto	u4731
  5054  030E  2B10               	goto	u4730
  5055  030F                     u4731:
  5056  030F  2A20               	goto	l10437
  5057  0310                     u4730:
  5058  0310  2B12               	goto	l10489
  5059                           	
  5060  0311                     l7137:	
  5061  0311  2B12               	goto	l10489
  5062                           	line	1527
  5063                           	
  5064  0312                     l7124:	
  5065                           	line	1530
  5066                           	
  5067  0312                     l10489:	
  5068  0312  083B               	movf	(sprintf@sp)^080h,w
  5069  0313  0084               	movwf	fsr0
  5070  0314  1383               	bcf	status, 7	;select IRP bank0
  5071  0315  0180               	clrf	indf
  5072  0316  2B17               	goto	l7138
  5073                           	line	1532
  5074                           	
  5075  0317                     l10491:	
  5076                           	line	1533
  5077                           ;	Return value of _sprintf is never used
  5078                           	
  5079  0317                     l7138:	
  5080  0317  0008               	return
  5081                           	opt stack 0
  5082                           GLOBAL	__end_of_sprintf
  5083  0318                     	__end_of_sprintf:
  5084 ;; =============== function _sprintf ends ============
  5085                           
  5086                           	signat	_sprintf,4698
  5087                           	global	___awdiv
  5088                           psect	text910,local,class=CODE,delta=2
  5089                           global __ptext910
  5090  0E8E                     __ptext910:
  5091                           
  5092 ;; *************** function ___awdiv *****************
  5093 ;; Defined at:
  5094 ;;		line 5 in file "C:\Program Files (x86)\HI-TECH Software\PICC\9.82\sources\awdiv.c"
  5095 ;; Parameters:    Size  Location     Type
  5096 ;;  divisor         2    6[BANK1 ] int 
  5097 ;;  dividend        2    8[BANK1 ] int 
  5098 ;; Auto vars:     Size  Location     Type
  5099 ;;  quotient        2   13[BANK1 ] int 
  5100 ;;  sign            1   12[BANK1 ] unsigned char 
  5101 ;;  counter         1   11[BANK1 ] unsigned char 
  5102 ;; Return value:  Size  Location     Type
  5103 ;;                  2    6[BANK1 ] int 
  5104 ;; Registers used:
  5105 ;;		wreg, status,2, status,0
  5106 ;; Tracked objects:
  5107 ;;		On entry : 0/0
  5108 ;;		On exit  : 0/0
  5109 ;;		Unchanged: 0/0
  5110 ;; Data sizes:     COMMON   BANK0   BANK1   BANK3   BANK2
  5111 ;;      Params:         0       0       4       0       0
  5112 ;;      Locals:         0       0       4       0       0
  5113 ;;      Temps:          0       0       1       0       0
  5114 ;;      Totals:         0       0       9       0       0
  5115 ;;Total ram usage:        9 bytes
  5116 ;; Hardware stack levels used:    1
  5117 ;; Hardware stack levels required when called:    4
  5118 ;; This function calls:
  5119 ;;		Nothing
  5120 ;; This function is called by:
  5121 ;;		_PWM1_SetDutyCycle
  5122 ;;		_PWM2_SetDutyCycle
  5123 ;; This function uses a non-reentrant model
  5124 ;;
  5125                           psect	text910
  5126                           	file	"C:\Program Files (x86)\HI-TECH Software\PICC\9.82\sources\awdiv.c"
  5127                           	line	5
  5128                           	global	__size_of___awdiv
  5129  0076                     	__size_of___awdiv	equ	__end_of___awdiv-___awdiv
  5130                           	
  5131  0E8E                     ___awdiv:	
  5132 ;; hardware stack exceeded
  5133                           	opt	stack 0
  5134                           ; Regs used in ___awdiv: [wreg+status,2+status,0]
  5135                           	line	9
  5136                           	
  5137  0E8E                     l10349:	
  5138  0E8E  1683               	bsf	status, 5	;RP0=1, select bank1
  5139  0E8F  1303               	bcf	status, 6	;RP1=0, select bank1
  5140  0E90  01AC               	clrf	(___awdiv@sign)^080h
  5141                           	line	10
  5142  0E91  1FA7               	btfss	(___awdiv@divisor+1)^080h,7
  5143  0E92  2E94               	goto	u4501
  5144  0E93  2E95               	goto	u4500
  5145  0E94                     u4501:
  5146  0E94  2E9E               	goto	l10353
  5147  0E95                     u4500:
  5148                           	line	11
  5149                           	
  5150  0E95                     l10351:	
  5151  0E95  09A6               	comf	(___awdiv@divisor)^080h,f
  5152  0E96  09A7               	comf	(___awdiv@divisor+1)^080h,f
  5153  0E97  0AA6               	incf	(___awdiv@divisor)^080h,f
  5154  0E98  1903               	skipnz
  5155  0E99  0AA7               	incf	(___awdiv@divisor+1)^080h,f
  5156                           	line	12
  5157  0E9A  01AC               	clrf	(___awdiv@sign)^080h
  5158  0E9B  1403               	bsf	status,0
  5159  0E9C  0DAC               	rlf	(___awdiv@sign)^080h,f
  5160  0E9D  2E9E               	goto	l10353
  5161                           	line	13
  5162                           	
  5163  0E9E                     l7961:	
  5164                           	line	14
  5165                           	
  5166  0E9E                     l10353:	
  5167  0E9E  1FA9               	btfss	(___awdiv@dividend+1)^080h,7
  5168  0E9F  2EA1               	goto	u4511
  5169  0EA0  2EA2               	goto	u4510
  5170  0EA1                     u4511:
  5171  0EA1  2EAC               	goto	l10359
  5172  0EA2                     u4510:
  5173                           	line	15
  5174                           	
  5175  0EA2                     l10355:	
  5176  0EA2  09A8               	comf	(___awdiv@dividend)^080h,f
  5177  0EA3  09A9               	comf	(___awdiv@dividend+1)^080h,f
  5178  0EA4  0AA8               	incf	(___awdiv@dividend)^080h,f
  5179  0EA5  1903               	skipnz
  5180  0EA6  0AA9               	incf	(___awdiv@dividend+1)^080h,f
  5181                           	line	16
  5182                           	
  5183  0EA7                     l10357:	
  5184  0EA7  3001               	movlw	(01h)
  5185  0EA8  00AA               	movwf	(??___awdiv+0)^080h+0
  5186  0EA9  082A               	movf	(??___awdiv+0)^080h+0,w
  5187  0EAA  06AC               	xorwf	(___awdiv@sign)^080h,f
  5188  0EAB  2EAC               	goto	l10359
  5189                           	line	17
  5190                           	
  5191  0EAC                     l7962:	
  5192                           	line	18
  5193                           	
  5194  0EAC                     l10359:	
  5195  0EAC  01AD               	clrf	(___awdiv@quotient)^080h
  5196  0EAD  01AE               	clrf	(___awdiv@quotient+1)^080h
  5197                           	line	19
  5198                           	
  5199  0EAE                     l10361:	
  5200  0EAE  0827               	movf	(___awdiv@divisor+1)^080h,w
  5201  0EAF  0426               	iorwf	(___awdiv@divisor)^080h,w
  5202  0EB0  1903               	skipnz
  5203  0EB1  2EB3               	goto	u4521
  5204  0EB2  2EB4               	goto	u4520
  5205  0EB3                     u4521:
  5206  0EB3  2EF2               	goto	l10381
  5207  0EB4                     u4520:
  5208                           	line	20
  5209                           	
  5210  0EB4                     l10363:	
  5211  0EB4  01AB               	clrf	(___awdiv@counter)^080h
  5212  0EB5  1403               	bsf	status,0
  5213  0EB6  0DAB               	rlf	(___awdiv@counter)^080h,f
  5214                           	line	21
  5215  0EB7  2EC4               	goto	l10369
  5216                           	
  5217  0EB8                     l7965:	
  5218                           	line	22
  5219                           	
  5220  0EB8                     l10365:	
  5221  0EB8  3001               	movlw	01h
  5222                           	
  5223  0EB9                     u4535:
  5224  0EB9  1003               	clrc
  5225  0EBA  0DA6               	rlf	(___awdiv@divisor)^080h,f
  5226  0EBB  0DA7               	rlf	(___awdiv@divisor+1)^080h,f
  5227  0EBC  3EFF               	addlw	-1
  5228  0EBD  1D03               	skipz
  5229  0EBE  2EB9               	goto	u4535
  5230                           	line	23
  5231                           	
  5232  0EBF                     l10367:	
  5233  0EBF  3001               	movlw	(01h)
  5234  0EC0  00AA               	movwf	(??___awdiv+0)^080h+0
  5235  0EC1  082A               	movf	(??___awdiv+0)^080h+0,w
  5236  0EC2  07AB               	addwf	(___awdiv@counter)^080h,f
  5237  0EC3  2EC4               	goto	l10369
  5238                           	line	24
  5239                           	
  5240  0EC4                     l7964:	
  5241                           	line	21
  5242                           	
  5243  0EC4                     l10369:	
  5244  0EC4  1FA7               	btfss	(___awdiv@divisor+1)^080h,(15)&7
  5245  0EC5  2EC7               	goto	u4541
  5246  0EC6  2EC8               	goto	u4540
  5247  0EC7                     u4541:
  5248  0EC7  2EB8               	goto	l10365
  5249  0EC8                     u4540:
  5250  0EC8  2ECA               	goto	l10371
  5251                           	
  5252  0EC9                     l7966:	
  5253  0EC9  2ECA               	goto	l10371
  5254                           	line	25
  5255                           	
  5256  0ECA                     l7967:	
  5257                           	line	26
  5258                           	
  5259  0ECA                     l10371:	
  5260  0ECA  3001               	movlw	01h
  5261                           	
  5262  0ECB                     u4555:
  5263  0ECB  1003               	clrc
  5264  0ECC  0DAD               	rlf	(___awdiv@quotient)^080h,f
  5265  0ECD  0DAE               	rlf	(___awdiv@quotient+1)^080h,f
  5266  0ECE  3EFF               	addlw	-1
  5267  0ECF  1D03               	skipz
  5268  0ED0  2ECB               	goto	u4555
  5269                           	line	27
  5270  0ED1  0827               	movf	(___awdiv@divisor+1)^080h,w
  5271  0ED2  0229               	subwf	(___awdiv@dividend+1)^080h,w
  5272  0ED3  1D03               	skipz
  5273  0ED4  2ED7               	goto	u4565
  5274  0ED5  0826               	movf	(___awdiv@divisor)^080h,w
  5275  0ED6  0228               	subwf	(___awdiv@dividend)^080h,w
  5276  0ED7                     u4565:
  5277  0ED7  1C03               	skipc
  5278  0ED8  2EDA               	goto	u4561
  5279  0ED9  2EDB               	goto	u4560
  5280  0EDA                     u4561:
  5281  0EDA  2EE3               	goto	l10377
  5282  0EDB                     u4560:
  5283                           	line	28
  5284                           	
  5285  0EDB                     l10373:	
  5286  0EDB  0826               	movf	(___awdiv@divisor)^080h,w
  5287  0EDC  02A8               	subwf	(___awdiv@dividend)^080h,f
  5288  0EDD  0827               	movf	(___awdiv@divisor+1)^080h,w
  5289  0EDE  1C03               	skipc
  5290  0EDF  03A9               	decf	(___awdiv@dividend+1)^080h,f
  5291  0EE0  02A9               	subwf	(___awdiv@dividend+1)^080h,f
  5292                           	line	29
  5293                           	
  5294  0EE1                     l10375:	
  5295  0EE1  142D               	bsf	(___awdiv@quotient)^080h+(0/8),(0)&7
  5296  0EE2  2EE3               	goto	l10377
  5297                           	line	30
  5298                           	
  5299  0EE3                     l7968:	
  5300                           	line	31
  5301                           	
  5302  0EE3                     l10377:	
  5303  0EE3  3001               	movlw	01h
  5304                           	
  5305  0EE4                     u4575:
  5306  0EE4  1003               	clrc
  5307  0EE5  0CA7               	rrf	(___awdiv@divisor+1)^080h,f
  5308  0EE6  0CA6               	rrf	(___awdiv@divisor)^080h,f
  5309  0EE7  3EFF               	addlw	-1
  5310  0EE8  1D03               	skipz
  5311  0EE9  2EE4               	goto	u4575
  5312                           	line	32
  5313                           	
  5314  0EEA                     l10379:	
  5315  0EEA  3001               	movlw	low(01h)
  5316  0EEB  02AB               	subwf	(___awdiv@counter)^080h,f
  5317  0EEC  1D03               	btfss	status,2
  5318  0EED  2EEF               	goto	u4581
  5319  0EEE  2EF0               	goto	u4580
  5320  0EEF                     u4581:
  5321  0EEF  2ECA               	goto	l10371
  5322  0EF0                     u4580:
  5323  0EF0  2EF2               	goto	l10381
  5324                           	
  5325  0EF1                     l7969:	
  5326  0EF1  2EF2               	goto	l10381
  5327                           	line	33
  5328                           	
  5329  0EF2                     l7963:	
  5330                           	line	34
  5331                           	
  5332  0EF2                     l10381:	
  5333  0EF2  082C               	movf	(___awdiv@sign)^080h,w
  5334  0EF3  1D03               	skipz
  5335  0EF4  2EF6               	goto	u4590
  5336  0EF5  2EFC               	goto	l10385
  5337  0EF6                     u4590:
  5338                           	line	35
  5339                           	
  5340  0EF6                     l10383:	
  5341  0EF6  09AD               	comf	(___awdiv@quotient)^080h,f
  5342  0EF7  09AE               	comf	(___awdiv@quotient+1)^080h,f
  5343  0EF8  0AAD               	incf	(___awdiv@quotient)^080h,f
  5344  0EF9  1903               	skipnz
  5345  0EFA  0AAE               	incf	(___awdiv@quotient+1)^080h,f
  5346  0EFB  2EFC               	goto	l10385
  5347                           	
  5348  0EFC                     l7970:	
  5349                           	line	36
  5350                           	
  5351  0EFC                     l10385:	
  5352  0EFC  082E               	movf	(___awdiv@quotient+1)^080h,w
  5353  0EFD  01A7               	clrf	(?___awdiv+1)^080h
  5354  0EFE  07A7               	addwf	(?___awdiv+1)^080h
  5355  0EFF  082D               	movf	(___awdiv@quotient)^080h,w
  5356  0F00  01A6               	clrf	(?___awdiv)^080h
  5357  0F01  07A6               	addwf	(?___awdiv)^080h
  5358                           
  5359  0F02  2F03               	goto	l7971
  5360                           	
  5361  0F03                     l10387:	
  5362                           	line	37
  5363                           	
  5364  0F03                     l7971:	
  5365  0F03  0008               	return
  5366                           	opt stack 0
  5367                           GLOBAL	__end_of___awdiv
  5368  0F04                     	__end_of___awdiv:
  5369 ;; =============== function ___awdiv ends ============
  5370                           
  5371                           	signat	___awdiv,8314
  5372                           	global	___lwmod
  5373                           psect	text911,local,class=CODE,delta=2
  5374                           global __ptext911
  5375  0CB7                     __ptext911:
  5376                           
  5377 ;; *************** function ___lwmod *****************
  5378 ;; Defined at:
  5379 ;;		line 5 in file "C:\Program Files (x86)\HI-TECH Software\PICC\9.82\sources\lwmod.c"
  5380 ;; Parameters:    Size  Location     Type
  5381 ;;  divisor         2    8[BANK1 ] unsigned int 
  5382 ;;  dividend        2   10[BANK1 ] unsigned int 
  5383 ;; Auto vars:     Size  Location     Type
  5384 ;;  counter         1   13[BANK1 ] unsigned char 
  5385 ;; Return value:  Size  Location     Type
  5386 ;;                  2    8[BANK1 ] unsigned int 
  5387 ;; Registers used:
  5388 ;;		wreg, status,2, status,0
  5389 ;; Tracked objects:
  5390 ;;		On entry : 0/0
  5391 ;;		On exit  : 0/0
  5392 ;;		Unchanged: 0/0
  5393 ;; Data sizes:     COMMON   BANK0   BANK1   BANK3   BANK2
  5394 ;;      Params:         0       0       4       0       0
  5395 ;;      Locals:         0       0       1       0       0
  5396 ;;      Temps:          0       0       1       0       0
  5397 ;;      Totals:         0       0       6       0       0
  5398 ;;Total ram usage:        6 bytes
  5399 ;; Hardware stack levels used:    1
  5400 ;; Hardware stack levels required when called:    4
  5401 ;; This function calls:
  5402 ;;		Nothing
  5403 ;; This function is called by:
  5404 ;;		_sprintf
  5405 ;; This function uses a non-reentrant model
  5406 ;;
  5407                           psect	text911
  5408                           	file	"C:\Program Files (x86)\HI-TECH Software\PICC\9.82\sources\lwmod.c"
  5409                           	line	5
  5410                           	global	__size_of___lwmod
  5411  0046                     	__size_of___lwmod	equ	__end_of___lwmod-___lwmod
  5412                           	
  5413  0CB7                     ___lwmod:	
  5414                           	opt	stack 1
  5415                           ; Regs used in ___lwmod: [wreg+status,2+status,0]
  5416                           	line	8
  5417                           	
  5418  0CB7                     l10065:	
  5419  0CB7  1683               	bsf	status, 5	;RP0=1, select bank1
  5420  0CB8  1303               	bcf	status, 6	;RP1=0, select bank1
  5421  0CB9  0829               	movf	(___lwmod@divisor+1)^080h,w
  5422  0CBA  0428               	iorwf	(___lwmod@divisor)^080h,w
  5423  0CBB  1903               	skipnz
  5424  0CBC  2CBE               	goto	u3751
  5425  0CBD  2CBF               	goto	u3750
  5426  0CBE                     u3751:
  5427  0CBE  2CF5               	goto	l10083
  5428  0CBF                     u3750:
  5429                           	line	9
  5430                           	
  5431  0CBF                     l10067:	
  5432  0CBF  01AD               	clrf	(___lwmod@counter)^080h
  5433  0CC0  1403               	bsf	status,0
  5434  0CC1  0DAD               	rlf	(___lwmod@counter)^080h,f
  5435                           	line	10
  5436  0CC2  2CCF               	goto	l10073
  5437                           	
  5438  0CC3                     l7839:	
  5439                           	line	11
  5440                           	
  5441  0CC3                     l10069:	
  5442  0CC3  3001               	movlw	01h
  5443                           	
  5444  0CC4                     u3765:
  5445  0CC4  1003               	clrc
  5446  0CC5  0DA8               	rlf	(___lwmod@divisor)^080h,f
  5447  0CC6  0DA9               	rlf	(___lwmod@divisor+1)^080h,f
  5448  0CC7  3EFF               	addlw	-1
  5449  0CC8  1D03               	skipz
  5450  0CC9  2CC4               	goto	u3765
  5451                           	line	12
  5452                           	
  5453  0CCA                     l10071:	
  5454  0CCA  3001               	movlw	(01h)
  5455  0CCB  00AC               	movwf	(??___lwmod+0)^080h+0
  5456  0CCC  082C               	movf	(??___lwmod+0)^080h+0,w
  5457  0CCD  07AD               	addwf	(___lwmod@counter)^080h,f
  5458  0CCE  2CCF               	goto	l10073
  5459                           	line	13
  5460                           	
  5461  0CCF                     l7838:	
  5462                           	line	10
  5463                           	
  5464  0CCF                     l10073:	
  5465  0CCF  1FA9               	btfss	(___lwmod@divisor+1)^080h,(15)&7
  5466  0CD0  2CD2               	goto	u3771
  5467  0CD1  2CD3               	goto	u3770
  5468  0CD2                     u3771:
  5469  0CD2  2CC3               	goto	l10069
  5470  0CD3                     u3770:
  5471  0CD3  2CD5               	goto	l10075
  5472                           	
  5473  0CD4                     l7840:	
  5474  0CD4  2CD5               	goto	l10075
  5475                           	line	14
  5476                           	
  5477  0CD5                     l7841:	
  5478                           	line	15
  5479                           	
  5480  0CD5                     l10075:	
  5481  0CD5  0829               	movf	(___lwmod@divisor+1)^080h,w
  5482  0CD6  022B               	subwf	(___lwmod@dividend+1)^080h,w
  5483  0CD7  1D03               	skipz
  5484  0CD8  2CDB               	goto	u3785
  5485  0CD9  0828               	movf	(___lwmod@divisor)^080h,w
  5486  0CDA  022A               	subwf	(___lwmod@dividend)^080h,w
  5487  0CDB                     u3785:
  5488  0CDB  1C03               	skipc
  5489  0CDC  2CDE               	goto	u3781
  5490  0CDD  2CDF               	goto	u3780
  5491  0CDE                     u3781:
  5492  0CDE  2CE6               	goto	l10079
  5493  0CDF                     u3780:
  5494                           	line	16
  5495                           	
  5496  0CDF                     l10077:	
  5497  0CDF  0828               	movf	(___lwmod@divisor)^080h,w
  5498  0CE0  02AA               	subwf	(___lwmod@dividend)^080h,f
  5499  0CE1  0829               	movf	(___lwmod@divisor+1)^080h,w
  5500  0CE2  1C03               	skipc
  5501  0CE3  03AB               	decf	(___lwmod@dividend+1)^080h,f
  5502  0CE4  02AB               	subwf	(___lwmod@dividend+1)^080h,f
  5503  0CE5  2CE6               	goto	l10079
  5504                           	
  5505  0CE6                     l7842:	
  5506                           	line	17
  5507                           	
  5508  0CE6                     l10079:	
  5509  0CE6  3001               	movlw	01h
  5510                           	
  5511  0CE7                     u3795:
  5512  0CE7  1003               	clrc
  5513  0CE8  0CA9               	rrf	(___lwmod@divisor+1)^080h,f
  5514  0CE9  0CA8               	rrf	(___lwmod@divisor)^080h,f
  5515  0CEA  3EFF               	addlw	-1
  5516  0CEB  1D03               	skipz
  5517  0CEC  2CE7               	goto	u3795
  5518                           	line	18
  5519                           	
  5520  0CED                     l10081:	
  5521  0CED  3001               	movlw	low(01h)
  5522  0CEE  02AD               	subwf	(___lwmod@counter)^080h,f
  5523  0CEF  1D03               	btfss	status,2
  5524  0CF0  2CF2               	goto	u3801
  5525  0CF1  2CF3               	goto	u3800
  5526  0CF2                     u3801:
  5527  0CF2  2CD5               	goto	l10075
  5528  0CF3                     u3800:
  5529  0CF3  2CF5               	goto	l10083
  5530                           	
  5531  0CF4                     l7843:	
  5532  0CF4  2CF5               	goto	l10083
  5533                           	line	19
  5534                           	
  5535  0CF5                     l7837:	
  5536                           	line	20
  5537                           	
  5538  0CF5                     l10083:	
  5539  0CF5  082B               	movf	(___lwmod@dividend+1)^080h,w
  5540  0CF6  01A9               	clrf	(?___lwmod+1)^080h
  5541  0CF7  07A9               	addwf	(?___lwmod+1)^080h
  5542  0CF8  082A               	movf	(___lwmod@dividend)^080h,w
  5543  0CF9  01A8               	clrf	(?___lwmod)^080h
  5544  0CFA  07A8               	addwf	(?___lwmod)^080h
  5545                           
  5546  0CFB  2CFC               	goto	l7844
  5547                           	
  5548  0CFC                     l10085:	
  5549                           	line	21
  5550                           	
  5551  0CFC                     l7844:	
  5552  0CFC  0008               	return
  5553                           	opt stack 0
  5554                           GLOBAL	__end_of___lwmod
  5555  0CFD                     	__end_of___lwmod:
  5556 ;; =============== function ___lwmod ends ============
  5557                           
  5558                           	signat	___lwmod,8314
  5559                           	global	___lwdiv
  5560                           psect	text912,local,class=CODE,delta=2
  5561                           global __ptext912
  5562  0D8D                     __ptext912:
  5563                           
  5564 ;; *************** function ___lwdiv *****************
  5565 ;; Defined at:
  5566 ;;		line 5 in file "C:\Program Files (x86)\HI-TECH Software\PICC\9.82\sources\lwdiv.c"
  5567 ;; Parameters:    Size  Location     Type
  5568 ;;  divisor         2    0[BANK1 ] unsigned int 
  5569 ;;  dividend        2    2[BANK1 ] unsigned int 
  5570 ;; Auto vars:     Size  Location     Type
  5571 ;;  quotient        2    5[BANK1 ] unsigned int 
  5572 ;;  counter         1    7[BANK1 ] unsigned char 
  5573 ;; Return value:  Size  Location     Type
  5574 ;;                  2    0[BANK1 ] unsigned int 
  5575 ;; Registers used:
  5576 ;;		wreg, status,2, status,0
  5577 ;; Tracked objects:
  5578 ;;		On entry : 0/0
  5579 ;;		On exit  : 0/0
  5580 ;;		Unchanged: 0/0
  5581 ;; Data sizes:     COMMON   BANK0   BANK1   BANK3   BANK2
  5582 ;;      Params:         0       0       4       0       0
  5583 ;;      Locals:         0       0       3       0       0
  5584 ;;      Temps:          0       0       1       0       0
  5585 ;;      Totals:         0       0       8       0       0
  5586 ;;Total ram usage:        8 bytes
  5587 ;; Hardware stack levels used:    1
  5588 ;; Hardware stack levels required when called:    4
  5589 ;; This function calls:
  5590 ;;		Nothing
  5591 ;; This function is called by:
  5592 ;;		_sprintf
  5593 ;; This function uses a non-reentrant model
  5594 ;;
  5595                           psect	text912
  5596                           	file	"C:\Program Files (x86)\HI-TECH Software\PICC\9.82\sources\lwdiv.c"
  5597                           	line	5
  5598                           	global	__size_of___lwdiv
  5599  0050                     	__size_of___lwdiv	equ	__end_of___lwdiv-___lwdiv
  5600                           	
  5601  0D8D                     ___lwdiv:	
  5602                           	opt	stack 1
  5603                           ; Regs used in ___lwdiv: [wreg+status,2+status,0]
  5604                           	line	9
  5605                           	
  5606  0D8D                     l10039:	
  5607  0D8D  1683               	bsf	status, 5	;RP0=1, select bank1
  5608  0D8E  1303               	bcf	status, 6	;RP1=0, select bank1
  5609  0D8F  01A5               	clrf	(___lwdiv@quotient)^080h
  5610  0D90  01A6               	clrf	(___lwdiv@quotient+1)^080h
  5611                           	line	10
  5612                           	
  5613  0D91                     l10041:	
  5614  0D91  0821               	movf	(___lwdiv@divisor+1)^080h,w
  5615  0D92  0420               	iorwf	(___lwdiv@divisor)^080h,w
  5616  0D93  1903               	skipnz
  5617  0D94  2D96               	goto	u3681
  5618  0D95  2D97               	goto	u3680
  5619  0D96                     u3681:
  5620  0D96  2DD5               	goto	l10061
  5621  0D97                     u3680:
  5622                           	line	11
  5623                           	
  5624  0D97                     l10043:	
  5625  0D97  01A7               	clrf	(___lwdiv@counter)^080h
  5626  0D98  1403               	bsf	status,0
  5627  0D99  0DA7               	rlf	(___lwdiv@counter)^080h,f
  5628                           	line	12
  5629  0D9A  2DA7               	goto	l10049
  5630                           	
  5631  0D9B                     l7829:	
  5632                           	line	13
  5633                           	
  5634  0D9B                     l10045:	
  5635  0D9B  3001               	movlw	01h
  5636                           	
  5637  0D9C                     u3695:
  5638  0D9C  1003               	clrc
  5639  0D9D  0DA0               	rlf	(___lwdiv@divisor)^080h,f
  5640  0D9E  0DA1               	rlf	(___lwdiv@divisor+1)^080h,f
  5641  0D9F  3EFF               	addlw	-1
  5642  0DA0  1D03               	skipz
  5643  0DA1  2D9C               	goto	u3695
  5644                           	line	14
  5645                           	
  5646  0DA2                     l10047:	
  5647  0DA2  3001               	movlw	(01h)
  5648  0DA3  00A4               	movwf	(??___lwdiv+0)^080h+0
  5649  0DA4  0824               	movf	(??___lwdiv+0)^080h+0,w
  5650  0DA5  07A7               	addwf	(___lwdiv@counter)^080h,f
  5651  0DA6  2DA7               	goto	l10049
  5652                           	line	15
  5653                           	
  5654  0DA7                     l7828:	
  5655                           	line	12
  5656                           	
  5657  0DA7                     l10049:	
  5658  0DA7  1FA1               	btfss	(___lwdiv@divisor+1)^080h,(15)&7
  5659  0DA8  2DAA               	goto	u3701
  5660  0DA9  2DAB               	goto	u3700
  5661  0DAA                     u3701:
  5662  0DAA  2D9B               	goto	l10045
  5663  0DAB                     u3700:
  5664  0DAB  2DAD               	goto	l10051
  5665                           	
  5666  0DAC                     l7830:	
  5667  0DAC  2DAD               	goto	l10051
  5668                           	line	16
  5669                           	
  5670  0DAD                     l7831:	
  5671                           	line	17
  5672                           	
  5673  0DAD                     l10051:	
  5674  0DAD  3001               	movlw	01h
  5675                           	
  5676  0DAE                     u3715:
  5677  0DAE  1003               	clrc
  5678  0DAF  0DA5               	rlf	(___lwdiv@quotient)^080h,f
  5679  0DB0  0DA6               	rlf	(___lwdiv@quotient+1)^080h,f
  5680  0DB1  3EFF               	addlw	-1
  5681  0DB2  1D03               	skipz
  5682  0DB3  2DAE               	goto	u3715
  5683                           	line	18
  5684  0DB4  0821               	movf	(___lwdiv@divisor+1)^080h,w
  5685  0DB5  0223               	subwf	(___lwdiv@dividend+1)^080h,w
  5686  0DB6  1D03               	skipz
  5687  0DB7  2DBA               	goto	u3725
  5688  0DB8  0820               	movf	(___lwdiv@divisor)^080h,w
  5689  0DB9  0222               	subwf	(___lwdiv@dividend)^080h,w
  5690  0DBA                     u3725:
  5691  0DBA  1C03               	skipc
  5692  0DBB  2DBD               	goto	u3721
  5693  0DBC  2DBE               	goto	u3720
  5694  0DBD                     u3721:
  5695  0DBD  2DC6               	goto	l10057
  5696  0DBE                     u3720:
  5697                           	line	19
  5698                           	
  5699  0DBE                     l10053:	
  5700  0DBE  0820               	movf	(___lwdiv@divisor)^080h,w
  5701  0DBF  02A2               	subwf	(___lwdiv@dividend)^080h,f
  5702  0DC0  0821               	movf	(___lwdiv@divisor+1)^080h,w
  5703  0DC1  1C03               	skipc
  5704  0DC2  03A3               	decf	(___lwdiv@dividend+1)^080h,f
  5705  0DC3  02A3               	subwf	(___lwdiv@dividend+1)^080h,f
  5706                           	line	20
  5707                           	
  5708  0DC4                     l10055:	
  5709  0DC4  1425               	bsf	(___lwdiv@quotient)^080h+(0/8),(0)&7
  5710  0DC5  2DC6               	goto	l10057
  5711                           	line	21
  5712                           	
  5713  0DC6                     l7832:	
  5714                           	line	22
  5715                           	
  5716  0DC6                     l10057:	
  5717  0DC6  3001               	movlw	01h
  5718                           	
  5719  0DC7                     u3735:
  5720  0DC7  1003               	clrc
  5721  0DC8  0CA1               	rrf	(___lwdiv@divisor+1)^080h,f
  5722  0DC9  0CA0               	rrf	(___lwdiv@divisor)^080h,f
  5723  0DCA  3EFF               	addlw	-1
  5724  0DCB  1D03               	skipz
  5725  0DCC  2DC7               	goto	u3735
  5726                           	line	23
  5727                           	
  5728  0DCD                     l10059:	
  5729  0DCD  3001               	movlw	low(01h)
  5730  0DCE  02A7               	subwf	(___lwdiv@counter)^080h,f
  5731  0DCF  1D03               	btfss	status,2
  5732  0DD0  2DD2               	goto	u3741
  5733  0DD1  2DD3               	goto	u3740
  5734  0DD2                     u3741:
  5735  0DD2  2DAD               	goto	l10051
  5736  0DD3                     u3740:
  5737  0DD3  2DD5               	goto	l10061
  5738                           	
  5739  0DD4                     l7833:	
  5740  0DD4  2DD5               	goto	l10061
  5741                           	line	24
  5742                           	
  5743  0DD5                     l7827:	
  5744                           	line	25
  5745                           	
  5746  0DD5                     l10061:	
  5747  0DD5  0826               	movf	(___lwdiv@quotient+1)^080h,w
  5748  0DD6  01A1               	clrf	(?___lwdiv+1)^080h
  5749  0DD7  07A1               	addwf	(?___lwdiv+1)^080h
  5750  0DD8  0825               	movf	(___lwdiv@quotient)^080h,w
  5751  0DD9  01A0               	clrf	(?___lwdiv)^080h
  5752  0DDA  07A0               	addwf	(?___lwdiv)^080h
  5753                           
  5754  0DDB  2DDC               	goto	l7834
  5755                           	
  5756  0DDC                     l10063:	
  5757                           	line	26
  5758                           	
  5759  0DDC                     l7834:	
  5760  0DDC  0008               	return
  5761                           	opt stack 0
  5762                           GLOBAL	__end_of___lwdiv
  5763  0DDD                     	__end_of___lwdiv:
  5764 ;; =============== function ___lwdiv ends ============
  5765                           
  5766                           	signat	___lwdiv,8314
  5767                           	global	___wmul
  5768                           psect	text913,local,class=CODE,delta=2
  5769                           global __ptext913
  5770  0B38                     __ptext913:
  5771                           
  5772 ;; *************** function ___wmul *****************
  5773 ;; Defined at:
  5774 ;;		line 3 in file "C:\Program Files (x86)\HI-TECH Software\PICC\9.82\sources\wmul.c"
  5775 ;; Parameters:    Size  Location     Type
  5776 ;;  multiplier      2    0[BANK1 ] unsigned int 
  5777 ;;  multiplicand    2    2[BANK1 ] unsigned int 
  5778 ;; Auto vars:     Size  Location     Type
  5779 ;;  product         2    4[BANK1 ] unsigned int 
  5780 ;; Return value:  Size  Location     Type
  5781 ;;                  2    0[BANK1 ] unsigned int 
  5782 ;; Registers used:
  5783 ;;		wreg, status,2, status,0
  5784 ;; Tracked objects:
  5785 ;;		On entry : 0/0
  5786 ;;		On exit  : 0/0
  5787 ;;		Unchanged: 0/0
  5788 ;; Data sizes:     COMMON   BANK0   BANK1   BANK3   BANK2
  5789 ;;      Params:         0       0       4       0       0
  5790 ;;      Locals:         0       0       2       0       0
  5791 ;;      Temps:          0       0       0       0       0
  5792 ;;      Totals:         0       0       6       0       0
  5793 ;;Total ram usage:        6 bytes
  5794 ;; Hardware stack levels used:    1
  5795 ;; Hardware stack levels required when called:    4
  5796 ;; This function calls:
  5797 ;;		Nothing
  5798 ;; This function is called by:
  5799 ;;		_PWM1_SetDutyCycle
  5800 ;;		_PWM2_SetDutyCycle
  5801 ;; This function uses a non-reentrant model
  5802 ;;
  5803                           psect	text913
  5804                           	file	"C:\Program Files (x86)\HI-TECH Software\PICC\9.82\sources\wmul.c"
  5805                           	line	3
  5806                           	global	__size_of___wmul
  5807  002C                     	__size_of___wmul	equ	__end_of___wmul-___wmul
  5808                           	
  5809  0B38                     ___wmul:	
  5810 ;; hardware stack exceeded
  5811                           	opt	stack 0
  5812                           ; Regs used in ___wmul: [wreg+status,2+status,0]
  5813                           	line	4
  5814                           	
  5815  0B38                     l10027:	
  5816  0B38  1683               	bsf	status, 5	;RP0=1, select bank1
  5817  0B39  1303               	bcf	status, 6	;RP1=0, select bank1
  5818  0B3A  01A4               	clrf	(___wmul@product)^080h
  5819  0B3B  01A5               	clrf	(___wmul@product+1)^080h
  5820  0B3C  2B3D               	goto	l10029
  5821                           	line	6
  5822                           	
  5823  0B3D                     l7821:	
  5824                           	line	7
  5825                           	
  5826  0B3D                     l10029:	
  5827  0B3D  1C20               	btfss	(___wmul@multiplier)^080h,(0)&7
  5828  0B3E  2B40               	goto	u3641
  5829  0B3F  2B41               	goto	u3640
  5830  0B40                     u3641:
  5831  0B40  2B47               	goto	l7822
  5832  0B41                     u3640:
  5833                           	line	8
  5834                           	
  5835  0B41                     l10031:	
  5836  0B41  0822               	movf	(___wmul@multiplicand)^080h,w
  5837  0B42  07A4               	addwf	(___wmul@product)^080h,f
  5838  0B43  1803               	skipnc
  5839  0B44  0AA5               	incf	(___wmul@product+1)^080h,f
  5840  0B45  0823               	movf	(___wmul@multiplicand+1)^080h,w
  5841  0B46  07A5               	addwf	(___wmul@product+1)^080h,f
  5842                           	
  5843  0B47                     l7822:	
  5844                           	line	9
  5845  0B47  3001               	movlw	01h
  5846                           	
  5847  0B48                     u3655:
  5848  0B48  1003               	clrc
  5849  0B49  0DA2               	rlf	(___wmul@multiplicand)^080h,f
  5850  0B4A  0DA3               	rlf	(___wmul@multiplicand+1)^080h,f
  5851  0B4B  3EFF               	addlw	-1
  5852  0B4C  1D03               	skipz
  5853  0B4D  2B48               	goto	u3655
  5854                           	line	10
  5855                           	
  5856  0B4E                     l10033:	
  5857  0B4E  3001               	movlw	01h
  5858                           	
  5859  0B4F                     u3665:
  5860  0B4F  1003               	clrc
  5861  0B50  0CA1               	rrf	(___wmul@multiplier+1)^080h,f
  5862  0B51  0CA0               	rrf	(___wmul@multiplier)^080h,f
  5863  0B52  3EFF               	addlw	-1
  5864  0B53  1D03               	skipz
  5865  0B54  2B4F               	goto	u3665
  5866                           	line	11
  5867  0B55  0821               	movf	((___wmul@multiplier+1)^080h),w
  5868  0B56  0420               	iorwf	((___wmul@multiplier)^080h),w
  5869  0B57  1D03               	skipz
  5870  0B58  2B5A               	goto	u3671
  5871  0B59  2B5B               	goto	u3670
  5872  0B5A                     u3671:
  5873  0B5A  2B3D               	goto	l10029
  5874  0B5B                     u3670:
  5875  0B5B  2B5C               	goto	l10035
  5876                           	
  5877  0B5C                     l7823:	
  5878                           	line	12
  5879                           	
  5880  0B5C                     l10035:	
  5881  0B5C  0825               	movf	(___wmul@product+1)^080h,w
  5882  0B5D  01A1               	clrf	(?___wmul+1)^080h
  5883  0B5E  07A1               	addwf	(?___wmul+1)^080h
  5884  0B5F  0824               	movf	(___wmul@product)^080h,w
  5885  0B60  01A0               	clrf	(?___wmul)^080h
  5886  0B61  07A0               	addwf	(?___wmul)^080h
  5887                           
  5888  0B62  2B63               	goto	l7824
  5889                           	
  5890  0B63                     l10037:	
  5891                           	line	13
  5892                           	
  5893  0B63                     l7824:	
  5894  0B63  0008               	return
  5895                           	opt stack 0
  5896                           GLOBAL	__end_of___wmul
  5897  0B64                     	__end_of___wmul:
  5898 ;; =============== function ___wmul ends ============
  5899                           
  5900                           	signat	___wmul,8314
  5901                           	global	_HD_Read
  5902                           psect	text914,local,class=CODE,delta=2
  5903                           global __ptext914
  5904  0F7F                     __ptext914:
  5905                           
  5906 ;; *************** function _HD_Read *****************
  5907 ;; Defined at:
  5908 ;;		line 20 in file "E:\MPLAB_IDE\pic16f877a_car\PIC16F877A_CAR\track.c"
  5909 ;; Parameters:    Size  Location     Type
  5910 ;;		None
  5911 ;; Auto vars:     Size  Location     Type
  5912 ;;		None
  5913 ;; Return value:  Size  Location     Type
  5914 ;;		None               void
  5915 ;; Registers used:
  5916 ;;		status,2, status,0
  5917 ;; Tracked objects:
  5918 ;;		On entry : 0/0
  5919 ;;		On exit  : 0/0
  5920 ;;		Unchanged: 0/0
  5921 ;; Data sizes:     COMMON   BANK0   BANK1   BANK3   BANK2
  5922 ;;      Params:         0       0       0       0       0
  5923 ;;      Locals:         0       0       0       0       0
  5924 ;;      Temps:          0       0       0       0       0
  5925 ;;      Totals:         0       0       0       0       0
  5926 ;;Total ram usage:        0 bytes
  5927 ;; Hardware stack levels used:    1
  5928 ;; Hardware stack levels required when called:    4
  5929 ;; This function calls:
  5930 ;;		Nothing
  5931 ;; This function is called by:
  5932 ;;		_Track_Run
  5933 ;; This function uses a non-reentrant model
  5934 ;;
  5935                           psect	text914
  5936                           	file	"E:\MPLAB_IDE\pic16f877a_car\PIC16F877A_CAR\track.c"
  5937                           	line	20
  5938                           	global	__size_of_HD_Read
  5939  0081                     	__size_of_HD_Read	equ	__end_of_HD_Read-_HD_Read
  5940                           	
  5941  0F7F                     _HD_Read:	
  5942                           	opt	stack 1
  5943                           ; Regs used in _HD_Read: [status]
  5944                           	line	21
  5945                           	
  5946  0F7F                     l9979:	
  5947                           ;track.c: 21: if(RB0==0){HD[0]=0;}else{HD[0]=1;}
  5948  0F7F  1283               	bcf	status, 5	;RP0=0, select bank0
  5949  0F80  1303               	bcf	status, 6	;RP1=0, select bank0
  5950  0F81  1806               	btfsc	(48/8),(48)&7
  5951  0F82  2F84               	goto	u3561
  5952  0F83  2F85               	goto	u3560
  5953  0F84                     u3561:
  5954  0F84  2F89               	goto	l9983
  5955  0F85                     u3560:
  5956                           	
  5957  0F85                     l9981:	
  5958  0F85  1683               	bsf	status, 5	;RP0=1, select bank1
  5959  0F86  1303               	bcf	status, 6	;RP1=0, select bank1
  5960  0F87  01CB               	clrf	(_HD)^080h
  5961  0F88  2F8F               	goto	l9985
  5962                           	
  5963  0F89                     l7028:	
  5964                           	
  5965  0F89                     l9983:	
  5966  0F89  1683               	bsf	status, 5	;RP0=1, select bank1
  5967  0F8A  1303               	bcf	status, 6	;RP1=0, select bank1
  5968  0F8B  01CB               	clrf	(_HD)^080h
  5969  0F8C  1403               	bsf	status,0
  5970  0F8D  0DCB               	rlf	(_HD)^080h,f
  5971  0F8E  2F8F               	goto	l9985
  5972                           	
  5973  0F8F                     l7029:	
  5974                           	line	22
  5975                           	
  5976  0F8F                     l9985:	
  5977                           ;track.c: 22: if(RB1==0){HD[1]=0;}else{HD[1]=1;}
  5978  0F8F  1283               	bcf	status, 5	;RP0=0, select bank0
  5979  0F90  1303               	bcf	status, 6	;RP1=0, select bank0
  5980  0F91  1886               	btfsc	(49/8),(49)&7
  5981  0F92  2F94               	goto	u3571
  5982  0F93  2F95               	goto	u3570
  5983  0F94                     u3571:
  5984  0F94  2F99               	goto	l9989
  5985  0F95                     u3570:
  5986                           	
  5987  0F95                     l9987:	
  5988  0F95  1683               	bsf	status, 5	;RP0=1, select bank1
  5989  0F96  1303               	bcf	status, 6	;RP1=0, select bank1
  5990  0F97  01CC               	clrf	0+(_HD)^080h+01h
  5991  0F98  2F9F               	goto	l9991
  5992                           	
  5993  0F99                     l7030:	
  5994                           	
  5995  0F99                     l9989:	
  5996  0F99  1683               	bsf	status, 5	;RP0=1, select bank1
  5997  0F9A  1303               	bcf	status, 6	;RP1=0, select bank1
  5998  0F9B  01CC               	clrf	0+(_HD)^080h+01h
  5999  0F9C  1403               	bsf	status,0
  6000  0F9D  0DCC               	rlf	0+(_HD)^080h+01h,f
  6001  0F9E  2F9F               	goto	l9991
  6002                           	
  6003  0F9F                     l7031:	
  6004                           	line	23
  6005                           	
  6006  0F9F                     l9991:	
  6007                           ;track.c: 23: if(RB2==0){HD[2]=0;}else{HD[2]=1;}
  6008  0F9F  1283               	bcf	status, 5	;RP0=0, select bank0
  6009  0FA0  1303               	bcf	status, 6	;RP1=0, select bank0
  6010  0FA1  1906               	btfsc	(50/8),(50)&7
  6011  0FA2  2FA4               	goto	u3581
  6012  0FA3  2FA5               	goto	u3580
  6013  0FA4                     u3581:
  6014  0FA4  2FA9               	goto	l9995
  6015  0FA5                     u3580:
  6016                           	
  6017  0FA5                     l9993:	
  6018  0FA5  1683               	bsf	status, 5	;RP0=1, select bank1
  6019  0FA6  1303               	bcf	status, 6	;RP1=0, select bank1
  6020  0FA7  01CD               	clrf	0+(_HD)^080h+02h
  6021  0FA8  2FAF               	goto	l9997
  6022                           	
  6023  0FA9                     l7032:	
  6024                           	
  6025  0FA9                     l9995:	
  6026  0FA9  1683               	bsf	status, 5	;RP0=1, select bank1
  6027  0FAA  1303               	bcf	status, 6	;RP1=0, select bank1
  6028  0FAB  01CD               	clrf	0+(_HD)^080h+02h
  6029  0FAC  1403               	bsf	status,0
  6030  0FAD  0DCD               	rlf	0+(_HD)^080h+02h,f
  6031  0FAE  2FAF               	goto	l9997
  6032                           	
  6033  0FAF                     l7033:	
  6034                           	line	24
  6035                           	
  6036  0FAF                     l9997:	
  6037                           ;track.c: 24: if(RB3==0){HD[3]=0;}else{HD[3]=1;}
  6038  0FAF  1283               	bcf	status, 5	;RP0=0, select bank0
  6039  0FB0  1303               	bcf	status, 6	;RP1=0, select bank0
  6040  0FB1  1986               	btfsc	(51/8),(51)&7
  6041  0FB2  2FB4               	goto	u3591
  6042  0FB3  2FB5               	goto	u3590
  6043  0FB4                     u3591:
  6044  0FB4  2FB9               	goto	l10001
  6045  0FB5                     u3590:
  6046                           	
  6047  0FB5                     l9999:	
  6048  0FB5  1683               	bsf	status, 5	;RP0=1, select bank1
  6049  0FB6  1303               	bcf	status, 6	;RP1=0, select bank1
  6050  0FB7  01CE               	clrf	0+(_HD)^080h+03h
  6051  0FB8  2FBF               	goto	l10003
  6052                           	
  6053  0FB9                     l7034:	
  6054                           	
  6055  0FB9                     l10001:	
  6056  0FB9  1683               	bsf	status, 5	;RP0=1, select bank1
  6057  0FBA  1303               	bcf	status, 6	;RP1=0, select bank1
  6058  0FBB  01CE               	clrf	0+(_HD)^080h+03h
  6059  0FBC  1403               	bsf	status,0
  6060  0FBD  0DCE               	rlf	0+(_HD)^080h+03h,f
  6061  0FBE  2FBF               	goto	l10003
  6062                           	
  6063  0FBF                     l7035:	
  6064                           	line	25
  6065                           	
  6066  0FBF                     l10003:	
  6067                           ;track.c: 25: if(RB4==0){HD[4]=0;}else{HD[4]=1;}
  6068  0FBF  1283               	bcf	status, 5	;RP0=0, select bank0
  6069  0FC0  1303               	bcf	status, 6	;RP1=0, select bank0
  6070  0FC1  1A06               	btfsc	(52/8),(52)&7
  6071  0FC2  2FC4               	goto	u3601
  6072  0FC3  2FC5               	goto	u3600
  6073  0FC4                     u3601:
  6074  0FC4  2FC9               	goto	l10007
  6075  0FC5                     u3600:
  6076                           	
  6077  0FC5                     l10005:	
  6078  0FC5  1683               	bsf	status, 5	;RP0=1, select bank1
  6079  0FC6  1303               	bcf	status, 6	;RP1=0, select bank1
  6080  0FC7  01CF               	clrf	0+(_HD)^080h+04h
  6081  0FC8  2FCF               	goto	l10009
  6082                           	
  6083  0FC9                     l7036:	
  6084                           	
  6085  0FC9                     l10007:	
  6086  0FC9  1683               	bsf	status, 5	;RP0=1, select bank1
  6087  0FCA  1303               	bcf	status, 6	;RP1=0, select bank1
  6088  0FCB  01CF               	clrf	0+(_HD)^080h+04h
  6089  0FCC  1403               	bsf	status,0
  6090  0FCD  0DCF               	rlf	0+(_HD)^080h+04h,f
  6091  0FCE  2FCF               	goto	l10009
  6092                           	
  6093  0FCF                     l7037:	
  6094                           	line	26
  6095                           	
  6096  0FCF                     l10009:	
  6097                           ;track.c: 26: if(RB5==0){HD[5]=0;}else{HD[5]=1;}
  6098  0FCF  1283               	bcf	status, 5	;RP0=0, select bank0
  6099  0FD0  1303               	bcf	status, 6	;RP1=0, select bank0
  6100  0FD1  1A86               	btfsc	(53/8),(53)&7
  6101  0FD2  2FD4               	goto	u3611
  6102  0FD3  2FD5               	goto	u3610
  6103  0FD4                     u3611:
  6104  0FD4  2FD9               	goto	l10013
  6105  0FD5                     u3610:
  6106                           	
  6107  0FD5                     l10011:	
  6108  0FD5  1683               	bsf	status, 5	;RP0=1, select bank1
  6109  0FD6  1303               	bcf	status, 6	;RP1=0, select bank1
  6110  0FD7  01D0               	clrf	0+(_HD)^080h+05h
  6111  0FD8  2FDF               	goto	l10015
  6112                           	
  6113  0FD9                     l7038:	
  6114                           	
  6115  0FD9                     l10013:	
  6116  0FD9  1683               	bsf	status, 5	;RP0=1, select bank1
  6117  0FDA  1303               	bcf	status, 6	;RP1=0, select bank1
  6118  0FDB  01D0               	clrf	0+(_HD)^080h+05h
  6119  0FDC  1403               	bsf	status,0
  6120  0FDD  0DD0               	rlf	0+(_HD)^080h+05h,f
  6121  0FDE  2FDF               	goto	l10015
  6122                           	
  6123  0FDF                     l7039:	
  6124                           	line	27
  6125                           	
  6126  0FDF                     l10015:	
  6127                           ;track.c: 27: if(RB6==0){HD[6]=0;}else{HD[6]=1;}
  6128  0FDF  1283               	bcf	status, 5	;RP0=0, select bank0
  6129  0FE0  1303               	bcf	status, 6	;RP1=0, select bank0
  6130  0FE1  1B06               	btfsc	(54/8),(54)&7
  6131  0FE2  2FE4               	goto	u3621
  6132  0FE3  2FE5               	goto	u3620
  6133  0FE4                     u3621:
  6134  0FE4  2FE9               	goto	l10019
  6135  0FE5                     u3620:
  6136                           	
  6137  0FE5                     l10017:	
  6138  0FE5  1683               	bsf	status, 5	;RP0=1, select bank1
  6139  0FE6  1303               	bcf	status, 6	;RP1=0, select bank1
  6140  0FE7  01D1               	clrf	0+(_HD)^080h+06h
  6141  0FE8  2FEF               	goto	l10021
  6142                           	
  6143  0FE9                     l7040:	
  6144                           	
  6145  0FE9                     l10019:	
  6146  0FE9  1683               	bsf	status, 5	;RP0=1, select bank1
  6147  0FEA  1303               	bcf	status, 6	;RP1=0, select bank1
  6148  0FEB  01D1               	clrf	0+(_HD)^080h+06h
  6149  0FEC  1403               	bsf	status,0
  6150  0FED  0DD1               	rlf	0+(_HD)^080h+06h,f
  6151  0FEE  2FEF               	goto	l10021
  6152                           	
  6153  0FEF                     l7041:	
  6154                           	line	28
  6155                           	
  6156  0FEF                     l10021:	
  6157                           ;track.c: 28: if(RB7==0){HD[7]=0;}else{HD[7]=1;}
  6158  0FEF  1283               	bcf	status, 5	;RP0=0, select bank0
  6159  0FF0  1303               	bcf	status, 6	;RP1=0, select bank0
  6160  0FF1  1B86               	btfsc	(55/8),(55)&7
  6161  0FF2  2FF4               	goto	u3631
  6162  0FF3  2FF5               	goto	u3630
  6163  0FF4                     u3631:
  6164  0FF4  2FF9               	goto	l10025
  6165  0FF5                     u3630:
  6166                           	
  6167  0FF5                     l10023:	
  6168  0FF5  1683               	bsf	status, 5	;RP0=1, select bank1
  6169  0FF6  1303               	bcf	status, 6	;RP1=0, select bank1
  6170  0FF7  01D2               	clrf	0+(_HD)^080h+07h
  6171  0FF8  2FFF               	goto	l7044
  6172                           	
  6173  0FF9                     l7042:	
  6174                           	
  6175  0FF9                     l10025:	
  6176  0FF9  1683               	bsf	status, 5	;RP0=1, select bank1
  6177  0FFA  1303               	bcf	status, 6	;RP1=0, select bank1
  6178  0FFB  01D2               	clrf	0+(_HD)^080h+07h
  6179  0FFC  1403               	bsf	status,0
  6180  0FFD  0DD2               	rlf	0+(_HD)^080h+07h,f
  6181  0FFE  2FFF               	goto	l7044
  6182                           	
  6183  0FFF                     l7043:	
  6184                           	line	29
  6185                           	
  6186  0FFF                     l7044:	
  6187  0FFF  0008               	return
  6188                           	opt stack 0
  6189                           GLOBAL	__end_of_HD_Read
  6190  1000                     	__end_of_HD_Read:
  6191 ;; =============== function _HD_Read ends ============
  6192                           
  6193                           	signat	_HD_Read,88
  6194                           	global	_Delay_ms
  6195                           psect	text915,local,class=CODE,delta=2
  6196                           global __ptext915
  6197  0B64                     __ptext915:
  6198                           
  6199 ;; *************** function _Delay_ms *****************
  6200 ;; Defined at:
  6201 ;;		line 4 in file "E:\MPLAB_IDE\pic16f877a_car\PIC16F877A_CAR\delay.c"
  6202 ;; Parameters:    Size  Location     Type
  6203 ;;  delayMs         2    0[BANK1 ] unsigned int 
  6204 ;; Auto vars:     Size  Location     Type
  6205 ;;  i               2    3[BANK1 ] unsigned int 
  6206 ;;  j               1    5[BANK1 ] unsigned char 
  6207 ;; Return value:  Size  Location     Type
  6208 ;;		None               void
  6209 ;; Registers used:
  6210 ;;		wreg, status,2, status,0
  6211 ;; Tracked objects:
  6212 ;;		On entry : 0/0
  6213 ;;		On exit  : 0/0
  6214 ;;		Unchanged: 0/0
  6215 ;; Data sizes:     COMMON   BANK0   BANK1   BANK3   BANK2
  6216 ;;      Params:         0       0       2       0       0
  6217 ;;      Locals:         0       0       3       0       0
  6218 ;;      Temps:          0       0       1       0       0
  6219 ;;      Totals:         0       0       6       0       0
  6220 ;;Total ram usage:        6 bytes
  6221 ;; Hardware stack levels used:    1
  6222 ;; Hardware stack levels required when called:    4
  6223 ;; This function calls:
  6224 ;;		Nothing
  6225 ;; This function is called by:
  6226 ;;		_Track_Run
  6227 ;;		_point_status
  6228 ;;		_Track_THREE
  6229 ;; This function uses a non-reentrant model
  6230 ;;
  6231                           psect	text915
  6232                           	file	"E:\MPLAB_IDE\pic16f877a_car\PIC16F877A_CAR\delay.c"
  6233                           	line	4
  6234                           	global	__size_of_Delay_ms
  6235  002F                     	__size_of_Delay_ms	equ	__end_of_Delay_ms-_Delay_ms
  6236                           	
  6237  0B64                     _Delay_ms:	
  6238                           	opt	stack 1
  6239                           ; Regs used in _Delay_ms: [wreg+status,2+status,0]
  6240                           	line	8
  6241                           	
  6242  0B64                     l9957:	
  6243                           ;delay.c: 5: unsigned int i;
  6244                           ;delay.c: 6: unsigned char j;
  6245                           ;delay.c: 8: for (i =0; i< delayMs; i++)
  6246  0B64  1683               	bsf	status, 5	;RP0=1, select bank1
  6247  0B65  1303               	bcf	status, 6	;RP1=0, select bank1
  6248  0B66  01A3               	clrf	(Delay_ms@i)^080h
  6249  0B67  01A4               	clrf	(Delay_ms@i+1)^080h
  6250  0B68  2B87               	goto	l4889
  6251                           	line	9
  6252                           	
  6253  0B69                     l4890:	
  6254                           	line	10
  6255                           ;delay.c: 9: {
  6256                           ;delay.c: 10: for (j =0 ; j < 200; j++)
  6257  0B69  01A5               	clrf	(Delay_ms@j)^080h
  6258                           	
  6259  0B6A                     l9959:	
  6260  0B6A  30C8               	movlw	(0C8h)
  6261  0B6B  0225               	subwf	(Delay_ms@j)^080h,w
  6262  0B6C  1C03               	skipc
  6263  0B6D  2B6F               	goto	u3531
  6264  0B6E  2B70               	goto	u3530
  6265  0B6F                     u3531:
  6266  0B6F  2B72               	goto	l4891
  6267  0B70                     u3530:
  6268  0B70  2B81               	goto	l9967
  6269                           	
  6270  0B71                     l9961:	
  6271  0B71  2B81               	goto	l9967
  6272                           	line	11
  6273                           	
  6274  0B72                     l4891:	
  6275                           	line	12
  6276                           # 12 "E:\MPLAB_IDE\pic16f877a_car\PIC16F877A_CAR\delay.c"
  6277  0B72  0000               NOP ;#
  6278                           	line	13
  6279                           # 13 "E:\MPLAB_IDE\pic16f877a_car\PIC16F877A_CAR\delay.c"
  6280  0B73  0000               NOP ;#
  6281                           psect	text915
  6282                           	line	10
  6283                           	
  6284  0B74                     l9963:	
  6285  0B74  3001               	movlw	(01h)
  6286  0B75  1683               	bsf	status, 5	;RP0=1, select bank1
  6287  0B76  1303               	bcf	status, 6	;RP1=0, select bank1
  6288  0B77  00A2               	movwf	(??_Delay_ms+0)^080h+0
  6289  0B78  0822               	movf	(??_Delay_ms+0)^080h+0,w
  6290  0B79  07A5               	addwf	(Delay_ms@j)^080h,f
  6291                           	
  6292  0B7A                     l9965:	
  6293  0B7A  30C8               	movlw	(0C8h)
  6294  0B7B  0225               	subwf	(Delay_ms@j)^080h,w
  6295  0B7C  1C03               	skipc
  6296  0B7D  2B7F               	goto	u3541
  6297  0B7E  2B80               	goto	u3540
  6298  0B7F                     u3541:
  6299  0B7F  2B72               	goto	l4891
  6300  0B80                     u3540:
  6301  0B80  2B81               	goto	l9967
  6302                           	
  6303  0B81                     l4892:	
  6304                           	line	8
  6305                           	
  6306  0B81                     l9967:	
  6307  0B81  3001               	movlw	low(01h)
  6308  0B82  07A3               	addwf	(Delay_ms@i)^080h,f
  6309  0B83  1803               	skipnc
  6310  0B84  0AA4               	incf	(Delay_ms@i+1)^080h,f
  6311  0B85  3000               	movlw	high(01h)
  6312  0B86  07A4               	addwf	(Delay_ms@i+1)^080h,f
  6313                           	
  6314  0B87                     l4889:	
  6315  0B87  0821               	movf	(Delay_ms@delayMs+1)^080h,w
  6316  0B88  0224               	subwf	(Delay_ms@i+1)^080h,w
  6317  0B89  1D03               	skipz
  6318  0B8A  2B8D               	goto	u3555
  6319  0B8B  0820               	movf	(Delay_ms@delayMs)^080h,w
  6320  0B8C  0223               	subwf	(Delay_ms@i)^080h,w
  6321  0B8D                     u3555:
  6322  0B8D  1C03               	skipc
  6323  0B8E  2B90               	goto	u3551
  6324  0B8F  2B91               	goto	u3550
  6325  0B90                     u3551:
  6326  0B90  2B69               	goto	l4890
  6327  0B91                     u3550:
  6328  0B91  2B92               	goto	l4894
  6329                           	
  6330  0B92                     l4893:	
  6331                           	line	16
  6332                           	
  6333  0B92                     l4894:	
  6334  0B92  0008               	return
  6335                           	opt stack 0
  6336                           GLOBAL	__end_of_Delay_ms
  6337  0B93                     	__end_of_Delay_ms:
  6338 ;; =============== function _Delay_ms ends ============
  6339                           
  6340                           	signat	_Delay_ms,4216
  6341                           	global	_PWM_Init
  6342                           psect	text916,local,class=CODE,delta=2
  6343                           global __ptext916
  6344  07E7                     __ptext916:
  6345                           
  6346 ;; *************** function _PWM_Init *****************
  6347 ;; Defined at:
  6348 ;;		line 4 in file "E:\MPLAB_IDE\pic16f877a_car\PIC16F877A_CAR\PWM.c"
  6349 ;; Parameters:    Size  Location     Type
  6350 ;;		None
  6351 ;; Auto vars:     Size  Location     Type
  6352 ;;		None
  6353 ;; Return value:  Size  Location     Type
  6354 ;;		None               void
  6355 ;; Registers used:
  6356 ;;		wreg, status,2
  6357 ;; Tracked objects:
  6358 ;;		On entry : 0/0
  6359 ;;		On exit  : 0/0
  6360 ;;		Unchanged: 0/0
  6361 ;; Data sizes:     COMMON   BANK0   BANK1   BANK3   BANK2
  6362 ;;      Params:         0       0       0       0       0
  6363 ;;      Locals:         0       0       0       0       0
  6364 ;;      Temps:          0       0       0       0       0
  6365 ;;      Totals:         0       0       0       0       0
  6366 ;;Total ram usage:        0 bytes
  6367 ;; Hardware stack levels used:    1
  6368 ;; Hardware stack levels required when called:    4
  6369 ;; This function calls:
  6370 ;;		Nothing
  6371 ;; This function is called by:
  6372 ;;		_Motor_Init
  6373 ;; This function uses a non-reentrant model
  6374 ;;
  6375                           psect	text916
  6376                           	file	"E:\MPLAB_IDE\pic16f877a_car\PIC16F877A_CAR\PWM.c"
  6377                           	line	4
  6378                           	global	__size_of_PWM_Init
  6379  0019                     	__size_of_PWM_Init	equ	__end_of_PWM_Init-_PWM_Init
  6380                           	
  6381  07E7                     _PWM_Init:	
  6382                           	opt	stack 2
  6383                           ; Regs used in _PWM_Init: [wreg+status,2]
  6384                           	line	6
  6385                           	
  6386  07E7                     l9941:	
  6387                           ;PWM.c: 6: TRISC2 = 0;
  6388  07E7  1683               	bsf	status, 5	;RP0=1, select bank1
  6389  07E8  1303               	bcf	status, 6	;RP1=0, select bank1
  6390  07E9  1107               	bcf	(1082/8)^080h,(1082)&7
  6391                           	line	7
  6392                           ;PWM.c: 7: RC2 = 0;
  6393  07EA  1283               	bcf	status, 5	;RP0=0, select bank0
  6394  07EB  1303               	bcf	status, 6	;RP1=0, select bank0
  6395  07EC  1107               	bcf	(58/8),(58)&7
  6396                           	line	8
  6397                           	
  6398  07ED                     l9943:	
  6399                           ;PWM.c: 8: CCP1CON = 0X0C;
  6400  07ED  300C               	movlw	(0Ch)
  6401  07EE  0097               	movwf	(23)	;volatile
  6402                           	line	9
  6403                           	
  6404  07EF                     l9945:	
  6405                           ;PWM.c: 9: CCPR1L = 0x00;
  6406  07EF  0195               	clrf	(21)	;volatile
  6407                           	line	12
  6408                           	
  6409  07F0                     l9947:	
  6410                           ;PWM.c: 12: TRISC1 = 0;
  6411  07F0  1683               	bsf	status, 5	;RP0=1, select bank1
  6412  07F1  1303               	bcf	status, 6	;RP1=0, select bank1
  6413  07F2  1087               	bcf	(1081/8)^080h,(1081)&7
  6414                           	line	13
  6415                           	
  6416  07F3                     l9949:	
  6417                           ;PWM.c: 13: RC1 = 0;
  6418  07F3  1283               	bcf	status, 5	;RP0=0, select bank0
  6419  07F4  1303               	bcf	status, 6	;RP1=0, select bank0
  6420  07F5  1087               	bcf	(57/8),(57)&7
  6421                           	line	14
  6422                           	
  6423  07F6                     l9951:	
  6424                           ;PWM.c: 14: CCP2CON = 0x0C;
  6425  07F6  300C               	movlw	(0Ch)
  6426  07F7  009D               	movwf	(29)	;volatile
  6427                           	line	15
  6428                           ;PWM.c: 15: CCPR2L = 0x00;
  6429  07F8  019B               	clrf	(27)	;volatile
  6430                           	line	19
  6431                           	
  6432  07F9                     l9953:	
  6433                           ;PWM.c: 19: T2CON = 0x04;
  6434  07F9  3004               	movlw	(04h)
  6435  07FA  0092               	movwf	(18)	;volatile
  6436                           	line	20
  6437                           	
  6438  07FB                     l9955:	
  6439                           ;PWM.c: 20: PR2 = 0xFF;
  6440  07FB  30FF               	movlw	(0FFh)
  6441  07FC  1683               	bsf	status, 5	;RP0=1, select bank1
  6442  07FD  1303               	bcf	status, 6	;RP1=0, select bank1
  6443  07FE  0092               	movwf	(146)^080h	;volatile
  6444                           	line	21
  6445                           	
  6446  07FF                     l4196:	
  6447  07FF  0008               	return
  6448                           	opt stack 0
  6449                           GLOBAL	__end_of_PWM_Init
  6450  0800                     	__end_of_PWM_Init:
  6451 ;; =============== function _PWM_Init ends ============
  6452                           
  6453                           	signat	_PWM_Init,88
  6454                           	global	_GanWei_Init
  6455                           psect	text917,local,class=CODE,delta=2
  6456                           global __ptext917
  6457  0A2F                     __ptext917:
  6458                           
  6459 ;; *************** function _GanWei_Init *****************
  6460 ;; Defined at:
  6461 ;;		line 15 in file "E:\MPLAB_IDE\pic16f877a_car\PIC16F877A_CAR\track.c"
  6462 ;; Parameters:    Size  Location     Type
  6463 ;;		None
  6464 ;; Auto vars:     Size  Location     Type
  6465 ;;		None
  6466 ;; Return value:  Size  Location     Type
  6467 ;;		None               void
  6468 ;; Registers used:
  6469 ;;		wreg
  6470 ;; Tracked objects:
  6471 ;;		On entry : 0/0
  6472 ;;		On exit  : 0/0
  6473 ;;		Unchanged: 0/0
  6474 ;; Data sizes:     COMMON   BANK0   BANK1   BANK3   BANK2
  6475 ;;      Params:         0       0       0       0       0
  6476 ;;      Locals:         0       0       0       0       0
  6477 ;;      Temps:          0       0       0       0       0
  6478 ;;      Totals:         0       0       0       0       0
  6479 ;;Total ram usage:        0 bytes
  6480 ;; Hardware stack levels used:    1
  6481 ;; Hardware stack levels required when called:    4
  6482 ;; This function calls:
  6483 ;;		Nothing
  6484 ;; This function is called by:
  6485 ;;		_main
  6486 ;; This function uses a non-reentrant model
  6487 ;;
  6488                           psect	text917
  6489                           	file	"E:\MPLAB_IDE\pic16f877a_car\PIC16F877A_CAR\track.c"
  6490                           	line	15
  6491                           	global	__size_of_GanWei_Init
  6492  0006                     	__size_of_GanWei_Init	equ	__end_of_GanWei_Init-_GanWei_Init
  6493                           	
  6494  0A2F                     _GanWei_Init:	
  6495                           	opt	stack 3
  6496                           ; Regs used in _GanWei_Init: [wreg]
  6497                           	line	16
  6498                           	
  6499  0A2F                     l9937:	
  6500                           ;track.c: 16: TRISB = 0xFF;
  6501  0A2F  30FF               	movlw	(0FFh)
  6502  0A30  1683               	bsf	status, 5	;RP0=1, select bank1
  6503  0A31  1303               	bcf	status, 6	;RP1=0, select bank1
  6504  0A32  0086               	movwf	(134)^080h	;volatile
  6505                           	line	17
  6506                           	
  6507  0A33                     l9939:	
  6508                           ;track.c: 17: nRBPU = 0;
  6509  0A33  1381               	bcf	(1039/8)^080h,(1039)&7
  6510                           	line	18
  6511                           	
  6512  0A34                     l7025:	
  6513  0A34  0008               	return
  6514                           	opt stack 0
  6515                           GLOBAL	__end_of_GanWei_Init
  6516  0A35                     	__end_of_GanWei_Init:
  6517 ;; =============== function _GanWei_Init ends ============
  6518                           
  6519                           	signat	_GanWei_Init,88
  6520                           	global	_DELAY
  6521                           psect	text918,local,class=CODE,delta=2
  6522                           global __ptext918
  6523  0ACC                     __ptext918:
  6524                           
  6525 ;; *************** function _DELAY *****************
  6526 ;; Defined at:
  6527 ;;		line 4 in file "E:\MPLAB_IDE\pic16f877a_car\PIC16F877A_CAR\LCD.c"
  6528 ;; Parameters:    Size  Location     Type
  6529 ;;		None
  6530 ;; Auto vars:     Size  Location     Type
  6531 ;;  i               2    0[BANK1 ] unsigned int 
  6532 ;; Return value:  Size  Location     Type
  6533 ;;		None               void
  6534 ;; Registers used:
  6535 ;;		wreg, status,2, status,0
  6536 ;; Tracked objects:
  6537 ;;		On entry : 0/0
  6538 ;;		On exit  : 0/0
  6539 ;;		Unchanged: 0/0
  6540 ;; Data sizes:     COMMON   BANK0   BANK1   BANK3   BANK2
  6541 ;;      Params:         0       0       0       0       0
  6542 ;;      Locals:         0       0       2       0       0
  6543 ;;      Temps:          0       0       0       0       0
  6544 ;;      Totals:         0       0       2       0       0
  6545 ;;Total ram usage:        2 bytes
  6546 ;; Hardware stack levels used:    1
  6547 ;; Hardware stack levels required when called:    4
  6548 ;; This function calls:
  6549 ;;		Nothing
  6550 ;; This function is called by:
  6551 ;;		_JY62_ShowData
  6552 ;;		_ENABLE
  6553 ;;		_ENABLE1
  6554 ;;		_LCD_Init
  6555 ;;		_LCD_ShowString
  6556 ;;		_LCD_Clear
  6557 ;; This function uses a non-reentrant model
  6558 ;;
  6559                           psect	text918
  6560                           	file	"E:\MPLAB_IDE\pic16f877a_car\PIC16F877A_CAR\LCD.c"
  6561                           	line	4
  6562                           	global	__size_of_DELAY
  6563  001C                     	__size_of_DELAY	equ	__end_of_DELAY-_DELAY
  6564                           	
  6565  0ACC                     _DELAY:	
  6566                           	opt	stack 2
  6567                           ; Regs used in _DELAY: [wreg+status,2+status,0]
  6568                           	line	6
  6569                           	
  6570  0ACC                     l9921:	
  6571                           ;LCD.c: 5: unsigned int i;
  6572                           ;LCD.c: 6: for (i = 999; i > 0; i--);
  6573  0ACC  30E7               	movlw	low(03E7h)
  6574  0ACD  1683               	bsf	status, 5	;RP0=1, select bank1
  6575  0ACE  1303               	bcf	status, 6	;RP1=0, select bank1
  6576  0ACF  00A0               	movwf	(DELAY@i)^080h
  6577  0AD0  3003               	movlw	high(03E7h)
  6578  0AD1  00A1               	movwf	((DELAY@i)^080h)+1
  6579                           	
  6580  0AD2                     l9923:	
  6581  0AD2  0821               	movf	((DELAY@i+1)^080h),w
  6582  0AD3  0420               	iorwf	((DELAY@i)^080h),w
  6583  0AD4  1D03               	skipz
  6584  0AD5  2AD7               	goto	u3511
  6585  0AD6  2AD8               	goto	u3510
  6586  0AD7                     u3511:
  6587  0AD7  2ADA               	goto	l9927
  6588  0AD8                     u3510:
  6589  0AD8  2AE7               	goto	l2096
  6590                           	
  6591  0AD9                     l9925:	
  6592  0AD9  2AE7               	goto	l2096
  6593                           	
  6594  0ADA                     l2094:	
  6595                           	
  6596  0ADA                     l9927:	
  6597  0ADA  3001               	movlw	low(01h)
  6598  0ADB  02A0               	subwf	(DELAY@i)^080h,f
  6599  0ADC  3000               	movlw	high(01h)
  6600  0ADD  1C03               	skipc
  6601  0ADE  03A1               	decf	(DELAY@i+1)^080h,f
  6602  0ADF  02A1               	subwf	(DELAY@i+1)^080h,f
  6603                           	
  6604  0AE0                     l9929:	
  6605  0AE0  0821               	movf	((DELAY@i+1)^080h),w
  6606  0AE1  0420               	iorwf	((DELAY@i)^080h),w
  6607  0AE2  1D03               	skipz
  6608  0AE3  2AE5               	goto	u3521
  6609  0AE4  2AE6               	goto	u3520
  6610  0AE5                     u3521:
  6611  0AE5  2ADA               	goto	l9927
  6612  0AE6                     u3520:
  6613  0AE6  2AE7               	goto	l2096
  6614                           	
  6615  0AE7                     l2095:	
  6616                           	line	7
  6617                           	
  6618  0AE7                     l2096:	
  6619  0AE7  0008               	return
  6620                           	opt stack 0
  6621                           GLOBAL	__end_of_DELAY
  6622  0AE8                     	__end_of_DELAY:
  6623 ;; =============== function _DELAY ends ============
  6624                           
  6625                           	signat	_DELAY,88
  6626                           	global	_Uart_Init
  6627                           psect	text919,local,class=CODE,delta=2
  6628                           global __ptext919
  6629  0A97                     __ptext919:
  6630                           
  6631 ;; *************** function _Uart_Init *****************
  6632 ;; Defined at:
  6633 ;;		line 13 in file "E:\MPLAB_IDE\pic16f877a_car\PIC16F877A_CAR\JY62.c"
  6634 ;; Parameters:    Size  Location     Type
  6635 ;;		None
  6636 ;; Auto vars:     Size  Location     Type
  6637 ;;		None
  6638 ;; Return value:  Size  Location     Type
  6639 ;;		None               void
  6640 ;; Registers used:
  6641 ;;		wreg
  6642 ;; Tracked objects:
  6643 ;;		On entry : 0/0
  6644 ;;		On exit  : 0/0
  6645 ;;		Unchanged: 0/0
  6646 ;; Data sizes:     COMMON   BANK0   BANK1   BANK3   BANK2
  6647 ;;      Params:         0       0       0       0       0
  6648 ;;      Locals:         0       0       0       0       0
  6649 ;;      Temps:          0       0       0       0       0
  6650 ;;      Totals:         0       0       0       0       0
  6651 ;;Total ram usage:        0 bytes
  6652 ;; Hardware stack levels used:    1
  6653 ;; Hardware stack levels required when called:    4
  6654 ;; This function calls:
  6655 ;;		Nothing
  6656 ;; This function is called by:
  6657 ;;		_main
  6658 ;; This function uses a non-reentrant model
  6659 ;;
  6660                           psect	text919
  6661                           	file	"E:\MPLAB_IDE\pic16f877a_car\PIC16F877A_CAR\JY62.c"
  6662                           	line	13
  6663                           	global	__size_of_Uart_Init
  6664  0019                     	__size_of_Uart_Init	equ	__end_of_Uart_Init-_Uart_Init
  6665                           	
  6666  0A97                     _Uart_Init:	
  6667                           	opt	stack 3
  6668                           ; Regs used in _Uart_Init: [wreg]
  6669                           	line	14
  6670                           	
  6671  0A97                     l9851:	
  6672                           ;JY62.c: 14: TRISC = 0xC0;
  6673  0A97  30C0               	movlw	(0C0h)
  6674  0A98  1683               	bsf	status, 5	;RP0=1, select bank1
  6675  0A99  1303               	bcf	status, 6	;RP1=0, select bank1
  6676  0A9A  0087               	movwf	(135)^080h	;volatile
  6677                           	line	16
  6678                           ;JY62.c: 16: TXSTA=0X24;
  6679  0A9B  3024               	movlw	(024h)
  6680  0A9C  0098               	movwf	(152)^080h	;volatile
  6681                           	line	17
  6682                           	
  6683  0A9D                     l9853:	
  6684                           ;JY62.c: 17: SYNC=0;
  6685  0A9D  1218               	bcf	(1220/8)^080h,(1220)&7
  6686                           	line	18
  6687                           ;JY62.c: 18: RCSTA=0X90;
  6688  0A9E  3090               	movlw	(090h)
  6689  0A9F  1283               	bcf	status, 5	;RP0=0, select bank0
  6690  0AA0  1303               	bcf	status, 6	;RP1=0, select bank0
  6691  0AA1  0098               	movwf	(24)	;volatile
  6692                           	line	19
  6693                           	
  6694  0AA2                     l9855:	
  6695                           ;JY62.c: 19: SPEN=1;
  6696  0AA2  1798               	bsf	(199/8),(199)&7
  6697                           	line	21
  6698                           ;JY62.c: 21: SPBRG=25;
  6699  0AA3  3019               	movlw	(019h)
  6700  0AA4  1683               	bsf	status, 5	;RP0=1, select bank1
  6701  0AA5  1303               	bcf	status, 6	;RP1=0, select bank1
  6702  0AA6  0099               	movwf	(153)^080h	;volatile
  6703                           	line	22
  6704                           	
  6705  0AA7                     l9857:	
  6706                           ;JY62.c: 22: CREN=1;
  6707  0AA7  1283               	bcf	status, 5	;RP0=0, select bank0
  6708  0AA8  1303               	bcf	status, 6	;RP1=0, select bank0
  6709  0AA9  1618               	bsf	(196/8),(196)&7
  6710                           	line	23
  6711                           	
  6712  0AAA                     l9859:	
  6713                           ;JY62.c: 23: GIE=1;PEIE=1;RCIE=1;
  6714  0AAA  178B               	bsf	(95/8),(95)&7
  6715                           	
  6716  0AAB                     l9861:	
  6717  0AAB  170B               	bsf	(94/8),(94)&7
  6718                           	
  6719  0AAC                     l9863:	
  6720  0AAC  1683               	bsf	status, 5	;RP0=1, select bank1
  6721  0AAD  1303               	bcf	status, 6	;RP1=0, select bank1
  6722  0AAE  168C               	bsf	(1125/8)^080h,(1125)&7
  6723                           	line	24
  6724                           	
  6725  0AAF                     l1388:	
  6726  0AAF  0008               	return
  6727                           	opt stack 0
  6728                           GLOBAL	__end_of_Uart_Init
  6729  0AB0                     	__end_of_Uart_Init:
  6730 ;; =============== function _Uart_Init ends ============
  6731                           
  6732                           	signat	_Uart_Init,88
  6733                           	global	_Beep_Init
  6734                           psect	text920,local,class=CODE,delta=2
  6735                           global __ptext920
  6736  0A35                     __ptext920:
  6737                           
  6738 ;; *************** function _Beep_Init *****************
  6739 ;; Defined at:
  6740 ;;		line 3 in file "E:\MPLAB_IDE\pic16f877a_car\PIC16F877A_CAR\beep.c"
  6741 ;; Parameters:    Size  Location     Type
  6742 ;;		None
  6743 ;; Auto vars:     Size  Location     Type
  6744 ;;		None
  6745 ;; Return value:  Size  Location     Type
  6746 ;;		None               void
  6747 ;; Registers used:
  6748 ;;		status,2
  6749 ;; Tracked objects:
  6750 ;;		On entry : 0/0
  6751 ;;		On exit  : 0/0
  6752 ;;		Unchanged: 0/0
  6753 ;; Data sizes:     COMMON   BANK0   BANK1   BANK3   BANK2
  6754 ;;      Params:         0       0       0       0       0
  6755 ;;      Locals:         0       0       0       0       0
  6756 ;;      Temps:          0       0       0       0       0
  6757 ;;      Totals:         0       0       0       0       0
  6758 ;;Total ram usage:        0 bytes
  6759 ;; Hardware stack levels used:    1
  6760 ;; Hardware stack levels required when called:    4
  6761 ;; This function calls:
  6762 ;;		Nothing
  6763 ;; This function is called by:
  6764 ;;		_main
  6765 ;; This function uses a non-reentrant model
  6766 ;;
  6767                           psect	text920
  6768                           	file	"E:\MPLAB_IDE\pic16f877a_car\PIC16F877A_CAR\beep.c"
  6769                           	line	3
  6770                           	global	__size_of_Beep_Init
  6771  0007                     	__size_of_Beep_Init	equ	__end_of_Beep_Init-_Beep_Init
  6772                           	
  6773  0A35                     _Beep_Init:	
  6774                           	opt	stack 3
  6775                           ; Regs used in _Beep_Init: [status,2]
  6776                           	line	4
  6777                           	
  6778  0A35                     l9847:	
  6779                           ;beep.c: 4: TRISE = 0x00;
  6780  0A35  1683               	bsf	status, 5	;RP0=1, select bank1
  6781  0A36  1303               	bcf	status, 6	;RP1=0, select bank1
  6782  0A37  0189               	clrf	(137)^080h	;volatile
  6783                           	line	5
  6784                           	
  6785  0A38                     l9849:	
  6786                           ;beep.c: 5: RE0 = 0;
  6787  0A38  1283               	bcf	status, 5	;RP0=0, select bank0
  6788  0A39  1303               	bcf	status, 6	;RP1=0, select bank0
  6789  0A3A  1009               	bcf	(72/8),(72)&7
  6790                           	line	6
  6791                           	
  6792  0A3B                     l685:	
  6793  0A3B  0008               	return
  6794                           	opt stack 0
  6795                           GLOBAL	__end_of_Beep_Init
  6796  0A3C                     	__end_of_Beep_Init:
  6797 ;; =============== function _Beep_Init ends ============
  6798                           
  6799                           	signat	_Beep_Init,88
  6800                           	global	_uart_service
  6801                           psect	text921,local,class=CODE,delta=2
  6802                           global __ptext921
  6803  0AB0                     __ptext921:
  6804                           
  6805 ;; *************** function _uart_service *****************
  6806 ;; Defined at:
  6807 ;;		line 27 in file "E:\MPLAB_IDE\pic16f877a_car\PIC16F877A_CAR\JY62.c"
  6808 ;; Parameters:    Size  Location     Type
  6809 ;;		None
  6810 ;; Auto vars:     Size  Location     Type
  6811 ;;  RxData          1   58[BANK0 ] unsigned char 
  6812 ;; Return value:  Size  Location     Type
  6813 ;;		None               void
  6814 ;; Registers used:
  6815 ;;		wreg, fsr0l, fsr0h, fsr1l, fsr1h, status,2, status,0, btemp+1, pclath, cstack
  6816 ;; Tracked objects:
  6817 ;;		On entry : 0/0
  6818 ;;		On exit  : 0/0
  6819 ;;		Unchanged: 0/0
  6820 ;; Data sizes:     COMMON   BANK0   BANK1   BANK3   BANK2
  6821 ;;      Params:         0       0       0       0       0
  6822 ;;      Locals:         0       1       0       0       0
  6823 ;;      Temps:          0       5       0       0       0
  6824 ;;      Totals:         0       6       0       0       0
  6825 ;;Total ram usage:        6 bytes
  6826 ;; Hardware stack levels used:    1
  6827 ;; Hardware stack levels required when called:    3
  6828 ;; This function calls:
  6829 ;;		_JY62_ReceiveData
  6830 ;; This function is called by:
  6831 ;;		Interrupt level 1
  6832 ;; This function uses a non-reentrant model
  6833 ;;
  6834                           psect	text921
  6835                           	file	"E:\MPLAB_IDE\pic16f877a_car\PIC16F877A_CAR\JY62.c"
  6836                           	line	27
  6837                           	global	__size_of_uart_service
  6838  001C                     	__size_of_uart_service	equ	__end_of_uart_service-_uart_service
  6839                           	
  6840  0AB0                     _uart_service:	
  6841 ;; hardware stack exceeded
  6842                           	opt	stack 0
  6843                           ; Regs used in _uart_service: [allreg]
  6844                           psect	intentry,class=CODE,delta=2
  6845                           global __pintentry
  6846  0004                     __pintentry:
  6847                           global interrupt_function
  6848  0004                     interrupt_function:
  6849                           	global saved_w
  6850  007E                     	saved_w	set	btemp+0
  6851  0004  00FE               	movwf	saved_w
  6852  0005  0E03               	swapf	status,w
  6853  0006  1283               	bcf	status, 5	;RP0=0, select bank0
  6854  0007  1303               	bcf	status, 6	;RP1=0, select bank0
  6855  0008  00D6               	movwf	(??_uart_service+1)
  6856  0009  0804               	movf	fsr0,w
  6857  000A  00D7               	movwf	(??_uart_service+2)
  6858  000B  080A               	movf	pclath,w
  6859  000C  00D8               	movwf	(??_uart_service+3)
  6860  000D  087F               	movf	btemp+1,w
  6861  000E  00D9               	movwf	(??_uart_service+4)
  6862  000F  120A  158A  2AB0   	ljmp	_uart_service
  6863                           psect	text921
  6864                           	line	28
  6865                           	
  6866  0AB0                     i1l9865:	
  6867                           ;JY62.c: 28: if (RCIF) {
  6868  0AB0  1E8C               	btfss	(101/8),(101)&7
  6869  0AB1  2AB3               	goto	u341_21
  6870  0AB2  2AB4               	goto	u341_20
  6871  0AB3                     u341_21:
  6872  0AB3  2ABF               	goto	i1l1392
  6873  0AB4                     u341_20:
  6874                           	line	30
  6875                           	
  6876  0AB4                     i1l9867:	
  6877                           ;JY62.c: 29: uint8_t RxData;
  6878                           ;JY62.c: 30: RxData = RCREG;
  6879  0AB4  081A               	movf	(26),w	;volatile
  6880  0AB5  00D5               	movwf	(??_uart_service+0)+0
  6881  0AB6  0855               	movf	(??_uart_service+0)+0,w
  6882  0AB7  00DA               	movwf	(uart_service@RxData)
  6883                           	line	31
  6884                           	
  6885  0AB8                     i1l9869:	
  6886                           ;JY62.c: 31: JY62_ReceiveData(RxData);
  6887  0AB8  085A               	movf	(uart_service@RxData),w
  6888  0AB9  120A  118A  2406   	fcall	_JY62_ReceiveData
              120A  158A         
  6889  0ABE  2ABF               	goto	i1l1392
  6890                           	line	32
  6891                           	
  6892  0ABF                     i1l1391:	
  6893                           	line	33
  6894                           	
  6895  0ABF                     i1l1392:	
  6896  0ABF  1283               	bcf	status, 5	;RP0=0, select bank0
  6897  0AC0  1303               	bcf	status, 6	;RP1=0, select bank0
  6898  0AC1  0859               	movf	(??_uart_service+4),w
  6899  0AC2  00FF               	movwf	btemp+1
  6900  0AC3  0858               	movf	(??_uart_service+3),w
  6901  0AC4  008A               	movwf	pclath
  6902  0AC5  0857               	movf	(??_uart_service+2),w
  6903  0AC6  0084               	movwf	fsr0
  6904  0AC7  0E56               	swapf	(??_uart_service+1)^00h,w
  6905  0AC8  0083               	movwf	status
  6906  0AC9  0EFE               	swapf	saved_w,f
  6907  0ACA  0E7E               	swapf	saved_w,w
  6908  0ACB  0009               	retfie
  6909                           	opt stack 0
  6910                           GLOBAL	__end_of_uart_service
  6911  0ACC                     	__end_of_uart_service:
  6912 ;; =============== function _uart_service ends ============
  6913                           
  6914                           	signat	_uart_service,88
  6915                           	global	_JY62_ReceiveData
  6916                           psect	text922,local,class=CODE,delta=2
  6917                           global __ptext922
  6918  0406                     __ptext922:
  6919                           
  6920 ;; *************** function _JY62_ReceiveData *****************
  6921 ;; Defined at:
  6922 ;;		line 36 in file "E:\MPLAB_IDE\pic16f877a_car\PIC16F877A_CAR\JY62.c"
  6923 ;; Parameters:    Size  Location     Type
  6924 ;;  RxData          1    wreg     unsigned char 
  6925 ;; Auto vars:     Size  Location     Type
  6926 ;;  RxData          1   52[BANK0 ] unsigned char 
  6927 ;;  i               1   51[BANK0 ] unsigned char 
  6928 ;;  sum             1   50[BANK0 ] unsigned char 
  6929 ;; Return value:  Size  Location     Type
  6930 ;;		None               void
  6931 ;; Registers used:
  6932 ;;		wreg, fsr0l, fsr0h, status,2, status,0, btemp+1, pclath, cstack
  6933 ;; Tracked objects:
  6934 ;;		On entry : 0/0
  6935 ;;		On exit  : 0/0
  6936 ;;		Unchanged: 0/0
  6937 ;; Data sizes:     COMMON   BANK0   BANK1   BANK3   BANK2
  6938 ;;      Params:         0       0       0       0       0
  6939 ;;      Locals:         0       3       0       0       0
  6940 ;;      Temps:          0       4       0       0       0
  6941 ;;      Totals:         0       7       0       0       0
  6942 ;;Total ram usage:        7 bytes
  6943 ;; Hardware stack levels used:    1
  6944 ;; Hardware stack levels required when called:    2
  6945 ;; This function calls:
  6946 ;;		___awtoft
  6947 ;;		___ftmul
  6948 ;;		___ftdiv
  6949 ;;		___fttol
  6950 ;; This function is called by:
  6951 ;;		_uart_service
  6952 ;; This function uses a non-reentrant model
  6953 ;;
  6954                           psect	text922
  6955                           	file	"E:\MPLAB_IDE\pic16f877a_car\PIC16F877A_CAR\JY62.c"
  6956                           	line	36
  6957                           	global	__size_of_JY62_ReceiveData
  6958  00CF                     	__size_of_JY62_ReceiveData	equ	__end_of_JY62_ReceiveData-_JY62_ReceiveData
  6959                           	
  6960  0406                     _JY62_ReceiveData:	
  6961 ;; hardware stack exceeded
  6962                           	opt	stack 0
  6963                           ; Regs used in _JY62_ReceiveData: [wreg-fsr0h+status,2+status,0+btemp+1+pclath+cstack]
  6964                           ;JY62_ReceiveData@RxData stored from wreg
  6965  0406  1283               	bcf	status, 5	;RP0=0, select bank0
  6966  0407  1303               	bcf	status, 6	;RP1=0, select bank0
  6967  0408  00D4               	movwf	(JY62_ReceiveData@RxData)
  6968                           	line	37
  6969                           	
  6970  0409                     i1l9871:	
  6971                           ;JY62.c: 37: uint8_t i,sum=0;
  6972  0409  01D2               	clrf	(JY62_ReceiveData@sum)
  6973                           	line	39
  6974                           	
  6975  040A                     i1l9873:	
  6976                           ;JY62.c: 39: if (RxState == 0)
  6977  040A  08E9               	movf	(_RxState),f
  6978  040B  1D03               	skipz	;volatile
  6979  040C  2C0E               	goto	u342_21
  6980  040D  2C0F               	goto	u342_20
  6981  040E                     u342_21:
  6982  040E  2C25               	goto	i1l9883
  6983  040F                     u342_20:
  6984                           	line	41
  6985                           	
  6986  040F                     i1l9875:	
  6987                           ;JY62.c: 40: {
  6988                           ;JY62.c: 41: if (RxData == 0x55)
  6989  040F  0854               	movf	(JY62_ReceiveData@RxData),w
  6990  0410  3A55               	xorlw	055h
  6991  0411  1D03               	skipz
  6992  0412  2C14               	goto	u343_21
  6993  0413  2C15               	goto	u343_20
  6994  0414                     u343_21:
  6995  0414  2CD4               	goto	i1l1406
  6996  0415                     u343_20:
  6997                           	line	43
  6998                           	
  6999  0415                     i1l9877:	
  7000                           ;JY62.c: 42: {
  7001                           ;JY62.c: 43: RxBuffer[RxIndex] = RxData;
  7002  0415  0854               	movf	(JY62_ReceiveData@RxData),w
  7003  0416  00CE               	movwf	(??_JY62_ReceiveData+0)+0
  7004  0417  0868               	movf	(_RxIndex),w
  7005  0418  3E5B               	addlw	_RxBuffer&0ffh
  7006  0419  0084               	movwf	fsr0
  7007  041A  084E               	movf	(??_JY62_ReceiveData+0)+0,w
  7008  041B  1383               	bcf	status, 7	;select IRP bank0
  7009  041C  0080               	movwf	indf
  7010                           	line	44
  7011                           	
  7012  041D                     i1l9879:	
  7013                           ;JY62.c: 44: RxState = 1;
  7014  041D  01E9               	clrf	(_RxState)	;volatile
  7015  041E  1403               	bsf	status,0
  7016  041F  0DE9               	rlf	(_RxState),f	;volatile
  7017                           	line	45
  7018                           	
  7019  0420                     i1l9881:	
  7020                           ;JY62.c: 45: RxIndex = 1;
  7021  0420  01E8               	clrf	(_RxIndex)
  7022  0421  1403               	bsf	status,0
  7023  0422  0DE8               	rlf	(_RxIndex),f
  7024  0423  2CD4               	goto	i1l1406
  7025                           	line	46
  7026                           	
  7027  0424                     i1l1396:	
  7028                           	line	47
  7029                           ;JY62.c: 46: }
  7030                           ;JY62.c: 47: }
  7031  0424  2CD4               	goto	i1l1406
  7032                           	line	49
  7033                           	
  7034  0425                     i1l1395:	
  7035                           	
  7036  0425                     i1l9883:	
  7037                           ;JY62.c: 49: else if (RxState == 1)
  7038  0425  0869               	movf	(_RxState),w	;volatile
  7039  0426  3A01               	xorlw	01h
  7040  0427  1D03               	skipz
  7041  0428  2C2A               	goto	u344_21
  7042  0429  2C2B               	goto	u344_20
  7043  042A                     u344_21:
  7044  042A  2C43               	goto	i1l9893
  7045  042B                     u344_20:
  7046                           	line	51
  7047                           	
  7048  042B                     i1l9885:	
  7049                           ;JY62.c: 50: {
  7050                           ;JY62.c: 51: if (RxData == 0x53)
  7051  042B  0854               	movf	(JY62_ReceiveData@RxData),w
  7052  042C  3A53               	xorlw	053h
  7053  042D  1D03               	skipz
  7054  042E  2C30               	goto	u345_21
  7055  042F  2C31               	goto	u345_20
  7056  0430                     u345_21:
  7057  0430  2CD4               	goto	i1l1406
  7058  0431                     u345_20:
  7059                           	line	53
  7060                           	
  7061  0431                     i1l9887:	
  7062                           ;JY62.c: 52: {
  7063                           ;JY62.c: 53: RxBuffer[RxIndex] = RxData;
  7064  0431  0854               	movf	(JY62_ReceiveData@RxData),w
  7065  0432  00CE               	movwf	(??_JY62_ReceiveData+0)+0
  7066  0433  0868               	movf	(_RxIndex),w
  7067  0434  3E5B               	addlw	_RxBuffer&0ffh
  7068  0435  0084               	movwf	fsr0
  7069  0436  084E               	movf	(??_JY62_ReceiveData+0)+0,w
  7070  0437  1383               	bcf	status, 7	;select IRP bank0
  7071  0438  0080               	movwf	indf
  7072                           	line	54
  7073                           	
  7074  0439                     i1l9889:	
  7075                           ;JY62.c: 54: RxState = 2;
  7076  0439  3002               	movlw	(02h)
  7077  043A  00CE               	movwf	(??_JY62_ReceiveData+0)+0
  7078  043B  084E               	movf	(??_JY62_ReceiveData+0)+0,w
  7079  043C  00E9               	movwf	(_RxState)	;volatile
  7080                           	line	55
  7081                           	
  7082  043D                     i1l9891:	
  7083                           ;JY62.c: 55: RxIndex = 2;
  7084  043D  3002               	movlw	(02h)
  7085  043E  00CE               	movwf	(??_JY62_ReceiveData+0)+0
  7086  043F  084E               	movf	(??_JY62_ReceiveData+0)+0,w
  7087  0440  00E8               	movwf	(_RxIndex)
  7088  0441  2CD4               	goto	i1l1406
  7089                           	line	56
  7090                           	
  7091  0442                     i1l1399:	
  7092                           	line	57
  7093                           ;JY62.c: 56: }
  7094                           ;JY62.c: 57: }
  7095  0442  2CD4               	goto	i1l1406
  7096                           	line	59
  7097                           	
  7098  0443                     i1l1398:	
  7099                           	
  7100  0443                     i1l9893:	
  7101                           ;JY62.c: 59: else if (RxState == 2)
  7102  0443  0869               	movf	(_RxState),w	;volatile
  7103  0444  3A02               	xorlw	02h
  7104  0445  1D03               	skipz
  7105  0446  2C48               	goto	u346_21
  7106  0447  2C49               	goto	u346_20
  7107  0448                     u346_21:
  7108  0448  2CD4               	goto	i1l1406
  7109  0449                     u346_20:
  7110                           	line	61
  7111                           	
  7112  0449                     i1l9895:	
  7113                           ;JY62.c: 60: {
  7114                           ;JY62.c: 61: RxBuffer[RxIndex++] = RxData;
  7115  0449  0854               	movf	(JY62_ReceiveData@RxData),w
  7116  044A  00CE               	movwf	(??_JY62_ReceiveData+0)+0
  7117  044B  0868               	movf	(_RxIndex),w
  7118  044C  3E5B               	addlw	_RxBuffer&0ffh
  7119  044D  0084               	movwf	fsr0
  7120  044E  084E               	movf	(??_JY62_ReceiveData+0)+0,w
  7121  044F  1383               	bcf	status, 7	;select IRP bank0
  7122  0450  0080               	movwf	indf
  7123                           	
  7124  0451                     i1l9897:	
  7125  0451  3001               	movlw	(01h)
  7126  0452  00CE               	movwf	(??_JY62_ReceiveData+0)+0
  7127  0453  084E               	movf	(??_JY62_ReceiveData+0)+0,w
  7128  0454  07E8               	addwf	(_RxIndex),f
  7129                           	line	62
  7130                           	
  7131  0455                     i1l9899:	
  7132                           ;JY62.c: 62: if(RxIndex == 11)
  7133  0455  0868               	movf	(_RxIndex),w
  7134  0456  3A0B               	xorlw	0Bh
  7135  0457  1D03               	skipz
  7136  0458  2C5A               	goto	u347_21
  7137  0459  2C5B               	goto	u347_20
  7138  045A                     u347_21:
  7139  045A  2CD4               	goto	i1l1406
  7140  045B                     u347_20:
  7141                           	line	64
  7142                           	
  7143  045B                     i1l9901:	
  7144                           ;JY62.c: 63: {
  7145                           ;JY62.c: 64: for(i=0;i<10;i++)
  7146  045B  01D3               	clrf	(JY62_ReceiveData@i)
  7147                           	
  7148  045C                     i1l9903:	
  7149  045C  300A               	movlw	(0Ah)
  7150  045D  0253               	subwf	(JY62_ReceiveData@i),w
  7151  045E  1C03               	skipc
  7152  045F  2C61               	goto	u348_21
  7153  0460  2C62               	goto	u348_20
  7154  0461                     u348_21:
  7155  0461  2C64               	goto	i1l9907
  7156  0462                     u348_20:
  7157  0462  2C77               	goto	i1l9913
  7158                           	
  7159  0463                     i1l9905:	
  7160  0463  2C77               	goto	i1l9913
  7161                           	line	65
  7162                           	
  7163  0464                     i1l1403:	
  7164                           	line	66
  7165                           	
  7166  0464                     i1l9907:	
  7167                           ;JY62.c: 65: {
  7168                           ;JY62.c: 66: sum = sum + RxBuffer[i];
  7169  0464  0853               	movf	(JY62_ReceiveData@i),w
  7170  0465  3E5B               	addlw	_RxBuffer&0ffh
  7171  0466  0084               	movwf	fsr0
  7172  0467  0852               	movf	(JY62_ReceiveData@sum),w
  7173  0468  0700               	addwf	indf,w
  7174  0469  00CE               	movwf	(??_JY62_ReceiveData+0)+0
  7175  046A  084E               	movf	(??_JY62_ReceiveData+0)+0,w
  7176  046B  00D2               	movwf	(JY62_ReceiveData@sum)
  7177                           	line	64
  7178                           	
  7179  046C                     i1l9909:	
  7180  046C  3001               	movlw	(01h)
  7181  046D  00CE               	movwf	(??_JY62_ReceiveData+0)+0
  7182  046E  084E               	movf	(??_JY62_ReceiveData+0)+0,w
  7183  046F  07D3               	addwf	(JY62_ReceiveData@i),f
  7184                           	
  7185  0470                     i1l9911:	
  7186  0470  300A               	movlw	(0Ah)
  7187  0471  0253               	subwf	(JY62_ReceiveData@i),w
  7188  0472  1C03               	skipc
  7189  0473  2C75               	goto	u349_21
  7190  0474  2C76               	goto	u349_20
  7191  0475                     u349_21:
  7192  0475  2C64               	goto	i1l9907
  7193  0476                     u349_20:
  7194  0476  2C77               	goto	i1l9913
  7195                           	
  7196  0477                     i1l1404:	
  7197                           	line	68
  7198                           	
  7199  0477                     i1l9913:	
  7200                           ;JY62.c: 67: }
  7201                           ;JY62.c: 68: if(sum == RxBuffer[10])
  7202  0477  0865               	movf	0+(_RxBuffer)+0Ah,w
  7203  0478  0652               	xorwf	(JY62_ReceiveData@sum),w
  7204  0479  1D03               	skipz
  7205  047A  2C7C               	goto	u350_21
  7206  047B  2C7D               	goto	u350_20
  7207  047C                     u350_21:
  7208  047C  2CCD               	goto	i1l9917
  7209  047D                     u350_20:
  7210                           	line	71
  7211                           	
  7212  047D                     i1l9915:	
  7213                           ;JY62.c: 69: {
  7214                           ;JY62.c: 71: Yaw = (int16_t)(((((int16_t)RxBuffer[7] << 8) | (int16_t)RxBuffer[6]))*180.
                                 0f/32768.0f);
  7215  047D  0861               	movf	0+(_RxBuffer)+06h,w
  7216  047E  00CE               	movwf	(??_JY62_ReceiveData+0)+0
  7217  047F  01CF               	clrf	(??_JY62_ReceiveData+0)+0+1
  7218  0480  0862               	movf	0+(_RxBuffer)+07h,w
  7219  0481  00D0               	movwf	(??_JY62_ReceiveData+2)+0
  7220  0482  01D1               	clrf	(??_JY62_ReceiveData+2)+0+1
  7221  0483  0850               	movf	(??_JY62_ReceiveData+2)+0,w
  7222  0484  00D1               	movwf	(??_JY62_ReceiveData+2)+1
  7223  0485  01D0               	clrf	(??_JY62_ReceiveData+2)+0
  7224  0486  084E               	movf	0+(??_JY62_ReceiveData+0)+0,w
  7225  0487  0450               	iorwf	0+(??_JY62_ReceiveData+2)+0,w
  7226  0488  00AA               	movwf	(?___awtoft)
  7227  0489  084F               	movf	1+(??_JY62_ReceiveData+0)+0,w
  7228  048A  0451               	iorwf	1+(??_JY62_ReceiveData+2)+0,w
  7229  048B  00AB               	movwf	1+(?___awtoft)
  7230  048C  120A  158A  230C   	fcall	___awtoft
              120A  118A         
  7231  0491  1283               	bcf	status, 5	;RP0=0, select bank0
  7232  0492  1303               	bcf	status, 6	;RP1=0, select bank0
  7233  0493  082A               	movf	(0+(?___awtoft)),w
  7234  0494  00B1               	movwf	0+(?___ftmul)+03h
  7235  0495  082B               	movf	(1+(?___awtoft)),w
  7236  0496  00B2               	movwf	1+(?___ftmul)+03h
  7237  0497  082C               	movf	(2+(?___awtoft)),w
  7238  0498  00B3               	movwf	2+(?___ftmul)+03h
  7239  0499  3000               	movlw	0x0
  7240  049A  00AE               	movwf	(?___ftmul)
  7241  049B  3034               	movlw	0x34
  7242  049C  00AF               	movwf	(?___ftmul+1)
  7243  049D  3043               	movlw	0x43
  7244  049E  00B0               	movwf	(?___ftmul+2)
  7245  049F  120A  118A  2318   	fcall	___ftmul
              120A  118A         
  7246  04A4  1283               	bcf	status, 5	;RP0=0, select bank0
  7247  04A5  1303               	bcf	status, 6	;RP1=0, select bank0
  7248  04A6  082E               	movf	(0+(?___ftmul)),w
  7249  04A7  00C1               	movwf	0+(?___ftdiv)+03h
  7250  04A8  082F               	movf	(1+(?___ftmul)),w
  7251  04A9  00C2               	movwf	1+(?___ftdiv)+03h
  7252  04AA  0830               	movf	(2+(?___ftmul)),w
  7253  04AB  00C3               	movwf	2+(?___ftdiv)+03h
  7254  04AC  3000               	movlw	0x0
  7255  04AD  00BE               	movwf	(?___ftdiv)
  7256  04AE  3000               	movlw	0x0
  7257  04AF  00BF               	movwf	(?___ftdiv+1)
  7258  04B0  3047               	movlw	0x47
  7259  04B1  00C0               	movwf	(?___ftdiv+2)
  7260  04B2  120A  118A  24D5   	fcall	___ftdiv
              120A  118A         
  7261  04B7  1283               	bcf	status, 5	;RP0=0, select bank0
  7262  04B8  1303               	bcf	status, 6	;RP1=0, select bank0
  7263  04B9  083E               	movf	(0+(?___ftdiv)),w
  7264  04BA  00F8               	movwf	(?___fttol)
  7265  04BB  083F               	movf	(1+(?___ftdiv)),w
  7266  04BC  00F9               	movwf	(?___fttol+1)
  7267  04BD  0840               	movf	(2+(?___ftdiv)),w
  7268  04BE  00FA               	movwf	(?___fttol+2)
  7269  04BF  120A  118A  264B   	fcall	___fttol
              120A  118A         
  7270  04C4  0879               	movf	1+(((0+(?___fttol)))),w
  7271  04C5  1683               	bsf	status, 5	;RP0=1, select bank1
  7272  04C6  1303               	bcf	status, 6	;RP1=0, select bank1
  7273  04C7  01D4               	clrf	(_Yaw+1)^080h
  7274  04C8  07D4               	addwf	(_Yaw+1)^080h
  7275  04C9  0878               	movf	0+(((0+(?___fttol)))),w
  7276  04CA  01D3               	clrf	(_Yaw)^080h
  7277  04CB  07D3               	addwf	(_Yaw)^080h
  7278                           
  7279  04CC  2CCD               	goto	i1l9917
  7280                           	line	72
  7281                           	
  7282  04CD                     i1l1405:	
  7283                           	line	73
  7284                           	
  7285  04CD                     i1l9917:	
  7286                           ;JY62.c: 72: }
  7287                           ;JY62.c: 73: RxState = 0;
  7288  04CD  1283               	bcf	status, 5	;RP0=0, select bank0
  7289  04CE  01E9               	clrf	(_RxState)	;volatile
  7290                           	line	74
  7291                           	
  7292  04CF                     i1l9919:	
  7293                           ;JY62.c: 74: RxIndex = 0;
  7294  04CF  01E8               	clrf	(_RxIndex)
  7295  04D0  2CD4               	goto	i1l1406
  7296                           	line	75
  7297                           	
  7298  04D1                     i1l1402:	
  7299  04D1  2CD4               	goto	i1l1406
  7300                           	line	76
  7301                           	
  7302  04D2                     i1l1401:	
  7303  04D2  2CD4               	goto	i1l1406
  7304                           	line	77
  7305                           	
  7306  04D3                     i1l1400:	
  7307  04D3  2CD4               	goto	i1l1406
  7308                           	
  7309  04D4                     i1l1397:	
  7310                           	
  7311  04D4                     i1l1406:	
  7312  04D4  0008               	return
  7313                           	opt stack 0
  7314                           GLOBAL	__end_of_JY62_ReceiveData
  7315  04D5                     	__end_of_JY62_ReceiveData:
  7316 ;; =============== function _JY62_ReceiveData ends ============
  7317                           
  7318                           	signat	_JY62_ReceiveData,4216
  7319                           	global	___awtoft
  7320                           psect	text923,local,class=CODE,delta=2
  7321                           global __ptext923
  7322  0B0C                     __ptext923:
  7323                           
  7324 ;; *************** function ___awtoft *****************
  7325 ;; Defined at:
  7326 ;;		line 33 in file "C:\Program Files (x86)\HI-TECH Software\PICC\9.82\sources\awtoft.c"
  7327 ;; Parameters:    Size  Location     Type
  7328 ;;  c               2   10[BANK0 ] int 
  7329 ;; Auto vars:     Size  Location     Type
  7330 ;;  sign            1   13[BANK0 ] unsigned char 
  7331 ;; Return value:  Size  Location     Type
  7332 ;;                  3   10[BANK0 ] float 
  7333 ;; Registers used:
  7334 ;;		wreg, status,2, status,0, pclath, cstack
  7335 ;; Tracked objects:
  7336 ;;		On entry : 0/0
  7337 ;;		On exit  : 0/0
  7338 ;;		Unchanged: 0/0
  7339 ;; Data sizes:     COMMON   BANK0   BANK1   BANK3   BANK2
  7340 ;;      Params:         0       3       0       0       0
  7341 ;;      Locals:         0       1       0       0       0
  7342 ;;      Temps:          2       0       0       0       0
  7343 ;;      Totals:         2       4       0       0       0
  7344 ;;Total ram usage:        6 bytes
  7345 ;; Hardware stack levels used:    1
  7346 ;; Hardware stack levels required when called:    1
  7347 ;; This function calls:
  7348 ;;		___ftpack
  7349 ;; This function is called by:
  7350 ;;		_JY62_ReceiveData
  7351 ;; This function uses a non-reentrant model
  7352 ;;
  7353                           psect	text923
  7354                           	file	"C:\Program Files (x86)\HI-TECH Software\PICC\9.82\sources\awtoft.c"
  7355                           	line	33
  7356                           	global	__size_of___awtoft
  7357  002C                     	__size_of___awtoft	equ	__end_of___awtoft-___awtoft
  7358                           	
  7359  0B0C                     ___awtoft:	
  7360 ;; hardware stack exceeded
  7361                           	opt	stack 0
  7362                           ; Regs used in ___awtoft: [wreg+status,2+status,0+pclath+cstack]
  7363                           	line	36
  7364                           	
  7365  0B0C                     i1l10341:	
  7366  0B0C  1283               	bcf	status, 5	;RP0=0, select bank0
  7367  0B0D  1303               	bcf	status, 6	;RP1=0, select bank0
  7368  0B0E  01AD               	clrf	(___awtoft@sign)
  7369                           	line	37
  7370  0B0F  1FAB               	btfss	(___awtoft@c+1),7
  7371  0B10  2B12               	goto	u449_21
  7372  0B11  2B13               	goto	u449_20
  7373  0B12                     u449_21:
  7374  0B12  2B1C               	goto	i1l10345
  7375  0B13                     u449_20:
  7376                           	line	38
  7377                           	
  7378  0B13                     i1l10343:	
  7379  0B13  09AA               	comf	(___awtoft@c),f
  7380  0B14  09AB               	comf	(___awtoft@c+1),f
  7381  0B15  0AAA               	incf	(___awtoft@c),f
  7382  0B16  1903               	skipnz
  7383  0B17  0AAB               	incf	(___awtoft@c+1),f
  7384                           	line	39
  7385  0B18  01AD               	clrf	(___awtoft@sign)
  7386  0B19  1403               	bsf	status,0
  7387  0B1A  0DAD               	rlf	(___awtoft@sign),f
  7388  0B1B  2B1C               	goto	i1l10345
  7389                           	line	40
  7390                           	
  7391  0B1C                     i1l7957:	
  7392                           	line	41
  7393                           	
  7394  0B1C                     i1l10345:	
  7395  0B1C  082A               	movf	(___awtoft@c),w
  7396  0B1D  00F0               	movwf	(?___ftpack)
  7397  0B1E  082B               	movf	(___awtoft@c+1),w
  7398  0B1F  00F1               	movwf	(?___ftpack+1)
  7399  0B20  01F2               	clrf	(?___ftpack+2)
  7400  0B21  308E               	movlw	(08Eh)
  7401  0B22  00FC               	movwf	(??___awtoft+0)+0
  7402  0B23  087C               	movf	(??___awtoft+0)+0,w
  7403  0B24  00F3               	movwf	0+(?___ftpack)+03h
  7404  0B25  082D               	movf	(___awtoft@sign),w
  7405  0B26  00FD               	movwf	(??___awtoft+1)+0
  7406  0B27  087D               	movf	(??___awtoft+1)+0,w
  7407  0B28  00F4               	movwf	0+(?___ftpack)+04h
  7408  0B29  120A  158A  2704   	fcall	___ftpack
              120A  158A         
  7409  0B2E  0870               	movf	(0+(?___ftpack)),w
  7410  0B2F  1283               	bcf	status, 5	;RP0=0, select bank0
  7411  0B30  1303               	bcf	status, 6	;RP1=0, select bank0
  7412  0B31  00AA               	movwf	(?___awtoft)
  7413  0B32  0871               	movf	(1+(?___ftpack)),w
  7414  0B33  00AB               	movwf	(?___awtoft+1)
  7415  0B34  0872               	movf	(2+(?___ftpack)),w
  7416  0B35  00AC               	movwf	(?___awtoft+2)
  7417  0B36  2B37               	goto	i1l7958
  7418                           	
  7419  0B37                     i1l10347:	
  7420                           	line	42
  7421                           	
  7422  0B37                     i1l7958:	
  7423  0B37  0008               	return
  7424                           	opt stack 0
  7425                           GLOBAL	__end_of___awtoft
  7426  0B38                     	__end_of___awtoft:
  7427 ;; =============== function ___awtoft ends ============
  7428                           
  7429                           	signat	___awtoft,4219
  7430                           	global	___ftmul
  7431                           psect	text924,local,class=CODE,delta=2
  7432                           global __ptext924
  7433  0318                     __ptext924:
  7434                           
  7435 ;; *************** function ___ftmul *****************
  7436 ;; Defined at:
  7437 ;;		line 52 in file "C:\Program Files (x86)\HI-TECH Software\PICC\9.82\sources\ftmul.c"
  7438 ;; Parameters:    Size  Location     Type
  7439 ;;  f1              3   14[BANK0 ] float 
  7440 ;;  f2              3   17[BANK0 ] float 
  7441 ;; Auto vars:     Size  Location     Type
  7442 ;;  f3_as_produc    3   25[BANK0 ] unsigned um
  7443 ;;  sign            1   29[BANK0 ] unsigned char 
  7444 ;;  cntr            1   28[BANK0 ] unsigned char 
  7445 ;;  exp             1   24[BANK0 ] unsigned char 
  7446 ;; Return value:  Size  Location     Type
  7447 ;;                  3   14[BANK0 ] float 
  7448 ;; Registers used:
  7449 ;;		wreg, status,2, status,0, pclath, cstack
  7450 ;; Tracked objects:
  7451 ;;		On entry : 0/0
  7452 ;;		On exit  : 0/0
  7453 ;;		Unchanged: 0/0
  7454 ;; Data sizes:     COMMON   BANK0   BANK1   BANK3   BANK2
  7455 ;;      Params:         0       6       0       0       0
  7456 ;;      Locals:         0       6       0       0       0
  7457 ;;      Temps:          0       4       0       0       0
  7458 ;;      Totals:         0      16       0       0       0
  7459 ;;Total ram usage:       16 bytes
  7460 ;; Hardware stack levels used:    1
  7461 ;; Hardware stack levels required when called:    1
  7462 ;; This function calls:
  7463 ;;		___ftpack
  7464 ;; This function is called by:
  7465 ;;		_JY62_ReceiveData
  7466 ;; This function uses a non-reentrant model
  7467 ;;
  7468                           psect	text924
  7469                           	file	"C:\Program Files (x86)\HI-TECH Software\PICC\9.82\sources\ftmul.c"
  7470                           	line	52
  7471                           	global	__size_of___ftmul
  7472  00EE                     	__size_of___ftmul	equ	__end_of___ftmul-___ftmul
  7473                           	
  7474  0318                     ___ftmul:	
  7475 ;; hardware stack exceeded
  7476                           	opt	stack 0
  7477                           ; Regs used in ___ftmul: [wreg+status,2+status,0+pclath+cstack]
  7478                           	line	56
  7479                           	
  7480  0318                     i1l10235:	
  7481  0318  1283               	bcf	status, 5	;RP0=0, select bank0
  7482  0319  1303               	bcf	status, 6	;RP1=0, select bank0
  7483  031A  082E               	movf	(___ftmul@f1),w
  7484  031B  00B4               	movwf	((??___ftmul+0)+0)
  7485  031C  082F               	movf	(___ftmul@f1+1),w
  7486  031D  00B5               	movwf	((??___ftmul+0)+0+1)
  7487  031E  0830               	movf	(___ftmul@f1+2),w
  7488  031F  00B6               	movwf	((??___ftmul+0)+0+2)
  7489  0320  1003               	clrc
  7490  0321  0D35               	rlf	(??___ftmul+0)+1,w
  7491  0322  0D36               	rlf	(??___ftmul+0)+2,w
  7492  0323  00B7               	movwf	(??___ftmul+3)+0
  7493  0324  0837               	movf	(??___ftmul+3)+0,w
  7494  0325  00B8               	movwf	(___ftmul@exp)
  7495  0326  08B8               	movf	((___ftmul@exp)),f
  7496  0327  1D03               	skipz
  7497  0328  2B2A               	goto	u424_21
  7498  0329  2B2B               	goto	u424_20
  7499  032A                     u424_21:
  7500  032A  2B33               	goto	i1l10241
  7501  032B                     u424_20:
  7502                           	line	57
  7503                           	
  7504  032B                     i1l10237:	
  7505  032B  3000               	movlw	0x0
  7506  032C  00AE               	movwf	(?___ftmul)
  7507  032D  3000               	movlw	0x0
  7508  032E  00AF               	movwf	(?___ftmul+1)
  7509  032F  3000               	movlw	0x0
  7510  0330  00B0               	movwf	(?___ftmul+2)
  7511  0331  2C05               	goto	i1l7920
  7512                           	
  7513  0332                     i1l10239:	
  7514  0332  2C05               	goto	i1l7920
  7515                           	
  7516  0333                     i1l7919:	
  7517                           	line	58
  7518                           	
  7519  0333                     i1l10241:	
  7520  0333  0831               	movf	(___ftmul@f2),w
  7521  0334  00B4               	movwf	((??___ftmul+0)+0)
  7522  0335  0832               	movf	(___ftmul@f2+1),w
  7523  0336  00B5               	movwf	((??___ftmul+0)+0+1)
  7524  0337  0833               	movf	(___ftmul@f2+2),w
  7525  0338  00B6               	movwf	((??___ftmul+0)+0+2)
  7526  0339  1003               	clrc
  7527  033A  0D35               	rlf	(??___ftmul+0)+1,w
  7528  033B  0D36               	rlf	(??___ftmul+0)+2,w
  7529  033C  00B7               	movwf	(??___ftmul+3)+0
  7530  033D  0837               	movf	(??___ftmul+3)+0,w
  7531  033E  00BD               	movwf	(___ftmul@sign)
  7532  033F  08BD               	movf	((___ftmul@sign)),f
  7533  0340  1D03               	skipz
  7534  0341  2B43               	goto	u425_21
  7535  0342  2B44               	goto	u425_20
  7536  0343                     u425_21:
  7537  0343  2B4C               	goto	i1l10247
  7538  0344                     u425_20:
  7539                           	line	59
  7540                           	
  7541  0344                     i1l10243:	
  7542  0344  3000               	movlw	0x0
  7543  0345  00AE               	movwf	(?___ftmul)
  7544  0346  3000               	movlw	0x0
  7545  0347  00AF               	movwf	(?___ftmul+1)
  7546  0348  3000               	movlw	0x0
  7547  0349  00B0               	movwf	(?___ftmul+2)
  7548  034A  2C05               	goto	i1l7920
  7549                           	
  7550  034B                     i1l10245:	
  7551  034B  2C05               	goto	i1l7920
  7552                           	
  7553  034C                     i1l7921:	
  7554                           	line	60
  7555                           	
  7556  034C                     i1l10247:	
  7557  034C  083D               	movf	(___ftmul@sign),w
  7558  034D  3E7B               	addlw	07Bh
  7559  034E  00B4               	movwf	(??___ftmul+0)+0
  7560  034F  0834               	movf	(??___ftmul+0)+0,w
  7561  0350  07B8               	addwf	(___ftmul@exp),f
  7562                           	line	61
  7563  0351  082E               	movf	(___ftmul@f1),w
  7564  0352  00B4               	movwf	((??___ftmul+0)+0)
  7565  0353  082F               	movf	(___ftmul@f1+1),w
  7566  0354  00B5               	movwf	((??___ftmul+0)+0+1)
  7567  0355  0830               	movf	(___ftmul@f1+2),w
  7568  0356  00B6               	movwf	((??___ftmul+0)+0+2)
  7569  0357  3010               	movlw	010h
  7570  0358                     u426_25:
  7571  0358  1003               	clrc
  7572  0359  0CB6               	rrf	(??___ftmul+0)+2,f
  7573  035A  0CB5               	rrf	(??___ftmul+0)+1,f
  7574  035B  0CB4               	rrf	(??___ftmul+0)+0,f
  7575  035C                     u426_20:
  7576  035C  3EFF               	addlw	-1
  7577  035D  1D03               	skipz
  7578  035E  2B58               	goto	u426_25
  7579  035F  0834               	movf	0+(??___ftmul+0)+0,w
  7580  0360  00B7               	movwf	(??___ftmul+3)+0
  7581  0361  0837               	movf	(??___ftmul+3)+0,w
  7582  0362  00BD               	movwf	(___ftmul@sign)
  7583                           	line	62
  7584  0363  0831               	movf	(___ftmul@f2),w
  7585  0364  00B4               	movwf	((??___ftmul+0)+0)
  7586  0365  0832               	movf	(___ftmul@f2+1),w
  7587  0366  00B5               	movwf	((??___ftmul+0)+0+1)
  7588  0367  0833               	movf	(___ftmul@f2+2),w
  7589  0368  00B6               	movwf	((??___ftmul+0)+0+2)
  7590  0369  3010               	movlw	010h
  7591  036A                     u427_25:
  7592  036A  1003               	clrc
  7593  036B  0CB6               	rrf	(??___ftmul+0)+2,f
  7594  036C  0CB5               	rrf	(??___ftmul+0)+1,f
  7595  036D  0CB4               	rrf	(??___ftmul+0)+0,f
  7596  036E                     u427_20:
  7597  036E  3EFF               	addlw	-1
  7598  036F  1D03               	skipz
  7599  0370  2B6A               	goto	u427_25
  7600  0371  0834               	movf	0+(??___ftmul+0)+0,w
  7601  0372  00B7               	movwf	(??___ftmul+3)+0
  7602  0373  0837               	movf	(??___ftmul+3)+0,w
  7603  0374  06BD               	xorwf	(___ftmul@sign),f
  7604                           	line	63
  7605  0375  3080               	movlw	(080h)
  7606  0376  00B4               	movwf	(??___ftmul+0)+0
  7607  0377  0834               	movf	(??___ftmul+0)+0,w
  7608  0378  05BD               	andwf	(___ftmul@sign),f
  7609                           	line	64
  7610                           	
  7611  0379                     i1l10249:	
  7612  0379  17AF               	bsf	(___ftmul@f1)+(15/8),(15)&7
  7613                           	line	66
  7614                           	
  7615  037A                     i1l10251:	
  7616  037A  17B2               	bsf	(___ftmul@f2)+(15/8),(15)&7
  7617                           	line	67
  7618                           	
  7619  037B                     i1l10253:	
  7620  037B  30FF               	movlw	0FFh
  7621  037C  05B1               	andwf	(___ftmul@f2),f
  7622  037D  30FF               	movlw	0FFh
  7623  037E  05B2               	andwf	(___ftmul@f2+1),f
  7624  037F  3000               	movlw	0
  7625  0380  05B3               	andwf	(___ftmul@f2+2),f
  7626                           	line	68
  7627                           	
  7628  0381                     i1l10255:	
  7629  0381  3000               	movlw	0
  7630  0382  00B9               	movwf	(___ftmul@f3_as_product)
  7631  0383  3000               	movlw	0
  7632  0384  00BA               	movwf	(___ftmul@f3_as_product+1)
  7633  0385  3000               	movlw	0
  7634  0386  00BB               	movwf	(___ftmul@f3_as_product+2)
  7635                           	line	69
  7636                           	
  7637  0387                     i1l10257:	
  7638  0387  3007               	movlw	(07h)
  7639  0388  00B4               	movwf	(??___ftmul+0)+0
  7640  0389  0834               	movf	(??___ftmul+0)+0,w
  7641  038A  00BC               	movwf	(___ftmul@cntr)
  7642  038B  2B8C               	goto	i1l10259
  7643                           	line	70
  7644                           	
  7645  038C                     i1l7922:	
  7646                           	line	71
  7647                           	
  7648  038C                     i1l10259:	
  7649  038C  1C2E               	btfss	(___ftmul@f1),(0)&7
  7650  038D  2B8F               	goto	u428_21
  7651  038E  2B90               	goto	u428_20
  7652  038F                     u428_21:
  7653  038F  2BA1               	goto	i1l10263
  7654  0390                     u428_20:
  7655                           	line	72
  7656                           	
  7657  0390                     i1l10261:	
  7658  0390  0831               	movf	(___ftmul@f2),w
  7659  0391  07B9               	addwf	(___ftmul@f3_as_product),f
  7660  0392  0832               	movf	(___ftmul@f2+1),w
  7661  0393  1103               	clrz
  7662  0394  1803               	skipnc
  7663  0395  0A32               	incf	(___ftmul@f2+1),w
  7664  0396  1903               	skipnz
  7665  0397  2B99               	goto	u429_21
  7666  0398  07BA               	addwf	(___ftmul@f3_as_product+1),f
  7667  0399                     u429_21:
  7668  0399  0833               	movf	(___ftmul@f2+2),w
  7669  039A  1103               	clrz
  7670  039B  1803               	skipnc
  7671  039C  0A33               	incf	(___ftmul@f2+2),w
  7672  039D  1903               	skipnz
  7673  039E  2BA0               	goto	u429_22
  7674  039F  07BB               	addwf	(___ftmul@f3_as_product+2),f
  7675  03A0                     u429_22:
  7676                           
  7677  03A0  2BA1               	goto	i1l10263
  7678                           	
  7679  03A1                     i1l7923:	
  7680                           	line	73
  7681                           	
  7682  03A1                     i1l10263:	
  7683  03A1  3001               	movlw	01h
  7684  03A2                     u430_25:
  7685  03A2  1003               	clrc
  7686  03A3  0CB0               	rrf	(___ftmul@f1+2),f
  7687  03A4  0CAF               	rrf	(___ftmul@f1+1),f
  7688  03A5  0CAE               	rrf	(___ftmul@f1),f
  7689  03A6  3EFF               	addlw	-1
  7690  03A7  1D03               	skipz
  7691  03A8  2BA2               	goto	u430_25
  7692                           
  7693                           	line	74
  7694                           	
  7695  03A9                     i1l10265:	
  7696  03A9  3001               	movlw	01h
  7697  03AA                     u431_25:
  7698  03AA  1003               	clrc
  7699  03AB  0DB1               	rlf	(___ftmul@f2),f
  7700  03AC  0DB2               	rlf	(___ftmul@f2+1),f
  7701  03AD  0DB3               	rlf	(___ftmul@f2+2),f
  7702  03AE  3EFF               	addlw	-1
  7703  03AF  1D03               	skipz
  7704  03B0  2BAA               	goto	u431_25
  7705                           	line	75
  7706                           	
  7707  03B1                     i1l10267:	
  7708  03B1  3001               	movlw	low(01h)
  7709  03B2  02BC               	subwf	(___ftmul@cntr),f
  7710  03B3  1D03               	btfss	status,2
  7711  03B4  2BB6               	goto	u432_21
  7712  03B5  2BB7               	goto	u432_20
  7713  03B6                     u432_21:
  7714  03B6  2B8C               	goto	i1l10259
  7715  03B7                     u432_20:
  7716  03B7  2BB8               	goto	i1l10269
  7717                           	
  7718  03B8                     i1l7924:	
  7719                           	line	76
  7720                           	
  7721  03B8                     i1l10269:	
  7722  03B8  3009               	movlw	(09h)
  7723  03B9  00B4               	movwf	(??___ftmul+0)+0
  7724  03BA  0834               	movf	(??___ftmul+0)+0,w
  7725  03BB  00BC               	movwf	(___ftmul@cntr)
  7726  03BC  2BBD               	goto	i1l10271
  7727                           	line	77
  7728                           	
  7729  03BD                     i1l7925:	
  7730                           	line	78
  7731                           	
  7732  03BD                     i1l10271:	
  7733  03BD  1C2E               	btfss	(___ftmul@f1),(0)&7
  7734  03BE  2BC0               	goto	u433_21
  7735  03BF  2BC1               	goto	u433_20
  7736  03C0                     u433_21:
  7737  03C0  2BD2               	goto	i1l10275
  7738  03C1                     u433_20:
  7739                           	line	79
  7740                           	
  7741  03C1                     i1l10273:	
  7742  03C1  0831               	movf	(___ftmul@f2),w
  7743  03C2  07B9               	addwf	(___ftmul@f3_as_product),f
  7744  03C3  0832               	movf	(___ftmul@f2+1),w
  7745  03C4  1103               	clrz
  7746  03C5  1803               	skipnc
  7747  03C6  0A32               	incf	(___ftmul@f2+1),w
  7748  03C7  1903               	skipnz
  7749  03C8  2BCA               	goto	u434_21
  7750  03C9  07BA               	addwf	(___ftmul@f3_as_product+1),f
  7751  03CA                     u434_21:
  7752  03CA  0833               	movf	(___ftmul@f2+2),w
  7753  03CB  1103               	clrz
  7754  03CC  1803               	skipnc
  7755  03CD  0A33               	incf	(___ftmul@f2+2),w
  7756  03CE  1903               	skipnz
  7757  03CF  2BD1               	goto	u434_22
  7758  03D0  07BB               	addwf	(___ftmul@f3_as_product+2),f
  7759  03D1                     u434_22:
  7760                           
  7761  03D1  2BD2               	goto	i1l10275
  7762                           	
  7763  03D2                     i1l7926:	
  7764                           	line	80
  7765                           	
  7766  03D2                     i1l10275:	
  7767  03D2  3001               	movlw	01h
  7768  03D3                     u435_25:
  7769  03D3  1003               	clrc
  7770  03D4  0CB0               	rrf	(___ftmul@f1+2),f
  7771  03D5  0CAF               	rrf	(___ftmul@f1+1),f
  7772  03D6  0CAE               	rrf	(___ftmul@f1),f
  7773  03D7  3EFF               	addlw	-1
  7774  03D8  1D03               	skipz
  7775  03D9  2BD3               	goto	u435_25
  7776                           
  7777                           	line	81
  7778                           	
  7779  03DA                     i1l10277:	
  7780  03DA  3001               	movlw	01h
  7781  03DB                     u436_25:
  7782  03DB  1003               	clrc
  7783  03DC  0CBB               	rrf	(___ftmul@f3_as_product+2),f
  7784  03DD  0CBA               	rrf	(___ftmul@f3_as_product+1),f
  7785  03DE  0CB9               	rrf	(___ftmul@f3_as_product),f
  7786  03DF  3EFF               	addlw	-1
  7787  03E0  1D03               	skipz
  7788  03E1  2BDB               	goto	u436_25
  7789                           
  7790                           	line	82
  7791                           	
  7792  03E2                     i1l10279:	
  7793  03E2  3001               	movlw	low(01h)
  7794  03E3  02BC               	subwf	(___ftmul@cntr),f
  7795  03E4  1D03               	btfss	status,2
  7796  03E5  2BE7               	goto	u437_21
  7797  03E6  2BE8               	goto	u437_20
  7798  03E7                     u437_21:
  7799  03E7  2BBD               	goto	i1l10271
  7800  03E8                     u437_20:
  7801  03E8  2BE9               	goto	i1l10281
  7802                           	
  7803  03E9                     i1l7927:	
  7804                           	line	83
  7805                           	
  7806  03E9                     i1l10281:	
  7807  03E9  0839               	movf	(___ftmul@f3_as_product),w
  7808  03EA  00F0               	movwf	(?___ftpack)
  7809  03EB  083A               	movf	(___ftmul@f3_as_product+1),w
  7810  03EC  00F1               	movwf	(?___ftpack+1)
  7811  03ED  083B               	movf	(___ftmul@f3_as_product+2),w
  7812  03EE  00F2               	movwf	(?___ftpack+2)
  7813  03EF  0838               	movf	(___ftmul@exp),w
  7814  03F0  00B4               	movwf	(??___ftmul+0)+0
  7815  03F1  0834               	movf	(??___ftmul+0)+0,w
  7816  03F2  00F3               	movwf	0+(?___ftpack)+03h
  7817  03F3  083D               	movf	(___ftmul@sign),w
  7818  03F4  00B5               	movwf	(??___ftmul+1)+0
  7819  03F5  0835               	movf	(??___ftmul+1)+0,w
  7820  03F6  00F4               	movwf	0+(?___ftpack)+04h
  7821  03F7  120A  158A  2704   	fcall	___ftpack
              120A  118A         
  7822  03FC  0870               	movf	(0+(?___ftpack)),w
  7823  03FD  1283               	bcf	status, 5	;RP0=0, select bank0
  7824  03FE  1303               	bcf	status, 6	;RP1=0, select bank0
  7825  03FF  00AE               	movwf	(?___ftmul)
  7826  0400  0871               	movf	(1+(?___ftpack)),w
  7827  0401  00AF               	movwf	(?___ftmul+1)
  7828  0402  0872               	movf	(2+(?___ftpack)),w
  7829  0403  00B0               	movwf	(?___ftmul+2)
  7830  0404  2C05               	goto	i1l7920
  7831                           	
  7832  0405                     i1l10283:	
  7833                           	line	84
  7834                           	
  7835  0405                     i1l7920:	
  7836  0405  0008               	return
  7837                           	opt stack 0
  7838                           GLOBAL	__end_of___ftmul
  7839  0406                     	__end_of___ftmul:
  7840 ;; =============== function ___ftmul ends ============
  7841                           
  7842                           	signat	___ftmul,8315
  7843                           	global	___ftdiv
  7844                           psect	text925,local,class=CODE,delta=2
  7845                           global __ptext925
  7846  04D5                     __ptext925:
  7847                           
  7848 ;; *************** function ___ftdiv *****************
  7849 ;; Defined at:
  7850 ;;		line 50 in file "C:\Program Files (x86)\HI-TECH Software\PICC\9.82\sources\ftdiv.c"
  7851 ;; Parameters:    Size  Location     Type
  7852 ;;  f2              3   30[BANK0 ] float 
  7853 ;;  f1              3   33[BANK0 ] float 
  7854 ;; Auto vars:     Size  Location     Type
  7855 ;;  f3              3   41[BANK0 ] float 
  7856 ;;  sign            1   45[BANK0 ] unsigned char 
  7857 ;;  exp             1   44[BANK0 ] unsigned char 
  7858 ;;  cntr            1   40[BANK0 ] unsigned char 
  7859 ;; Return value:  Size  Location     Type
  7860 ;;                  3   30[BANK0 ] float 
  7861 ;; Registers used:
  7862 ;;		wreg, status,2, status,0, pclath, cstack
  7863 ;; Tracked objects:
  7864 ;;		On entry : 0/0
  7865 ;;		On exit  : 0/0
  7866 ;;		Unchanged: 0/0
  7867 ;; Data sizes:     COMMON   BANK0   BANK1   BANK3   BANK2
  7868 ;;      Params:         0       6       0       0       0
  7869 ;;      Locals:         0       6       0       0       0
  7870 ;;      Temps:          0       4       0       0       0
  7871 ;;      Totals:         0      16       0       0       0
  7872 ;;Total ram usage:       16 bytes
  7873 ;; Hardware stack levels used:    1
  7874 ;; Hardware stack levels required when called:    1
  7875 ;; This function calls:
  7876 ;;		___ftpack
  7877 ;; This function is called by:
  7878 ;;		_JY62_ReceiveData
  7879 ;; This function uses a non-reentrant model
  7880 ;;
  7881                           psect	text925
  7882                           	file	"C:\Program Files (x86)\HI-TECH Software\PICC\9.82\sources\ftdiv.c"
  7883                           	line	50
  7884                           	global	__size_of___ftdiv
  7885  00C8                     	__size_of___ftdiv	equ	__end_of___ftdiv-___ftdiv
  7886                           	
  7887  04D5                     ___ftdiv:	
  7888 ;; hardware stack exceeded
  7889                           	opt	stack 0
  7890                           ; Regs used in ___ftdiv: [wreg+status,2+status,0+pclath+cstack]
  7891                           	line	55
  7892                           	
  7893  04D5                     i1l10193:	
  7894  04D5  1283               	bcf	status, 5	;RP0=0, select bank0
  7895  04D6  1303               	bcf	status, 6	;RP1=0, select bank0
  7896  04D7  0841               	movf	(___ftdiv@f1),w
  7897  04D8  00C4               	movwf	((??___ftdiv+0)+0)
  7898  04D9  0842               	movf	(___ftdiv@f1+1),w
  7899  04DA  00C5               	movwf	((??___ftdiv+0)+0+1)
  7900  04DB  0843               	movf	(___ftdiv@f1+2),w
  7901  04DC  00C6               	movwf	((??___ftdiv+0)+0+2)
  7902  04DD  1003               	clrc
  7903  04DE  0D45               	rlf	(??___ftdiv+0)+1,w
  7904  04DF  0D46               	rlf	(??___ftdiv+0)+2,w
  7905  04E0  00C7               	movwf	(??___ftdiv+3)+0
  7906  04E1  0847               	movf	(??___ftdiv+3)+0,w
  7907  04E2  00CC               	movwf	(___ftdiv@exp)
  7908  04E3  08CC               	movf	((___ftdiv@exp)),f
  7909  04E4  1D03               	skipz
  7910  04E5  2CE7               	goto	u416_21
  7911  04E6  2CE8               	goto	u416_20
  7912  04E7                     u416_21:
  7913  04E7  2CF0               	goto	i1l10199
  7914  04E8                     u416_20:
  7915                           	line	56
  7916                           	
  7917  04E8                     i1l10195:	
  7918  04E8  3000               	movlw	0x0
  7919  04E9  00BE               	movwf	(?___ftdiv)
  7920  04EA  3000               	movlw	0x0
  7921  04EB  00BF               	movwf	(?___ftdiv+1)
  7922  04EC  3000               	movlw	0x0
  7923  04ED  00C0               	movwf	(?___ftdiv+2)
  7924  04EE  2D9C               	goto	i1l7910
  7925                           	
  7926  04EF                     i1l10197:	
  7927  04EF  2D9C               	goto	i1l7910
  7928                           	
  7929  04F0                     i1l7909:	
  7930                           	line	57
  7931                           	
  7932  04F0                     i1l10199:	
  7933  04F0  083E               	movf	(___ftdiv@f2),w
  7934  04F1  00C4               	movwf	((??___ftdiv+0)+0)
  7935  04F2  083F               	movf	(___ftdiv@f2+1),w
  7936  04F3  00C5               	movwf	((??___ftdiv+0)+0+1)
  7937  04F4  0840               	movf	(___ftdiv@f2+2),w
  7938  04F5  00C6               	movwf	((??___ftdiv+0)+0+2)
  7939  04F6  1003               	clrc
  7940  04F7  0D45               	rlf	(??___ftdiv+0)+1,w
  7941  04F8  0D46               	rlf	(??___ftdiv+0)+2,w
  7942  04F9  00C7               	movwf	(??___ftdiv+3)+0
  7943  04FA  0847               	movf	(??___ftdiv+3)+0,w
  7944  04FB  00CD               	movwf	(___ftdiv@sign)
  7945  04FC  08CD               	movf	((___ftdiv@sign)),f
  7946  04FD  1D03               	skipz
  7947  04FE  2D00               	goto	u417_21
  7948  04FF  2D01               	goto	u417_20
  7949  0500                     u417_21:
  7950  0500  2D09               	goto	i1l10205
  7951  0501                     u417_20:
  7952                           	line	58
  7953                           	
  7954  0501                     i1l10201:	
  7955  0501  3000               	movlw	0x0
  7956  0502  00BE               	movwf	(?___ftdiv)
  7957  0503  3000               	movlw	0x0
  7958  0504  00BF               	movwf	(?___ftdiv+1)
  7959  0505  3000               	movlw	0x0
  7960  0506  00C0               	movwf	(?___ftdiv+2)
  7961  0507  2D9C               	goto	i1l7910
  7962                           	
  7963  0508                     i1l10203:	
  7964  0508  2D9C               	goto	i1l7910
  7965                           	
  7966  0509                     i1l7911:	
  7967                           	line	59
  7968                           	
  7969  0509                     i1l10205:	
  7970  0509  3000               	movlw	0
  7971  050A  00C9               	movwf	(___ftdiv@f3)
  7972  050B  3000               	movlw	0
  7973  050C  00CA               	movwf	(___ftdiv@f3+1)
  7974  050D  3000               	movlw	0
  7975  050E  00CB               	movwf	(___ftdiv@f3+2)
  7976                           	line	60
  7977                           	
  7978  050F                     i1l10207:	
  7979  050F  3089               	movlw	(089h)
  7980  0510  074D               	addwf	(___ftdiv@sign),w
  7981  0511  00C4               	movwf	(??___ftdiv+0)+0
  7982  0512  0844               	movf	0+(??___ftdiv+0)+0,w
  7983  0513  02CC               	subwf	(___ftdiv@exp),f
  7984                           	line	61
  7985                           	
  7986  0514                     i1l10209:	
  7987  0514  0841               	movf	(___ftdiv@f1),w
  7988  0515  00C4               	movwf	((??___ftdiv+0)+0)
  7989  0516  0842               	movf	(___ftdiv@f1+1),w
  7990  0517  00C5               	movwf	((??___ftdiv+0)+0+1)
  7991  0518  0843               	movf	(___ftdiv@f1+2),w
  7992  0519  00C6               	movwf	((??___ftdiv+0)+0+2)
  7993  051A  3010               	movlw	010h
  7994  051B                     u418_25:
  7995  051B  1003               	clrc
  7996  051C  0CC6               	rrf	(??___ftdiv+0)+2,f
  7997  051D  0CC5               	rrf	(??___ftdiv+0)+1,f
  7998  051E  0CC4               	rrf	(??___ftdiv+0)+0,f
  7999  051F                     u418_20:
  8000  051F  3EFF               	addlw	-1
  8001  0520  1D03               	skipz
  8002  0521  2D1B               	goto	u418_25
  8003  0522  0844               	movf	0+(??___ftdiv+0)+0,w
  8004  0523  00C7               	movwf	(??___ftdiv+3)+0
  8005  0524  0847               	movf	(??___ftdiv+3)+0,w
  8006  0525  00CD               	movwf	(___ftdiv@sign)
  8007                           	line	62
  8008                           	
  8009  0526                     i1l10211:	
  8010  0526  083E               	movf	(___ftdiv@f2),w
  8011  0527  00C4               	movwf	((??___ftdiv+0)+0)
  8012  0528  083F               	movf	(___ftdiv@f2+1),w
  8013  0529  00C5               	movwf	((??___ftdiv+0)+0+1)
  8014  052A  0840               	movf	(___ftdiv@f2+2),w
  8015  052B  00C6               	movwf	((??___ftdiv+0)+0+2)
  8016  052C  3010               	movlw	010h
  8017  052D                     u419_25:
  8018  052D  1003               	clrc
  8019  052E  0CC6               	rrf	(??___ftdiv+0)+2,f
  8020  052F  0CC5               	rrf	(??___ftdiv+0)+1,f
  8021  0530  0CC4               	rrf	(??___ftdiv+0)+0,f
  8022  0531                     u419_20:
  8023  0531  3EFF               	addlw	-1
  8024  0532  1D03               	skipz
  8025  0533  2D2D               	goto	u419_25
  8026  0534  0844               	movf	0+(??___ftdiv+0)+0,w
  8027  0535  00C7               	movwf	(??___ftdiv+3)+0
  8028  0536  0847               	movf	(??___ftdiv+3)+0,w
  8029  0537  06CD               	xorwf	(___ftdiv@sign),f
  8030                           	line	63
  8031                           	
  8032  0538                     i1l10213:	
  8033  0538  3080               	movlw	(080h)
  8034  0539  00C4               	movwf	(??___ftdiv+0)+0
  8035  053A  0844               	movf	(??___ftdiv+0)+0,w
  8036  053B  05CD               	andwf	(___ftdiv@sign),f
  8037                           	line	64
  8038                           	
  8039  053C                     i1l10215:	
  8040  053C  17C2               	bsf	(___ftdiv@f1)+(15/8),(15)&7
  8041                           	line	65
  8042  053D  30FF               	movlw	0FFh
  8043  053E  05C1               	andwf	(___ftdiv@f1),f
  8044  053F  30FF               	movlw	0FFh
  8045  0540  05C2               	andwf	(___ftdiv@f1+1),f
  8046  0541  3000               	movlw	0
  8047  0542  05C3               	andwf	(___ftdiv@f1+2),f
  8048                           	line	66
  8049                           	
  8050  0543                     i1l10217:	
  8051  0543  17BF               	bsf	(___ftdiv@f2)+(15/8),(15)&7
  8052                           	line	67
  8053  0544  30FF               	movlw	0FFh
  8054  0545  05BE               	andwf	(___ftdiv@f2),f
  8055  0546  30FF               	movlw	0FFh
  8056  0547  05BF               	andwf	(___ftdiv@f2+1),f
  8057  0548  3000               	movlw	0
  8058  0549  05C0               	andwf	(___ftdiv@f2+2),f
  8059                           	line	68
  8060  054A  3018               	movlw	(018h)
  8061  054B  00C4               	movwf	(??___ftdiv+0)+0
  8062  054C  0844               	movf	(??___ftdiv+0)+0,w
  8063  054D  00C8               	movwf	(___ftdiv@cntr)
  8064  054E  2D4F               	goto	i1l10219
  8065                           	line	69
  8066                           	
  8067  054F                     i1l7912:	
  8068                           	line	70
  8069                           	
  8070  054F                     i1l10219:	
  8071  054F  3001               	movlw	01h
  8072  0550                     u420_25:
  8073  0550  1003               	clrc
  8074  0551  0DC9               	rlf	(___ftdiv@f3),f
  8075  0552  0DCA               	rlf	(___ftdiv@f3+1),f
  8076  0553  0DCB               	rlf	(___ftdiv@f3+2),f
  8077  0554  3EFF               	addlw	-1
  8078  0555  1D03               	skipz
  8079  0556  2D50               	goto	u420_25
  8080                           	line	71
  8081                           	
  8082  0557                     i1l10221:	
  8083  0557  0840               	movf	(___ftdiv@f2+2),w
  8084  0558  0243               	subwf	(___ftdiv@f1+2),w
  8085  0559  1D03               	skipz
  8086  055A  2D61               	goto	u421_25
  8087  055B  083F               	movf	(___ftdiv@f2+1),w
  8088  055C  0242               	subwf	(___ftdiv@f1+1),w
  8089  055D  1D03               	skipz
  8090  055E  2D61               	goto	u421_25
  8091  055F  083E               	movf	(___ftdiv@f2),w
  8092  0560  0241               	subwf	(___ftdiv@f1),w
  8093  0561                     u421_25:
  8094  0561  1C03               	skipc
  8095  0562  2D64               	goto	u421_21
  8096  0563  2D65               	goto	u421_20
  8097  0564                     u421_21:
  8098  0564  2D71               	goto	i1l10227
  8099  0565                     u421_20:
  8100                           	line	72
  8101                           	
  8102  0565                     i1l10223:	
  8103  0565  083E               	movf	(___ftdiv@f2),w
  8104  0566  02C1               	subwf	(___ftdiv@f1),f
  8105  0567  083F               	movf	(___ftdiv@f2+1),w
  8106  0568  1C03               	skipc
  8107  0569  0F3F               	incfsz	(___ftdiv@f2+1),w
  8108  056A  02C2               	subwf	(___ftdiv@f1+1),f
  8109  056B  0840               	movf	(___ftdiv@f2+2),w
  8110  056C  1C03               	skipc
  8111  056D  0A40               	incf	(___ftdiv@f2+2),w
  8112  056E  02C3               	subwf	(___ftdiv@f1+2),f
  8113                           	line	73
  8114                           	
  8115  056F                     i1l10225:	
  8116  056F  1449               	bsf	(___ftdiv@f3)+(0/8),(0)&7
  8117  0570  2D71               	goto	i1l10227
  8118                           	line	74
  8119                           	
  8120  0571                     i1l7913:	
  8121                           	line	75
  8122                           	
  8123  0571                     i1l10227:	
  8124  0571  3001               	movlw	01h
  8125  0572                     u422_25:
  8126  0572  1003               	clrc
  8127  0573  0DC1               	rlf	(___ftdiv@f1),f
  8128  0574  0DC2               	rlf	(___ftdiv@f1+1),f
  8129  0575  0DC3               	rlf	(___ftdiv@f1+2),f
  8130  0576  3EFF               	addlw	-1
  8131  0577  1D03               	skipz
  8132  0578  2D72               	goto	u422_25
  8133                           	line	76
  8134                           	
  8135  0579                     i1l10229:	
  8136  0579  3001               	movlw	low(01h)
  8137  057A  02C8               	subwf	(___ftdiv@cntr),f
  8138  057B  1D03               	btfss	status,2
  8139  057C  2D7E               	goto	u423_21
  8140  057D  2D7F               	goto	u423_20
  8141  057E                     u423_21:
  8142  057E  2D4F               	goto	i1l10219
  8143  057F                     u423_20:
  8144  057F  2D80               	goto	i1l10231
  8145                           	
  8146  0580                     i1l7914:	
  8147                           	line	77
  8148                           	
  8149  0580                     i1l10231:	
  8150  0580  0849               	movf	(___ftdiv@f3),w
  8151  0581  00F0               	movwf	(?___ftpack)
  8152  0582  084A               	movf	(___ftdiv@f3+1),w
  8153  0583  00F1               	movwf	(?___ftpack+1)
  8154  0584  084B               	movf	(___ftdiv@f3+2),w
  8155  0585  00F2               	movwf	(?___ftpack+2)
  8156  0586  084C               	movf	(___ftdiv@exp),w
  8157  0587  00C4               	movwf	(??___ftdiv+0)+0
  8158  0588  0844               	movf	(??___ftdiv+0)+0,w
  8159  0589  00F3               	movwf	0+(?___ftpack)+03h
  8160  058A  084D               	movf	(___ftdiv@sign),w
  8161  058B  00C5               	movwf	(??___ftdiv+1)+0
  8162  058C  0845               	movf	(??___ftdiv+1)+0,w
  8163  058D  00F4               	movwf	0+(?___ftpack)+04h
  8164  058E  120A  158A  2704   	fcall	___ftpack
              120A  118A         
  8165  0593  0870               	movf	(0+(?___ftpack)),w
  8166  0594  1283               	bcf	status, 5	;RP0=0, select bank0
  8167  0595  1303               	bcf	status, 6	;RP1=0, select bank0
  8168  0596  00BE               	movwf	(?___ftdiv)
  8169  0597  0871               	movf	(1+(?___ftpack)),w
  8170  0598  00BF               	movwf	(?___ftdiv+1)
  8171  0599  0872               	movf	(2+(?___ftpack)),w
  8172  059A  00C0               	movwf	(?___ftdiv+2)
  8173  059B  2D9C               	goto	i1l7910
  8174                           	
  8175  059C                     i1l10233:	
  8176                           	line	78
  8177                           	
  8178  059C                     i1l7910:	
  8179  059C  0008               	return
  8180                           	opt stack 0
  8181                           GLOBAL	__end_of___ftdiv
  8182  059D                     	__end_of___ftdiv:
  8183 ;; =============== function ___ftdiv ends ============
  8184                           
  8185                           	signat	___ftdiv,8315
  8186                           	global	___fttol
  8187                           psect	text926,local,class=CODE,delta=2
  8188                           global __ptext926
  8189  064B                     __ptext926:
  8190                           
  8191 ;; *************** function ___fttol *****************
  8192 ;; Defined at:
  8193 ;;		line 45 in file "C:\Program Files (x86)\HI-TECH Software\PICC\9.82\sources\fttol.c"
  8194 ;; Parameters:    Size  Location     Type
  8195 ;;  f1              3    8[COMMON] float 
  8196 ;; Auto vars:     Size  Location     Type
  8197 ;;  lval            4    5[BANK0 ] unsigned long 
  8198 ;;  exp1            1    9[BANK0 ] unsigned char 
  8199 ;;  sign1           1    4[BANK0 ] unsigned char 
  8200 ;; Return value:  Size  Location     Type
  8201 ;;                  4    8[COMMON] long 
  8202 ;; Registers used:
  8203 ;;		wreg, status,2, status,0
  8204 ;; Tracked objects:
  8205 ;;		On entry : 0/0
  8206 ;;		On exit  : 0/0
  8207 ;;		Unchanged: 0/0
  8208 ;; Data sizes:     COMMON   BANK0   BANK1   BANK3   BANK2
  8209 ;;      Params:         4       0       0       0       0
  8210 ;;      Locals:         0       6       0       0       0
  8211 ;;      Temps:          0       4       0       0       0
  8212 ;;      Totals:         4      10       0       0       0
  8213 ;;Total ram usage:       14 bytes
  8214 ;; Hardware stack levels used:    1
  8215 ;; This function calls:
  8216 ;;		Nothing
  8217 ;; This function is called by:
  8218 ;;		_JY62_ReceiveData
  8219 ;; This function uses a non-reentrant model
  8220 ;;
  8221                           psect	text926
  8222                           	file	"C:\Program Files (x86)\HI-TECH Software\PICC\9.82\sources\fttol.c"
  8223                           	line	45
  8224                           	global	__size_of___fttol
  8225  00A6                     	__size_of___fttol	equ	__end_of___fttol-___fttol
  8226                           	
  8227  064B                     ___fttol:	
  8228 ;; hardware stack exceeded
  8229                           	opt	stack 0
  8230                           ; Regs used in ___fttol: [wreg+status,2+status,0]
  8231                           	line	49
  8232                           	
  8233  064B                     i1l10285:	
  8234  064B  0878               	movf	(___fttol@f1),w
  8235  064C  1283               	bcf	status, 5	;RP0=0, select bank0
  8236  064D  1303               	bcf	status, 6	;RP1=0, select bank0
  8237  064E  00A0               	movwf	((??___fttol+0)+0)
  8238  064F  0879               	movf	(___fttol@f1+1),w
  8239  0650  00A1               	movwf	((??___fttol+0)+0+1)
  8240  0651  087A               	movf	(___fttol@f1+2),w
  8241  0652  00A2               	movwf	((??___fttol+0)+0+2)
  8242  0653  1003               	clrc
  8243  0654  0D21               	rlf	(??___fttol+0)+1,w
  8244  0655  0D22               	rlf	(??___fttol+0)+2,w
  8245  0656  00A3               	movwf	(??___fttol+3)+0
  8246  0657  0823               	movf	(??___fttol+3)+0,w
  8247  0658  00A9               	movwf	(___fttol@exp1)
  8248  0659  08A9               	movf	((___fttol@exp1)),f
  8249  065A  1D03               	skipz
  8250  065B  2E5D               	goto	u438_21
  8251  065C  2E5E               	goto	u438_20
  8252  065D                     u438_21:
  8253  065D  2E68               	goto	i1l10291
  8254  065E                     u438_20:
  8255                           	line	50
  8256                           	
  8257  065E                     i1l10287:	
  8258  065E  3000               	movlw	0
  8259  065F  00FB               	movwf	(?___fttol+3)
  8260  0660  3000               	movlw	0
  8261  0661  00FA               	movwf	(?___fttol+2)
  8262  0662  3000               	movlw	0
  8263  0663  00F9               	movwf	(?___fttol+1)
  8264  0664  3000               	movlw	0
  8265  0665  00F8               	movwf	(?___fttol)
  8266                           
  8267  0666  2EF0               	goto	i1l7931
  8268                           	
  8269  0667                     i1l10289:	
  8270  0667  2EF0               	goto	i1l7931
  8271                           	
  8272  0668                     i1l7930:	
  8273                           	line	51
  8274                           	
  8275  0668                     i1l10291:	
  8276  0668  0878               	movf	(___fttol@f1),w
  8277  0669  00A0               	movwf	((??___fttol+0)+0)
  8278  066A  0879               	movf	(___fttol@f1+1),w
  8279  066B  00A1               	movwf	((??___fttol+0)+0+1)
  8280  066C  087A               	movf	(___fttol@f1+2),w
  8281  066D  00A2               	movwf	((??___fttol+0)+0+2)
  8282  066E  3017               	movlw	017h
  8283  066F                     u439_25:
  8284  066F  1003               	clrc
  8285  0670  0CA2               	rrf	(??___fttol+0)+2,f
  8286  0671  0CA1               	rrf	(??___fttol+0)+1,f
  8287  0672  0CA0               	rrf	(??___fttol+0)+0,f
  8288  0673                     u439_20:
  8289  0673  3EFF               	addlw	-1
  8290  0674  1D03               	skipz
  8291  0675  2E6F               	goto	u439_25
  8292  0676  0820               	movf	0+(??___fttol+0)+0,w
  8293  0677  00A3               	movwf	(??___fttol+3)+0
  8294  0678  0823               	movf	(??___fttol+3)+0,w
  8295  0679  00A4               	movwf	(___fttol@sign1)
  8296                           	line	52
  8297                           	
  8298  067A                     i1l10293:	
  8299  067A  17F9               	bsf	(___fttol@f1)+(15/8),(15)&7
  8300                           	line	53
  8301                           	
  8302  067B                     i1l10295:	
  8303  067B  30FF               	movlw	0FFh
  8304  067C  05F8               	andwf	(___fttol@f1),f
  8305  067D  30FF               	movlw	0FFh
  8306  067E  05F9               	andwf	(___fttol@f1+1),f
  8307  067F  3000               	movlw	0
  8308  0680  05FA               	andwf	(___fttol@f1+2),f
  8309                           	line	54
  8310                           	
  8311  0681                     i1l10297:	
  8312  0681  0878               	movf	(___fttol@f1),w
  8313  0682  00A5               	movwf	(___fttol@lval)
  8314  0683  0879               	movf	(___fttol@f1+1),w
  8315  0684  00A6               	movwf	((___fttol@lval))+1
  8316  0685  087A               	movf	(___fttol@f1+2),w
  8317  0686  00A7               	movwf	((___fttol@lval))+2
  8318  0687  01A8               	clrf	((___fttol@lval))+3
  8319                           	line	55
  8320                           	
  8321  0688                     i1l10299:	
  8322  0688  308E               	movlw	low(08Eh)
  8323  0689  02A9               	subwf	(___fttol@exp1),f
  8324                           	line	56
  8325                           	
  8326  068A                     i1l10301:	
  8327  068A  1FA9               	btfss	(___fttol@exp1),7
  8328  068B  2E8D               	goto	u440_21
  8329  068C  2E8E               	goto	u440_20
  8330  068D                     u440_21:
  8331  068D  2EB3               	goto	i1l10311
  8332  068E                     u440_20:
  8333                           	line	57
  8334                           	
  8335  068E                     i1l10303:	
  8336  068E  0829               	movf	(___fttol@exp1),w
  8337  068F  3A80               	xorlw	80h
  8338  0690  3E8F               	addlw	-((-15)^80h)
  8339  0691  1803               	skipnc
  8340  0692  2E94               	goto	u441_21
  8341  0693  2E95               	goto	u441_20
  8342  0694                     u441_21:
  8343  0694  2EA0               	goto	i1l10309
  8344  0695                     u441_20:
  8345                           	line	58
  8346                           	
  8347  0695                     i1l10305:	
  8348  0695  3000               	movlw	0
  8349  0696  00FB               	movwf	(?___fttol+3)
  8350  0697  3000               	movlw	0
  8351  0698  00FA               	movwf	(?___fttol+2)
  8352  0699  3000               	movlw	0
  8353  069A  00F9               	movwf	(?___fttol+1)
  8354  069B  3000               	movlw	0
  8355  069C  00F8               	movwf	(?___fttol)
  8356                           
  8357  069D  2EF0               	goto	i1l7931
  8358                           	
  8359  069E                     i1l10307:	
  8360  069E  2EF0               	goto	i1l7931
  8361                           	
  8362  069F                     i1l7933:	
  8363  069F  2EA0               	goto	i1l10309
  8364                           	line	59
  8365                           	
  8366  06A0                     i1l7934:	
  8367                           	line	60
  8368                           	
  8369  06A0                     i1l10309:	
  8370  06A0  3001               	movlw	01h
  8371  06A1                     u442_25:
  8372  06A1  1003               	clrc
  8373  06A2  0CA8               	rrf	(___fttol@lval+3),f
  8374  06A3  0CA7               	rrf	(___fttol@lval+2),f
  8375  06A4  0CA6               	rrf	(___fttol@lval+1),f
  8376  06A5  0CA5               	rrf	(___fttol@lval),f
  8377  06A6  3EFF               	addlw	-1
  8378  06A7  1D03               	skipz
  8379  06A8  2EA1               	goto	u442_25
  8380                           
  8381                           	line	61
  8382  06A9  3001               	movlw	(01h)
  8383  06AA  00A0               	movwf	(??___fttol+0)+0
  8384  06AB  0820               	movf	(??___fttol+0)+0,w
  8385  06AC  07A9               	addwf	(___fttol@exp1),f
  8386  06AD  1D03               	btfss	status,2
  8387  06AE  2EB0               	goto	u443_21
  8388  06AF  2EB1               	goto	u443_20
  8389  06B0                     u443_21:
  8390  06B0  2EA0               	goto	i1l10309
  8391  06B1                     u443_20:
  8392  06B1  2ED7               	goto	i1l10321
  8393                           	
  8394  06B2                     i1l7935:	
  8395                           	line	62
  8396  06B2  2ED7               	goto	i1l10321
  8397                           	
  8398  06B3                     i1l7932:	
  8399                           	line	63
  8400                           	
  8401  06B3                     i1l10311:	
  8402  06B3  3018               	movlw	(018h)
  8403  06B4  0229               	subwf	(___fttol@exp1),w
  8404  06B5  1C03               	skipc
  8405  06B6  2EB8               	goto	u444_21
  8406  06B7  2EB9               	goto	u444_20
  8407  06B8                     u444_21:
  8408  06B8  2ED0               	goto	i1l10319
  8409  06B9                     u444_20:
  8410                           	line	64
  8411                           	
  8412  06B9                     i1l10313:	
  8413  06B9  3000               	movlw	0
  8414  06BA  00FB               	movwf	(?___fttol+3)
  8415  06BB  3000               	movlw	0
  8416  06BC  00FA               	movwf	(?___fttol+2)
  8417  06BD  3000               	movlw	0
  8418  06BE  00F9               	movwf	(?___fttol+1)
  8419  06BF  3000               	movlw	0
  8420  06C0  00F8               	movwf	(?___fttol)
  8421                           
  8422  06C1  2EF0               	goto	i1l7931
  8423                           	
  8424  06C2                     i1l10315:	
  8425  06C2  2EF0               	goto	i1l7931
  8426                           	
  8427  06C3                     i1l7937:	
  8428                           	line	65
  8429  06C3  2ED0               	goto	i1l10319
  8430                           	
  8431  06C4                     i1l7939:	
  8432                           	line	66
  8433                           	
  8434  06C4                     i1l10317:	
  8435  06C4  3001               	movlw	01h
  8436  06C5  00A0               	movwf	(??___fttol+0)+0
  8437  06C6                     u445_25:
  8438  06C6  1003               	clrc
  8439  06C7  0DA5               	rlf	(___fttol@lval),f
  8440  06C8  0DA6               	rlf	(___fttol@lval+1),f
  8441  06C9  0DA7               	rlf	(___fttol@lval+2),f
  8442  06CA  0DA8               	rlf	(___fttol@lval+3),f
  8443  06CB  0BA0               	decfsz	(??___fttol+0)+0
  8444  06CC  2EC6               	goto	u445_25
  8445                           	line	67
  8446  06CD  3001               	movlw	low(01h)
  8447  06CE  02A9               	subwf	(___fttol@exp1),f
  8448  06CF  2ED0               	goto	i1l10319
  8449                           	line	68
  8450                           	
  8451  06D0                     i1l7938:	
  8452                           	line	65
  8453                           	
  8454  06D0                     i1l10319:	
  8455  06D0  08A9               	movf	(___fttol@exp1),f
  8456  06D1  1D03               	skipz
  8457  06D2  2ED4               	goto	u446_21
  8458  06D3  2ED5               	goto	u446_20
  8459  06D4                     u446_21:
  8460  06D4  2EC4               	goto	i1l10317
  8461  06D5                     u446_20:
  8462  06D5  2ED7               	goto	i1l10321
  8463                           	
  8464  06D6                     i1l7940:	
  8465  06D6  2ED7               	goto	i1l10321
  8466                           	line	69
  8467                           	
  8468  06D7                     i1l7936:	
  8469                           	line	70
  8470                           	
  8471  06D7                     i1l10321:	
  8472  06D7  0824               	movf	(___fttol@sign1),w
  8473  06D8  1D03               	skipz
  8474  06D9  2EDB               	goto	u447_20
  8475  06DA  2EE7               	goto	i1l10325
  8476  06DB                     u447_20:
  8477                           	line	71
  8478                           	
  8479  06DB                     i1l10323:	
  8480  06DB  09A5               	comf	(___fttol@lval),f
  8481  06DC  09A6               	comf	(___fttol@lval+1),f
  8482  06DD  09A7               	comf	(___fttol@lval+2),f
  8483  06DE  09A8               	comf	(___fttol@lval+3),f
  8484  06DF  0AA5               	incf	(___fttol@lval),f
  8485  06E0  1903               	skipnz
  8486  06E1  0AA6               	incf	(___fttol@lval+1),f
  8487  06E2  1903               	skipnz
  8488  06E3  0AA7               	incf	(___fttol@lval+2),f
  8489  06E4  1903               	skipnz
  8490  06E5  0AA8               	incf	(___fttol@lval+3),f
  8491  06E6  2EE7               	goto	i1l10325
  8492                           	
  8493  06E7                     i1l7941:	
  8494                           	line	72
  8495                           	
  8496  06E7                     i1l10325:	
  8497  06E7  0828               	movf	(___fttol@lval+3),w
  8498  06E8  00FB               	movwf	(?___fttol+3)
  8499  06E9  0827               	movf	(___fttol@lval+2),w
  8500  06EA  00FA               	movwf	(?___fttol+2)
  8501  06EB  0826               	movf	(___fttol@lval+1),w
  8502  06EC  00F9               	movwf	(?___fttol+1)
  8503  06ED  0825               	movf	(___fttol@lval),w
  8504  06EE  00F8               	movwf	(?___fttol)
  8505                           
  8506  06EF  2EF0               	goto	i1l7931
  8507                           	
  8508  06F0                     i1l10327:	
  8509                           	line	73
  8510                           	
  8511  06F0                     i1l7931:	
  8512  06F0  0008               	return
  8513                           	opt stack 0
  8514                           GLOBAL	__end_of___fttol
  8515  06F1                     	__end_of___fttol:
  8516 ;; =============== function ___fttol ends ============
  8517                           
  8518                           	signat	___fttol,4220
  8519                           	global	___ftpack
  8520                           psect	text927,local,class=CODE,delta=2
  8521                           global __ptext927
  8522  0F04                     __ptext927:
  8523                           
  8524 ;; *************** function ___ftpack *****************
  8525 ;; Defined at:
  8526 ;;		line 63 in file "C:\Program Files (x86)\HI-TECH Software\PICC\9.82\sources\float.c"
  8527 ;; Parameters:    Size  Location     Type
  8528 ;;  arg             3    0[COMMON] unsigned um
  8529 ;;  exp             1    3[COMMON] unsigned char 
  8530 ;;  sign            1    4[COMMON] unsigned char 
  8531 ;; Auto vars:     Size  Location     Type
  8532 ;;		None
  8533 ;; Return value:  Size  Location     Type
  8534 ;;                  3    0[COMMON] float 
  8535 ;; Registers used:
  8536 ;;		wreg, status,2, status,0
  8537 ;; Tracked objects:
  8538 ;;		On entry : 0/0
  8539 ;;		On exit  : 0/0
  8540 ;;		Unchanged: 0/0
  8541 ;; Data sizes:     COMMON   BANK0   BANK1   BANK3   BANK2
  8542 ;;      Params:         5       0       0       0       0
  8543 ;;      Locals:         0       0       0       0       0
  8544 ;;      Temps:          3       0       0       0       0
  8545 ;;      Totals:         8       0       0       0       0
  8546 ;;Total ram usage:        8 bytes
  8547 ;; Hardware stack levels used:    1
  8548 ;; This function calls:
  8549 ;;		Nothing
  8550 ;; This function is called by:
  8551 ;;		___ftdiv
  8552 ;;		___ftmul
  8553 ;;		___awtoft
  8554 ;;		___ftadd
  8555 ;;		___lbtoft
  8556 ;;		___abtoft
  8557 ;;		___lwtoft
  8558 ;;		___altoft
  8559 ;;		___lltoft
  8560 ;;		___attoft
  8561 ;;		___lttoft
  8562 ;; This function uses a non-reentrant model
  8563 ;;
  8564                           psect	text927
  8565                           	file	"C:\Program Files (x86)\HI-TECH Software\PICC\9.82\sources\float.c"
  8566                           	line	63
  8567                           	global	__size_of___ftpack
  8568  007B                     	__size_of___ftpack	equ	__end_of___ftpack-___ftpack
  8569                           	
  8570  0F04                     ___ftpack:	
  8571 ;; hardware stack exceeded
  8572                           	opt	stack 0
  8573                           ; Regs used in ___ftpack: [wreg+status,2+status,0]
  8574                           	line	64
  8575                           	
  8576  0F04                     i1l10157:	
  8577  0F04  0873               	movf	(___ftpack@exp),w
  8578  0F05  1D03               	skipz
  8579  0F06  2F08               	goto	u405_20
  8580  0F07  2F10               	goto	i1l10161
  8581  0F08                     u405_20:
  8582                           	
  8583  0F08                     i1l10159:	
  8584  0F08  0872               	movf	(___ftpack@arg+2),w
  8585  0F09  0471               	iorwf	(___ftpack@arg+1),w
  8586  0F0A  0470               	iorwf	(___ftpack@arg),w
  8587  0F0B  1D03               	skipz
  8588  0F0C  2F0E               	goto	u406_21
  8589  0F0D  2F0F               	goto	u406_20
  8590  0F0E                     u406_21:
  8591  0F0E  2F26               	goto	i1l10167
  8592  0F0F                     u406_20:
  8593  0F0F  2F10               	goto	i1l10161
  8594                           	
  8595  0F10                     i1l8155:	
  8596                           	line	65
  8597                           	
  8598  0F10                     i1l10161:	
  8599  0F10  3000               	movlw	0x0
  8600  0F11  00F0               	movwf	(?___ftpack)
  8601  0F12  3000               	movlw	0x0
  8602  0F13  00F1               	movwf	(?___ftpack+1)
  8603  0F14  3000               	movlw	0x0
  8604  0F15  00F2               	movwf	(?___ftpack+2)
  8605  0F16  2F7E               	goto	i1l8156
  8606                           	
  8607  0F17                     i1l10163:	
  8608  0F17  2F7E               	goto	i1l8156
  8609                           	
  8610  0F18                     i1l8153:	
  8611                           	line	66
  8612  0F18  2F26               	goto	i1l10167
  8613                           	
  8614  0F19                     i1l8158:	
  8615                           	line	67
  8616                           	
  8617  0F19                     i1l10165:	
  8618  0F19  3001               	movlw	(01h)
  8619  0F1A  00F5               	movwf	(??___ftpack+0)+0
  8620  0F1B  0875               	movf	(??___ftpack+0)+0,w
  8621  0F1C  07F3               	addwf	(___ftpack@exp),f
  8622                           	line	68
  8623  0F1D  3001               	movlw	01h
  8624  0F1E                     u407_25:
  8625  0F1E  1003               	clrc
  8626  0F1F  0CF2               	rrf	(___ftpack@arg+2),f
  8627  0F20  0CF1               	rrf	(___ftpack@arg+1),f
  8628  0F21  0CF0               	rrf	(___ftpack@arg),f
  8629  0F22  3EFF               	addlw	-1
  8630  0F23  1D03               	skipz
  8631  0F24  2F1E               	goto	u407_25
  8632                           
  8633  0F25  2F26               	goto	i1l10167
  8634                           	line	69
  8635                           	
  8636  0F26                     i1l8157:	
  8637                           	line	66
  8638                           	
  8639  0F26                     i1l10167:	
  8640  0F26  30FE               	movlw	low highword(0FE0000h)
  8641  0F27  0572               	andwf	(___ftpack@arg+2),w
  8642  0F28  1D03               	btfss	status,2
  8643  0F29  2F2B               	goto	u408_21
  8644  0F2A  2F2C               	goto	u408_20
  8645  0F2B                     u408_21:
  8646  0F2B  2F19               	goto	i1l10165
  8647  0F2C                     u408_20:
  8648  0F2C  2F44               	goto	i1l8160
  8649                           	
  8650  0F2D                     i1l8159:	
  8651                           	line	70
  8652  0F2D  2F44               	goto	i1l8160
  8653                           	
  8654  0F2E                     i1l8161:	
  8655                           	line	71
  8656                           	
  8657  0F2E                     i1l10169:	
  8658  0F2E  3001               	movlw	(01h)
  8659  0F2F  00F5               	movwf	(??___ftpack+0)+0
  8660  0F30  0875               	movf	(??___ftpack+0)+0,w
  8661  0F31  07F3               	addwf	(___ftpack@exp),f
  8662                           	line	72
  8663                           	
  8664  0F32                     i1l10171:	
  8665  0F32  3001               	movlw	01h
  8666  0F33  07F0               	addwf	(___ftpack@arg),f
  8667  0F34  3000               	movlw	0
  8668  0F35  1803               	skipnc
  8669  0F36  3001               movlw 1
  8670  0F37  07F1               	addwf	(___ftpack@arg+1),f
  8671  0F38  3000               	movlw	0
  8672  0F39  1803               	skipnc
  8673  0F3A  3001               movlw 1
  8674  0F3B  07F2               	addwf	(___ftpack@arg+2),f
  8675                           	line	73
  8676                           	
  8677  0F3C                     i1l10173:	
  8678  0F3C  3001               	movlw	01h
  8679  0F3D                     u409_25:
  8680  0F3D  1003               	clrc
  8681  0F3E  0CF2               	rrf	(___ftpack@arg+2),f
  8682  0F3F  0CF1               	rrf	(___ftpack@arg+1),f
  8683  0F40  0CF0               	rrf	(___ftpack@arg),f
  8684  0F41  3EFF               	addlw	-1
  8685  0F42  1D03               	skipz
  8686  0F43  2F3D               	goto	u409_25
  8687                           
  8688                           	line	74
  8689                           	
  8690  0F44                     i1l8160:	
  8691                           	line	70
  8692  0F44  30FF               	movlw	low highword(0FF0000h)
  8693  0F45  0572               	andwf	(___ftpack@arg+2),w
  8694  0F46  1D03               	btfss	status,2
  8695  0F47  2F49               	goto	u410_21
  8696  0F48  2F4A               	goto	u410_20
  8697  0F49                     u410_21:
  8698  0F49  2F2E               	goto	i1l10169
  8699  0F4A                     u410_20:
  8700  0F4A  2F57               	goto	i1l10177
  8701                           	
  8702  0F4B                     i1l8162:	
  8703                           	line	75
  8704  0F4B  2F57               	goto	i1l10177
  8705                           	
  8706  0F4C                     i1l8164:	
  8707                           	line	76
  8708                           	
  8709  0F4C                     i1l10175:	
  8710  0F4C  3001               	movlw	low(01h)
  8711  0F4D  02F3               	subwf	(___ftpack@exp),f
  8712                           	line	77
  8713  0F4E  3001               	movlw	01h
  8714  0F4F                     u411_25:
  8715  0F4F  1003               	clrc
  8716  0F50  0DF0               	rlf	(___ftpack@arg),f
  8717  0F51  0DF1               	rlf	(___ftpack@arg+1),f
  8718  0F52  0DF2               	rlf	(___ftpack@arg+2),f
  8719  0F53  3EFF               	addlw	-1
  8720  0F54  1D03               	skipz
  8721  0F55  2F4F               	goto	u411_25
  8722  0F56  2F57               	goto	i1l10177
  8723                           	line	78
  8724                           	
  8725  0F57                     i1l8163:	
  8726                           	line	75
  8727                           	
  8728  0F57                     i1l10177:	
  8729  0F57  1FF1               	btfss	(___ftpack@arg+1),(15)&7
  8730  0F58  2F5A               	goto	u412_21
  8731  0F59  2F5B               	goto	u412_20
  8732  0F5A                     u412_21:
  8733  0F5A  2F4C               	goto	i1l10175
  8734  0F5B                     u412_20:
  8735                           	
  8736  0F5B                     i1l8165:	
  8737                           	line	79
  8738  0F5B  1873               	btfsc	(___ftpack@exp),(0)&7
  8739  0F5C  2F5E               	goto	u413_21
  8740  0F5D  2F5F               	goto	u413_20
  8741  0F5E                     u413_21:
  8742  0F5E  2F65               	goto	i1l8166
  8743  0F5F                     u413_20:
  8744                           	line	80
  8745                           	
  8746  0F5F                     i1l10179:	
  8747  0F5F  30FF               	movlw	0FFh
  8748  0F60  05F0               	andwf	(___ftpack@arg),f
  8749  0F61  307F               	movlw	07Fh
  8750  0F62  05F1               	andwf	(___ftpack@arg+1),f
  8751  0F63  30FF               	movlw	0FFh
  8752  0F64  05F2               	andwf	(___ftpack@arg+2),f
  8753                           	
  8754  0F65                     i1l8166:	
  8755                           	line	81
  8756  0F65  1003               	clrc
  8757  0F66  0CF3               	rrf	(___ftpack@exp),f
  8758                           
  8759                           	line	82
  8760                           	
  8761  0F67                     i1l10181:	
  8762  0F67  0873               	movf	(___ftpack@exp),w
  8763  0F68  00F5               	movwf	((??___ftpack+0)+0)
  8764  0F69  01F6               	clrf	((??___ftpack+0)+0+1)
  8765  0F6A  01F7               	clrf	((??___ftpack+0)+0+2)
  8766  0F6B  3010               	movlw	010h
  8767  0F6C                     u414_25:
  8768  0F6C  1003               	clrc
  8769  0F6D  0DF5               	rlf	(??___ftpack+0)+0,f
  8770  0F6E  0DF6               	rlf	(??___ftpack+0)+1,f
  8771  0F6F  0DF7               	rlf	(??___ftpack+0)+2,f
  8772  0F70                     u414_20:
  8773  0F70  3EFF               	addlw	-1
  8774  0F71  1D03               	skipz
  8775  0F72  2F6C               	goto	u414_25
  8776  0F73  0875               	movf	0+(??___ftpack+0)+0,w
  8777  0F74  04F0               	iorwf	(___ftpack@arg),f
  8778  0F75  0876               	movf	1+(??___ftpack+0)+0,w
  8779  0F76  04F1               	iorwf	(___ftpack@arg+1),f
  8780  0F77  0877               	movf	2+(??___ftpack+0)+0,w
  8781  0F78  04F2               	iorwf	(___ftpack@arg+2),f
  8782                           	line	83
  8783                           	
  8784  0F79                     i1l10183:	
  8785  0F79  0874               	movf	(___ftpack@sign),w
  8786  0F7A  1D03               	skipz
  8787  0F7B  2F7D               	goto	u415_20
  8788  0F7C  2F7E               	goto	i1l8167
  8789  0F7D                     u415_20:
  8790                           	line	84
  8791                           	
  8792  0F7D                     i1l10185:	
  8793  0F7D  17F2               	bsf	(___ftpack@arg)+(23/8),(23)&7
  8794                           	
  8795  0F7E                     i1l8167:	
  8796                           	line	85
  8797                           	line	86
  8798                           	
  8799  0F7E                     i1l8156:	
  8800  0F7E  0008               	return
  8801                           	opt stack 0
  8802                           GLOBAL	__end_of___ftpack
  8803  0F7F                     	__end_of___ftpack:
  8804 ;; =============== function ___ftpack ends ============
  8805                           
  8806                           	signat	___ftpack,12411
  8807                           psect	text928,local,class=CODE,delta=2
  8808                           global __ptext928
  8809  0000                     __ptext928:
  8810                           	global	btemp
  8811  007E                     	btemp set 07Eh
  8812                           
  8813                           	DABS	1,126,2	;btemp
  8814                           	global	wtemp0
  8815  007E                     	wtemp0 set btemp


HI-TECH Software PICC Macro Assembler V9.82 build 9453 
Symbol Table                                                                                   Thu Jun 12 15:50:45 2025

                           pc 0002                            _HD 00CB                            _RD 0C60  
                          _WR 0C61                  ___awdiv@sign 00AC                            fsr 0004  
         ___wmul@multiplicand 00A2    __size_of_PWM1_SetDutyCycle 0035                           l685 0A3B  
   __end_of_PWM2_SetDutyCycle 0BFD                           _GIE 005F                           _RB0 0030  
                         _RB1 0031                           _RA3 002B                           _RC0 0038  
                         _RB2 0032                           _RA4 002C                           _RC1 0039  
                         _RB3 0033                           _RA5 002D                           _RC2 003A  
                         _RB4 0034                           _RC3 003B                           _RB5 0035  
                         _RE0 0048                           _RC4 003C                           _RB6 0036  
                         _RC5 003D                           _RB7 0037                           _PR2 0092  
                         _Yaw 00D3                 _JY62_ShowData 0BFD                           fsr0 0004  
                         indf 0000               __end_of_ENABLE1 0A60                  ___ftdiv@cntr 0048  
                ___ftdiv@sign 004D               __end_of_HD_Read 1000                          l2102 0A5F  
                        l2111 079A                          l2112 07A0                          l2105 0C76  
                        l2113 07CF                          l2114 07AA                          l2115 07E6  
                        l2116 07E6                          l1409 0C36                          l2094 0ADA  
                        l2095 0AE7                          l2096 0AE7                          l4200 0BC7  
                        l2099 0A51                          l4203 0BD7                          l1388 0AAF  
                        l4204 0BFC                          l3510 0CB4                          l3511 0CB4  
                        l3508 0C91                          l3509 0CB3                          l4196 07FF  
                        l7100 062A                          l7101 0638                          l7030 0F99  
                        l7102 064A                          l7031 0F9F                          l4199 0BA2  
                        l7103 0648                          l7040 0FE9                          l7032 0FA9  
                        l7120 0220                          l5600 0D60                          l6320 078C  
                        l7104 0648                          l7025 0A34                          l7041 0FEF  
                        l7033 0FAF                          l7121 0232                          l5601 0D60  
                        l7105 0649                          l7042 0FF9                          l7034 0FB9  
                        l7130 0273                          l7122 0239                          l5602 0D6C  
                        l5610 0A81                          l6314 0718                          l7106 064A  
                        l7043 0FFF                          l7035 0FBF                          l7131 029B  
                        l7123 0234                          l5603 0D7D                          l6315 0730  
                        l7051 006C                          l7044 0FFF                          l7036 0FC9  
                        l7028 0F89                          l7124 0312                          l7132 0290  
                        l5604 0D78                          l6316 075C                          l7052 0216  
                        l7060 0214                          l7037 0FCF                          l7029 0F8F  
                        l7133 02AD                          l7125 0235                          l5605 0D7D  
                        l6317 078C                          l7061 0178                          l7053 00EC  
                        l7038 0FD9                          l7134 02F2                          l7126 0236  
                        l5606 0D86                          l6318 077E                          l7039 0FDF  
                        l7119 02FE                          l7135 02B2                          l7127 024E  
                        l5607 0D8C                          l6319 078B                          l7071 01E2  
                        l7063 014A                          l7055 00D6                          l7047 0060  
                        l7136 02FD                          l7128 0237                          l7048 0217  
                        l7056 0215                          l7064 0213                          l7072 0211  
                        l7137 0311                          l7129 0268                          l7065 01BE  
                        l7057 0132                          l7049 00A6                          l7073 0217  
                        l7138 0317                          l7082 0B0B                          l7090 0E14  
                        l7067 01A2                          l7059 00FE                          l7083 0B09  
                        l7091 0E22                          l7076 0E43                          l7068 0212  
                        l7084 0B09                          l7092 0E34                          l7077 0E47  
                        l7069 0204                          l7085 0B0A                          l7093 0E32  
                        l7078 0E8D                          l5590 0D18                          l7086 0B0B  
                        l7094 0E32                          l7079 0E8D                          l5591 0D24  
                        l7095 0E33                          l5592 0D35                          l7096 0E34  
                        l5585 0A6F                          l5593 0D30                          l7089 0DFC  
                        l4890 0B69                          l5594 0D35                          l4891 0B72  
                        l5595 0D3E                          l7099 05E7                          l4892 0B81  
                        l5596 0D44                          l5588 0D0C                          l4893 0B92  
                        l5589 0D18                          l4894 0B92                          l5599 0D54  
                        l4889 0B87                          l7821 0B3D                          l7822 0B47  
                        l7830 0DAC                          l7823 0B5C                          l7831 0DAD  
                        l7824 0B63                          l7832 0DC6                          l7840 0CD4  
                        l7833 0DD4                          l7841 0CD5                          l7834 0DDC  
                        l7842 0CE6                          l7827 0DD5                          l7843 0CF4  
                        l7828 0DA7                          l7844 0CFC                          l7829 0D9B  
                        l7837 0CF5                          l7838 0CCF                          l7839 0CC3  
                        l7961 0E9E                          l7970 0EFC                          l7962 0EAC  
                        l7971 0F03                          l7963 0EF2                          l7964 0EC4  
                        l7965 0EB8                          l7966 0EC9                          l7967 0ECA  
                        l7968 0EE3                          l9921 0ACC                          l7969 0EF1  
                        l9851 0A97                          l9923 0AD2                          l9861 0AAB  
                        l9853 0A9D                          l9925 0AD9                          l9941 07E7  
                        l9847 0A35                          l9863 0AAC                          l9855 0AA2  
                        l9927 0ADA                          l9951 07F6                          l9943 07ED  
                        STR_1 081A                          STR_2 081F                          l9849 0A38  
                        l9857 0AA7                          l9929 0AE0                          l9937 0A2F  
                        l9953 07F9                          l9945 07EF                          l9961 0B71  
                        l9859 0AAA                          l9939 0A33                          l9955 07FB  
                        l9947 07F0                          l9963 0B74                          l9949 07F3  
                        l9965 0B7A                          l9957 0B64                          l9981 0F85  
                        l9967 0B81                          l9959 0B6A                          l9991 0F9F  
                        l9983 0F89                          l9993 0FA5                          l9985 0F8F  
                        l9995 0FA9                          l9987 0F95                          l9979 0F7F  
                        l9997 0FAF                          l9989 0F99                          l9999 0FB5  
                        _CREN 00C4                          u5000 0033                          u5001 0032  
                        u5010 0038                          u5011 0037                          u5100 0084  
                        u5020 003E                          u5101 0083                          u5021 003D  
                        u3510 0AD8                          u5110 008A                          u5030 0044  
                        u3511 0AD7                          u5111 0089                          u5031 0043  
                        u3520 0AE6                          u3600 0FC5                          u5200 00D5  
                        u5120 0090                          u5040 004A                          u3521 0AE5  
                        u3601 0FC4                          u5201 00D4                          u5121 008F  
                        u5041 0049                          u3530 0B70                          u3610 0FD5  
                        u5210 00F4                          u5130 00AE                          u5050 0066  
                        u3531 0B6F                          u3611 0FD4                          u5211 00F3  
                        u5131 00AD                          u3540 0B80                          u3620 0FE5  
                        u3700 0DAB                          u4500 0E95                          u5300 0140  
                        u5220 00F8                          u5140 00B4                          u5060 006B  
                        u3541 0B7F                          u3621 0FE4                          u3701 0DAA  
                        u4501 0E94                          u5301 013F                          u5141 00B3  
                        u5061 006A                          u3550 0B91                          u3630 0FF5  
                        u4510 0EA2                          u5310 0144                          u5230 00FD  
                        u5150 00BA                          u5070 0072                          u3551 0B90  
                        u3631 0FF4                          u4511 0EA1                          u5231 00FC  
                        u5151 00B9                          u5071 0071                          u3560 0F85  
                        u3640 0B41                          u3720 0DBE                          u3800 0CF3  
                        u4520 0EB4                          u5400 0192                          u5320 0149  
                        u5240 0104                          u5160 00C0                          u5080 0078  
                        u3561 0F84                          u3641 0B40                          u3721 0DBD  
                        u3801 0CF2                          u4521 0EB3                          u5401 0191  
                        u5321 0148                          u5241 0103                          u5161 00BF  
                        u5081 0077                          u3570 0F95                          u5410 0198  
                        u5330 0150                          u5250 010A                          u5170 00C6  
                        u5090 007E                          u3555 0B8D                          u3571 0F94  
                        u3715 0DAE                          u5411 0197                          u5331 014F  
                        u5251 0109                          u5171 00C5                          u5091 007D  
                        _PEIE 005E                          u3580 0FA5                          u3740 0DD3  
                        u4540 0EC8                          u4700 029A                          u5500 01E1  
                        u5420 019C                          u5340 0156                          u5260 0110  
                        u5180 00CC                          u3581 0FA4                          u3741 0DD2  
                        u3725 0DBA                          u4541 0EC7                          u4701 0299  
                        u5501 01E0                          u5341 0155                          u5261 010F  
                        u5181 00CB                          u3590 0FB5                          u3670 0B5B  
                        u3750 0CBF                          u4710 02A1                          u5510 01E8  
                        u5430 01A1                          u5350 015C                          u5270 0116  
                        u5190 00D0                          u3591 0FB4                          u3671 0B5A  
                        u3655 0B48                          u3735 0DC7                          u3751 0CBE  
                        u4535 0EB9                          u4711 02A0                          u5511 01E7  
                        u5431 01A0                          u5351 015B                          u5271 0115  
                        u3680 0D97                          u4560 0EDB                          u4720 02FC  
                        u4800 07E5                          u5520 01EE                          u5440 01A8  
                        u5360 0162                          u5280 011C                          u5600 0632  
                        u3665 0B4F                          u3681 0D96                          u4561 0EDA  
                        u4721 02FB                          u4801 07E4                          u5521 01ED  
                        u5441 01A7                          u5361 0161                          u5281 011B  
                        u5601 0631                          u3770 0CD3                          u4730 0310  
                        u4810 0D07                          u5450 01C6                          u5370 0180  
                        u5290 013A                          u5530 0B01                          u5610 0640  
                        u3771 0CD2                          u4555 0ECB                          u4731 030F  
                        u4811 0D06                          u5451 01C5                          u5371 017F  
                        u5291 0139                          u5531 0B00                          u5611 063F  
                        _RCIE 0465                          u3780 0CDF                          u4580 0EF0  
                        u4660 0226                          u4740 0E3D                          u4820 0D13  
                        u4900 0D83                          u5460 01CC                          u5380 0186  
                        u5540 0DF6                          _RCIF 0065                          u3781 0CDE  
                        u3765 0CC4                          u4581 0EEF                          u4565 0ED7  
                        u4661 0225                          u4741 0E3C                          u4821 0D12  
                        u4901 0D82                          u5461 01CB                          u5381 0185  
                        u5541 0DF5                          u4590 0EF6                          u4670 025E  
                        u4750 0E56                          u4830 0D1F                          u4910 070F  
                        u5470 01D2                          u5390 018C                          u5550 0E04  
                        u3695 0D9C                          u4575 0EE4                          u4671 025D  
                        u4751 0E55                          u4831 0D1E                          u4911 070E  
                        u5471 01D1                          u5391 018B                          u5551 0E03  
                        u4680 0271                          u4760 0E65                          u4840 0D2B  
                        u4920 0727                          u5480 01D8                          u5560 0E1C  
                        u3785 0CDB                          u4681 0270                          u4761 0E64  
                        u4841 0D2A                          u4921 0726                          u5481 01D7  
                        u5561 0E1B                          u4690 028E                          u4770 0B9D  
                        u4850 0D3B                          u4930 073F                          u5490 01DC  
                        u5570 0E2A                          u3795 0CE7                          u4691 028D  
                        u4771 0B9C                          u4851 0D3A                          u4931 073E  
                        u4915 070B                          u5571 0E29                          u4780 0BD2  
                        u4860 0D4F                          u4940 074E                          u5580 05E1  
                        u4765 0E61                          u4781 0BD1                          u4861 0D4E  
                        u4941 074D                          u4925 0723                          u5581 05E0  
                        u4790 0794                          u4870 0D5B                          u4950 076B  
                        u5590 05EF                          u4695 028A                          u4791 0793  
                        u4871 0D5A                          u4951 076A                          u4935 073B  
                        u5591 05EE                          u4880 0D67                          u4960 0771  
                        u4881 0D66                          u4961 0770                          u4945 074A  
                        u4890 0D73                          u4970 0022                          u4891 0D72  
                        u4955 0767                          u4971 0021                          u4980 0028  
                        u4981 0027                          u4990 002E                          u4991 002D  
                        _SPEN 00C7                          _WREN 0C62                          _SYNC 04C4  
                        _flag 00D9                          _main 0C77                  ___ftpack@arg 0070  
                ___ftpack@exp 0073                          btemp 007E                          start 0012  
                ___ftmul@cntr 003C                  ___ftmul@sign 003D   __end_of_Motor_SetRightSpeed 0D45  
                ___fttol@exp1 0029                _LCD_ShowString 078D                  ___fttol@lval 0025  
            __end_of_LCD_Init 0C77                         l10001 0FB9                         l10011 0FD5  
                       l10003 0FBF                         l10021 0FEF                         l10013 0FD9  
                       l10005 0FC5                         l10023 0FF5                         l10015 0FDF  
                       l10007 0FC9                         l10031 0B41                         l10025 0FF9  
                       l10017 0FE5                         l10009 0FCF                         l10033 0B4E  
                       l10041 0D91                         l10019 0FE9                         l10035 0B5C  
                       l10027 0B38                         l10051 0DAD                         l10043 0D97  
                       l10037 0B63                         l10029 0B3D                         l10053 0DBE  
                       l10045 0D9B                         l10061 0DD5                         l10063 0DDC  
                       l10055 0DC4                         l10047 0DA2                         l10039 0D8D  
                       l10071 0CCA                         l10057 0DC6                         l10049 0DA7  
                       l10081 0CED                         l10073 0CCF                         l10065 0CB7  
                       l10059 0DCD                         l10075 0CD5                         l10067 0CBF  
                       l10083 0CF5                         l10085 0CFC                         l10077 0CDF  
                       l10069 0CC3                         l10501 0A57                         l10079 0CE6  
                       l10351 0E95                         l10503 0A5C                         l10511 0A6C  
                       l10361 0EAE                         l10353 0E9E                         l10441 022D  
                       l10513 0A6D                         l10505 0A60                         l10521 0E47  
                       l10601 0D0C                         l10371 0ECA                         l10363 0EB4  
                       l10355 0EA2                         l10451 025A                         l10443 0238  
                       l10435 021B                         l10515 0A6E                         l10507 0A65  
                       l10531 0E83                         l10523 0E56                         l10611 0D3B  
                       l10603 0D13                         l10373 0EDB                         l10365 0EB8  
                       l10381 0EF2                         l10357 0EA7                         l10349 0E8E  
                       l10461 0272                         l10453 025E                         l10445 0239  
                       l10437 0220                         l10509 0A69                         l10533 0E86  
                       l10525 0E65                         l10517 0E35                         l10541 0BCB  
                       l10613 0D3E                         l10605 0D1F                         l10621 0D5B  
                       l10701 0084                         l10383 0EF6                         l10375 0EE1  
                       l10367 0EBF                         l10359 0EAC                         l10471 029B  
                       l10463 0273                         l10455 0262                         l10447 024E  
                       l10439 0226                         l10527 0E69                         l10519 0E3D  
                       l10535 0B96                         l10543 0BD2                         l10551 0C3C  
                       l10607 0D24                         l10631 0D86                         l10623 0D67  
                       l10615 0D48                         l10711 00B4                         l10703 008A  
                       l10385 0EFC                         l10377 0EE3                         l10369 0EC4  
                       l10481 02E6                         l10473 02A1                         l10465 028F  
                       l10457 0268                         l10449 0256                         l10529 0E74  
                       l10537 0B9D                         l10545 0BD7                         l10561 0C49  
                       l10553 0C3D                         l10609 0D2B                         l10625 0D6C  
                       l10617 0D4F                         l10641 0C31                         l10633 0BFD  
                       l10721 00D0                         l10713 00BA                         l10705 0090  
                       l10801 0AF9                         l10387 0F03                         l10379 0EEA  
                       l10491 0317                         l10483 02ED                         l10475 02A8  
                       l10467 0290                         l10459 026B                         l10539 0BA2  
                       l10571 0C64                         l10563 0C4A                         l10555 0C40  
                       l10547 0C37                         l10627 0D73                         l10619 0D54  
                       l10635 0C02                         l10643 0A73                         l10651 0718  
                       l10731 00FE                         l10723 00D6                         l10715 00C0  
                       l10707 00A6                         l10803 0B01                         l10811 0DFC  
                       l10485 02F2                         l10477 02AD                         l10469 0294  
                       l10493 0A44                         l10573 0C68                         l10565 0C4D  
                       l10557 0C41                         l10549 0C3A                         l10581 079A  
                       l10629 0D83                         l10637 0C0F                         l10661 075C  
                       l10653 0727                         l10645 06F1                         l10741 011C  
                       l10733 0104                         l10717 00C6                         l10709 00AE  
                       l10725 00EC                         l10821 0E2A                         l10813 0E04  
                       l10805 0DDD                         l10479 02B2                         l10487 02FE  
                       l10495 0A49                         l10575 0C71                         l10567 0C56  
                       l10559 0C46                         l10591 07C4                         l10583 07A0  
                       l10639 0C21                         l10663 076B                         l10655 0730  
                       l10647 0702                         l10751 014A                         l10735 010A  
                       l10727 00F4                         l10743 0132                         l10719 00CC  
                       l10671 001A                         l10815 0E14                         l10807 0DEE  
                       l10831 05E7                         l10823 059D                         l10489 0312  
                       l10497 0A4E                         l10569 0C5B                         l10593 07C9  
                       l10585 07A4                         l10577 078D                         l10665 0771  
                       l10657 073F                         l10649 070F                         l10753 0150  
                       l10745 013A                         l10761 0178                         l10737 0110  
                       l10729 00F8                         l10681 0038                         l10673 0022  
                       l10817 0E1C                         l10809 0DF6                         l10841 0638  
                       l10833 05EF                         l10825 05C8                         l10499 0A52  
                       l10587 07AA                         l10595 07CF                         l10579 0794  
                       l10667 077E                         l10659 074E                         l10771 0198  
                       l10763 0180                         l10755 0156                         l10747 0140  
                       l10739 0116                         l10691 0066                         l10683 003E  
                       l10675 0028                         l10819 0E22                         l10843 0640  
                       l10835 0618                         l10827 05D9                         l10851 0C86  
                       l10589 07BC                         l10597 0D00                         l10781 01C6  
                       l10773 019C                         l10765 0186                         l10757 015C  
                       l10749 0144                         l10693 006C                         l10685 0044  
                       l10677 002E                         l10669 0015                         l10837 062A  
                       l10829 05E1                         l10861 0CA8                         l10853 0C8B  
                       l10845 0C77                         l10599 0D07                         l10791 01E2  
                       l10783 01CC                         l10775 01A2                         l10767 018C  
                       l10759 0162                         l10695 0072                         l10687 004A  
                       l10679 0033                         l10839 0632                         l10863 0CAD  
                       l10855 0C91                         l10847 0C7C                         l10793 01E8  
                       l10785 01D2                         l10777 01A8                         l10769 0192  
                       l10697 0078                         l10689 0060                         l10857 0C9E  
                       l10849 0C81                         l10795 01EE                         l10787 01D8  
                       l10779 01BE                         l10699 007E                         l10859 0CA3  
                       l10789 01DC                         l10797 0204                         l10799 0AE8  
                       ?_main 0070               __end_of___awdiv 0F04                         _EEADR 010D  
                       _DELAY 0ACC                         _CARRY 0018               __end_of___ftdiv 059D  
             __end_of___ftmul 0406               ___awdiv@divisor 00A6               __end_of___fttol 06F1  
                       _T2CON 0012                ?_JY62_ShowData 00BD               __end_of___lwdiv 0DDD  
             __end_of___lwmod 0CFD               ___awdiv@counter 00AB                         _RCREG 001A  
                       _RCSTA 0018                         _SPBRG 0099                         _PORTB 0006  
                       _PORTD 0008                         _TRISA 0085                         _TRISB 0086  
                       _TRISC 0087                         _TRISD 0088                         _TRISE 0089  
                       _TXSTA 0098                   _GanWei_Init 0A2F                         _nRBPU 040F  
               ___awtoft@sign 002D                 ___ftpack@sign 0074                         pclath 000A  
            __end_of_PWM_Init 0800              __end_of_Deal_Yaw 078D                         status 0003  
                       wtemp0 007E               __end_of_sprintf 0318              _JY62_ReceiveData 0406  
            __end_of_Delay_ms 0B93            __size_of_Beep_Init 0007        __end_of_LCD_ShowString 07E7  
           Deal_Yaw@aim_angel 00B7                  __end_of_main 0CB7                        DELAY@i 00A0  
                   ??_ENABLE1 00A2                        ??_main 00CB                 ___fttol@sign1 0024  
                      ?_DELAY 0070    __size_of_PWM2_SetDutyCycle 0035                     ??_HD_Read 00A0  
                      _ADCON1 009F                        _EEDATA 010C                        _CCPR1L 0015  
                      _CCPR2L 001B                        _EECON1 018C                        _EECON2 018D  
            ___awdiv@dividend 00A8                        _ENABLE 0A44              __end_of___awtoft 0B38  
            __end_of___ftpack 0F7F   __size_of_Motor_SetLeftSpeed 0048                        i1l1400 04D3  
                      i1l1401 04D2                        i1l1402 04D1                        i1l1403 0464  
                      i1l1404 0477                        i1l1405 04CD                        i1l1406 04D4  
                      i1l1391 0ABF                        i1l1392 0ABF                        i1l1395 0425  
                      i1l1396 0424                        i1l1397 04D4                        i1l1398 0443  
                      i1l1399 0442                        i1l8160 0F44                        i1l8161 0F2E  
                      i1l8153 0F18                        i1l8162 0F4B                        i1l8163 0F57  
                      i1l8155 0F10                        i1l8164 0F4C                        i1l8156 0F7E  
                      i1l8165 0F5B                        i1l8157 0F26                        i1l8166 0F65  
                      i1l8158 0F19                        i1l8167 0F7E                        i1l8159 0F2D  
                      i1l7910 059C                        i1l7911 0509                        i1l7912 054F  
                      i1l7920 0405                        i1l7913 0571                        i1l7921 034C  
                      i1l7930 0668                        i1l7914 0580                        i1l7922 038C  
                      i1l7931 06F0                        i1l7923 03A1                        i1l7940 06D6  
                      i1l7932 06B3                        i1l7924 03B8                        i1l7941 06E7  
                      i1l7933 069F                        i1l7909 04F0                        i1l7925 03BD  
                      i1l7934 06A0                        i1l7926 03D2                        i1l7935 06B2  
                      i1l7927 03E9                        i1l7919 0333                        i1l7936 06D7  
                      i1l7937 06C3                        i1l7938 06D0                        i1l7939 06C4  
                      i1l7957 0B1C                        i1l9901 045B                        i1l7958 0B37  
                      i1l9911 0470                        i1l9903 045C                        u410_20 0F4A  
                      u410_21 0F49                        i1l9905 0463                        i1l9913 0477  
                      i1l9915 047D                        i1l9907 0464                        i1l9917 04CD  
                      i1l9909 046C                        i1l9919 04CF                        i1l9871 0409  
                      i1l9881 0420                        i1l9873 040A                        i1l9865 0AB0  
                      i1l9891 043D                        i1l9875 040F                        i1l9883 0425  
                      i1l9867 0AB4                        u411_25 0F4F                        i1l9885 042B  
                      i1l9893 0443                        i1l9877 0415                        i1l9869 0AB8  
                      i1l9895 0449                        i1l9887 0431                        i1l9879 041D  
                      u412_20 0F5B                        u412_21 0F5A                        i1l9897 0451  
                      i1l9889 0439                        i1l9899 0455                        u420_25 0550  
                      u413_20 0F5F                        u405_20 0F08                        u421_20 0565  
                      u341_20 0AB4                        u413_21 0F5E                        u421_21 0564  
                      u341_21 0AB3                        u421_25 0561                        u414_20 0F70  
                      u406_20 0F0F                        u350_20 047D                        u342_20 040F  
                      u406_21 0F0E                        u350_21 047C                        u342_21 040E  
                      u414_25 0F6C                        u422_25 0572                        u430_25 03A2  
                      u415_20 0F7D                        u423_20 057F                        u343_20 0415  
                      u423_21 057E                        u343_21 0414                        u407_25 0F1E  
                      u431_25 03AA                        u408_20 0F2C                        u440_20 068E  
                      u416_20 04E8                        u432_20 03B7                        u424_20 032B  
                      u344_20 042B                        u408_21 0F2B                        u440_21 068D  
                      u416_21 04E7                        u432_21 03B6                        u424_21 032A  
                      u344_21 042A                        u441_20 0695                        u417_20 0501  
                      u433_20 03C1                        u425_20 0344                        u345_20 0431  
                      u441_21 0694                        u417_21 0500                        u433_21 03C0  
                      u425_21 0343                        u345_21 0430                        u409_25 0F3D  
                      u418_20 051F                        u426_20 035C                        u346_20 0449  
                      u434_21 03CA                        u346_21 0448                        u434_22 03D1  
                      u442_25 06A1                        u418_25 051B                        u426_25 0358  
                      u443_20 06B1                        u419_20 0531                        u427_20 036E  
                      u347_20 045B                        u443_21 06B0                        u347_21 045A  
                      u419_25 052D                        u435_25 03D3                        u427_25 036A  
                      u444_20 06B9                        u428_20 0390                        u348_20 0462  
                      u444_21 06B8                        u428_21 038F                        u348_21 0461  
                      u436_25 03DB                        u437_20 03E8                        u349_20 0476  
                      u437_21 03E7                        u429_21 0399                        u349_21 0475  
                      u429_22 03A0                        u445_25 06C6                        u446_20 06D5  
                      u438_20 065E                        u446_21 06D4                        u438_21 065D  
                      u447_20 06DB                        u439_20 0673                        u439_25 066F  
                      u449_20 0B13                        u449_21 0B12                        _TRISC1 0439  
                      _TRISC2 043A               ?_LCD_ShowString 00A2                    _Motor_Init 0A60  
                      ___wmul 0B38                     ??___awdiv 00AA                     ??___ftdiv 0044  
                   ??___ftmul 0034                     ??___fttol 0020                     ??___lwdiv 00A4  
                   ??___lwmod 00AC            uart_service@RxData 005A                        _offset 00D7  
             ??_JY62_ShowData 00BF              ___awdiv@quotient 00AD            __size_of_Uart_Init 0019  
                      clrloop 0A3D         ___ftmul@f3_as_product 0039                 ??_Track_THREE 00BB  
          __size_of_Track_ONE 0024            __size_of_Track_TWO 0058            __size_of_Track_Run 0203  
                      saved_w 007E           JY62_ReceiveData@sum 0052             __end_of_Beep_Init 0A3C  
                   ??_sprintf 00B1                     ?_LCD_Init 0070                 __end_of_DELAY 0AE8  
                  ___ftdiv@f1 0041                    ___ftdiv@f2 003E                    ___ftdiv@f3 0049  
                  ___awtoft@c 002A                    ___ftmul@f1 002E                    ___ftmul@f2 0031  
                  ___fttol@f1 0078                __pcstackCOMMON 0070                     ?_PWM_Init 0070  
                     ??_DELAY 00A0                     ?_Deal_Yaw 00B5                     ?_Delay_ms 00A0  
                     ?_ENABLE 0070           __end_of_Track_THREE 064B                    __pbssBANK0 005B  
                  __pbssBANK1 00CB                    ??_LCD_Init 00A2             __end_of_Uart_Init 0AB0  
    Motor_SetRightSpeed@speed 00B2             __end_of_Track_ONE 0B0C             __end_of_Track_TWO 0E35  
           __end_of_Track_Run 0218                    __pmaintext 0C77                   ?_Motor_Init 0070  
                     ?___wmul 00A0                    __pintentry 0004                       _CCP1CON 0017  
                     _CCP2CON 001D                 ?_Motor_Status 00B3                     ?___awtoft 002A  
                   ?___ftpack 0070                       _ENABLE1 0A52                    ??_PWM_Init 00A0  
    __end_of_JY62_ReceiveData 04D5                    ??_Deal_Yaw 00B9                       i1l10201 0501  
                     i1l10211 0526                       i1l10203 0508                       i1l10301 068A  
                     i1l10221 0557                       i1l10213 0538                       i1l10205 0509  
                     i1l10303 068E                       i1l10311 06B3                       i1l10231 0580  
                     i1l10223 0565                       i1l10215 053C                       i1l10207 050F  
                     i1l10161 0F10                       i1l10313 06B9                       i1l10321 06D7  
                     i1l10305 0695                       i1l10233 059C                       i1l10225 056F  
                     i1l10217 0543                       i1l10209 0514                       i1l10241 0333  
                     i1l10171 0F32                       i1l10163 0F17                       i1l10323 06DB  
                     i1l10315 06C2                       i1l10307 069E                       i1l10227 0571  
                     i1l10219 054F                       i1l10251 037A                       i1l10243 0344  
                     i1l10235 0318                       i1l10181 0F67                       i1l10173 0F3C  
                     i1l10165 0F19                       i1l10157 0F04                       i1l10325 06E7  
                     i1l10317 06C4                       i1l10309 06A0                       i1l10229 0579  
                     i1l10261 0390                       i1l10253 037B                       i1l10245 034B  
                     i1l10237 032B                       i1l10341 0B0C                       i1l10183 0F79  
                     i1l10175 0F4C                       i1l10167 0F26                       i1l10159 0F08  
                     i1l10327 06F0                       i1l10319 06D0                       i1l10271 03BD  
                     i1l10263 03A1                       i1l10255 0381                       i1l10247 034C  
                     i1l10239 0332                       i1l10343 0B13                       i1l10185 0F7D  
                     i1l10177 0F57                       i1l10169 0F2E                       i1l10193 04D5  
                     i1l10281 03E9                       i1l10273 03C1                       i1l10265 03A9  
                     i1l10257 0387                       i1l10249 0379                       i1l10345 0B1C  
                     i1l10179 0F5F                       i1l10291 0668                       i1l10195 04E8  
                     i1l10283 0405                       i1l10275 03D2                       i1l10267 03B1  
                     i1l10259 038C                       i1l10347 0B37                       i1l10293 067A  
                     i1l10285 064B                       i1l10197 04EF                       i1l10277 03DA  
                     i1l10269 03B8                       i1l10295 067B                       i1l10287 065E  
                     i1l10199 04F0                       i1l10279 03E2                       i1l10297 0681  
                     i1l10289 0667                       i1l10299 0688                       _BL_Flag 0066  
                     _HD_Read 0F7F                    ??_Delay_ms 00A2                  ?_GanWei_Init 0070  
             __size_of_ENABLE 000E                       _RxIndex 0068                       _RxState 0069  
                     ___awdiv 0E8E                       ___ftdiv 04D5               __size_of___wmul 002C  
              ??_Motor_Status 00B4                       ___ftmul 0318                       ___fttol 064B  
                     ___lwdiv 0D8D                       ___lwmod 0CB7                    ??___awtoft 007C  
                  ??___ftpack 0075                       _dpowers 0810  __size_of_Motor_SetRightSpeed 0048  
                 _Track_THREE 059D           __size_of_Motor_Init 0010                       _runflag 00DA  
                     _sprintf 0218          end_of_initialization 0A93         LCD_ShowString@address 00A7  
                   Delay_ms@i 00A3                     Delay_ms@j 00A5              ??_LCD_ShowString 00A6  
               ?_point_status 0070                 ?_uart_service 0070       Motor_SetLeftSpeed@speed 00B2  
  PWM2_SetDutyCycle@dutyCycle 00B0    __end_of_Motor_SetLeftSpeed 0D8D                     _Beep_Init 0A35  
              __end_of_ENABLE 0A52                ??_point_status 00A6                   ___ftdiv@exp 004C  
              ??_uart_service 0055             __size_of_LCD_Init 0040             LCD_ShowString@col 00A5  
           LCD_ShowString@row 00A4             LCD_ShowString@str 00A2                   ___ftmul@exp 0038  
              __end_of___wmul 0B64         __end_of_JY62_ShowData 0C37             __size_of_PWM_Init 0019  
         start_initialization 0A82             __size_of_Deal_Yaw 009C             __size_of_Delay_ms 002F  
        __size_of_GanWei_Init 0006                      ??_ENABLE 00A2              JY62_ShowData@yaw 00BD  
            JY62_ShowData@str 00C0          __end_of_Motor_Status 0A82                    ?_Beep_Init 0070  
                   _Uart_Init 0A97                  ??_Motor_Init 00A0                      ??___wmul 00A4  
                   _Track_ONE 0AE8                     _Track_TWO 0DDD                     _Track_Run 0015  
                    ?_ENABLE1 0070             __size_of___awtoft 002C             __size_of___ftpack 007B  
           ?_JY62_ReceiveData 0070                      ?_HD_Read 0070                 __pcstackBANK0 0020  
               __pcstackBANK1 00A0            ??_JY62_ReceiveData 004E            __end_of_Motor_Init 0A70  
                 sprintf@_val 00B7                   sprintf@flag 00B5                   sprintf@prec 00B6  
         _Motor_SetRightSpeed 0CFD              ___lwdiv@dividend 00A2                    ?_Uart_Init 0070  
                    ?___awdiv 00A6                    ?_Track_ONE 0070                     __ptext900 0CFD  
                   __ptext901 078D                     __ptext910 0E8E                     __ptext902 0C37  
                   __ptext911 0CB7                     __ptext903 0BC8                     __ptext920 0A35  
                   __ptext912 0D8D                     __ptext904 0B93                     __ptext921 0AB0  
                   __ptext913 0B38                     __ptext905 0E35                     __ptext922 0406  
                   __ptext914 0F7F                     __ptext906 0A60                     __ptext923 0B0C  
                   __ptext915 0B64                     __ptext907 0A52                     __ptext924 0318  
                   __ptext916 07E7                     __ptext908 0A44                     __ptext925 04D5  
                   __ptext917 0A2F                     __ptext909 0218                     __ptext926 064B  
                   __ptext918 0ACC                     __ptext927 0F04                     __ptext919 0A97  
                   __ptext928 0000                     __ptext892 059D                     __ptext893 0DDD  
                    ?___ftdiv 003E                     __ptext894 0AE8                     __ptext895 0015  
                   __ptext896 06F1                    ?_Track_TWO 0070                     __ptext897 0A70  
                   __ptext898 0BFD                     __ptext899 0D45                      ?___ftmul 002E  
                    ?___fttol 0078                    ?_Track_Run 0070                      ?___lwdiv 00A0  
                    ?___lwmod 00A8                     __pstrings 0800          __end_of_point_status 0E8E  
              __size_of_DELAY 001C                   Deal_Yaw@yaw 00B5          __end_of_uart_service 0ACC  
        ?_Motor_SetRightSpeed 0070                  ?_Track_THREE 0070                     _last_flag 00D5  
            ___lwdiv@quotient 00A5                      ?_sprintf 00AE                   ??_Beep_Init 00A0  
           interrupt_function 0004                      _LCD_Init 0C37                ___wmul@product 00A4  
                 _BL_Flag_Num 0067                   __stringbase 080F                      _PWM_Init 07E7  
           ___wmul@multiplier 00A0         ??_Motor_SetRightSpeed 00B1              __size_of_ENABLE1 000E  
                    _Deal_Yaw 06F1         __size_of_Motor_Status 0012                      _Delay_ms 0B64  
            __size_of_HD_Read 0081                      _RxBuffer 005B            _Motor_SetLeftSpeed 0D45  
                 ??_Uart_Init 00A0                   ??_Track_ONE 00BB                   ??_Track_TWO 00BB  
           JY62_ReceiveData@i 0053                   ??_Track_Run 00B5           ?_Motor_SetLeftSpeed 0070  
            __size_of___awdiv 0076              __size_of___ftdiv 00C8    PWM1_SetDutyCycle@dutyCycle 00B0  
            __size_of___ftmul 00EE              __size_of___fttol 00A6                  _Motor_Status 0A70  
            __size_of___lwdiv 0050              __size_of___lwmod 0046            Motor_Status@speedL 00B4  
          Motor_Status@speedR 00B3                      ___awtoft 0B0C                      ___ftpack 0F04  
      JY62_ReceiveData@RxData 0054             _PWM1_SetDutyCycle 0B93               ___lwdiv@divisor 00A0  
             ___lwdiv@counter 00A7            ?_PWM1_SetDutyCycle 0070          ??_Motor_SetLeftSpeed 00B1  
            __size_of_sprintf 0100               Delay_ms@delayMs 00A0           ??_PWM1_SetDutyCycle 00AF  
               __size_of_main 0040                      clear_ram 0A3C         __size_of_point_status 0059  
       __size_of_uart_service 001C       __size_of_LCD_ShowString 005A     __end_of_PWM1_SetDutyCycle 0BC8  
               ??_GanWei_Init 00A0          __size_of_Track_THREE 00AE                      intlevel1 0000  
                   sprintf@ap 00B4                     sprintf@sp 00BB              ___lwmod@dividend 00AA  
   __size_of_JY62_ReceiveData 00CF                  _point_status 0E35                  _uart_service 0AB0  
      __size_of_JY62_ShowData 003A                     stringcode 080A                      sprintf@c 00BC  
                    sprintf@f 00AE               ___lwmod@divisor 00A8               ___lwmod@counter 00AD  
           _PWM2_SetDutyCycle 0BC8                      stringdir 080A                      stringtab 0800  
          ?_PWM2_SetDutyCycle 0070           __end_of_GanWei_Init 0A35           ??_PWM2_SetDutyCycle 00AF  
