

HI-TECH Software PIC LITE Macro Assembler V9.82 build 9453 
                                                                                               Sun Mar 30 12:49:59 2025

HI-TECH Software Omniscient Code Generator (Lite mode) build 9453
     1  0000                     opt subtitle "HI-TECH Software Omniscient Code Generator (Lite mode) build 9453"
     2                           
     3                           opt pagewidth 120
     4                           
     5                           	opt lm
     6                           
     7                           	processor	16F877A
     8                           clrc	macro
     9                           	bcf	3,0
    10  0000                     	endm
    11                           clrz	macro
    12                           	bcf	3,2
    13  0000                     	endm
    14                           setc	macro
    15                           	bsf	3,0
    16  0000                     	endm
    17                           setz	macro
    18                           	bsf	3,2
    19  0000                     	endm
    20                           skipc	macro
    21                           	btfss	3,0
    22  0000                     	endm
    23                           skipz	macro
    24                           	btfss	3,2
    25  0000                     	endm
    26                           skipnc	macro
    27                           	btfsc	3,0
    28  0000                     	endm
    29                           skipnz	macro
    30                           	btfsc	3,2
    31  0000                     	endm
    32  0000                     indf	equ	0
    33  0000                     indf0	equ	0
    34  0002                     pc	equ	2
    35  0002                     pcl	equ	2
    36  0003                     status	equ	3
    37  0004                     fsr	equ	4
    38  0004                     fsr0	equ	4
    39  0001                     c	equ	1
    40  0000                     z	equ	0
    41  000A                     pclath	equ	10
    42                           	FNROOT	_main
    43                           	global	_STATUS
    44                           psect	maintext,global,class=CODE,delta=2
    45                           global __pmaintext
    46  07E5                     __pmaintext:
    47  0003                     _STATUS	set	3
    48                           	global	_CARRY
    49  0018                     _CARRY	set	24
    50                           	global	_GIE
    51  005F                     _GIE	set	95
    52                           	global	_EEADR
    53  010D                     _EEADR	set	269
    54                           	global	_EEDATA
    55  010C                     _EEDATA	set	268
    56                           	global	_EECON1
    57  018C                     _EECON1	set	396
    58                           	global	_EECON2
    59  018D                     _EECON2	set	397
    60                           	global	_RD
    61  0C60                     _RD	set	3168
    62                           	global	_WR
    63  0C61                     _WR	set	3169
    64                           	global	_WREN
    65  0C62                     _WREN	set	3170
    66                           	file	"shy_1.as"
    67                           	line	#
    68                           psect cinit,class=CODE,delta=2
    69                           global start_initialization
    70  07E1                     start_initialization:
    71                           
    72                           psect cinit,class=CODE,delta=2
    73                           global end_of_initialization
    74                           
    75                           ;End of C runtime variable initialization code
    76                           
    77  07E1                     end_of_initialization:
    78  07E1  0183               clrf status
    79  07E2  120A  118A  2FE5   ljmp _main	;jump to C main() function
    80                           psect	cstackCOMMON,class=COMMON,space=1
    81                           global __pcstackCOMMON
    82  0000                     __pcstackCOMMON:
    83                           	global	??_main
    84  0000                     ??_main:	; 0 bytes @ 0x0
    85                           	global	?_main
    86  0000                     ?_main:	; 2 bytes @ 0x0
    87 ;;Data sizes: Strings 0, constant 0, data 0, bss 0, persistent 0 stack 0
    88 ;;Auto spaces:   Size  Autos    Used
    89 ;; COMMON          14      0       0
    90 ;; BANK0           80      0       0
    91 ;; BANK1           80      0       0
    92 ;; BANK3           96      0       0
    93 ;; BANK2           96      0       0
    94                           
    95 ;;
    96 ;; Pointer list with targets:
    97                           
    98                           
    99                           
   100 ;;
   101 ;; Critical Paths under _main in COMMON
   102 ;;
   103 ;;   None.
   104 ;;
   105 ;; Critical Paths under _main in BANK0
   106 ;;
   107 ;;   None.
   108 ;;
   109 ;; Critical Paths under _main in BANK1
   110 ;;
   111 ;;   None.
   112 ;;
   113 ;; Critical Paths under _main in BANK3
   114 ;;
   115 ;;   None.
   116 ;;
   117 ;; Critical Paths under _main in BANK2
   118 ;;
   119 ;;   None.
   120                           
   121 ;;
   122 ;;Main: autosize = 0, tempsize = 0, incstack = 0, save=0
   123 ;;
   124                           
   125 ;;
   126 ;;Call Graph Tables:
   127 ;;
   128 ;; ---------------------------------------------------------------------------------
   129 ;; (Depth) Function   	        Calls       Base Space   Used Autos Params    Refs
   130 ;; ---------------------------------------------------------------------------------
   131 ;; (0) _main                                                 0     0      0       0
   132 ;; ---------------------------------------------------------------------------------
   133 ;; Estimated maximum stack depth 0
   134 ;; ---------------------------------------------------------------------------------
   135                           
   136 ;; Call Graph Graphs:
   137                           
   138 ;; _main (ROOT)
   139 ;;
   140                           
   141 ;; Address spaces:
   142                           
   143 ;;Name               Size   Autos  Total    Cost      Usage
   144 ;;BITCOMMON            E      0       0       0        0.0%
   145 ;;EEDATA             100      0       0       0        0.0%
   146 ;;NULL                 0      0       0       0        0.0%
   147 ;;CODE                 0      0       0       0        0.0%
   148 ;;COMMON               E      0       0       1        0.0%
   149 ;;BITSFR0              0      0       0       1        0.0%
   150 ;;SFR0                 0      0       0       1        0.0%
   151 ;;BITSFR1              0      0       0       2        0.0%
   152 ;;SFR1                 0      0       0       2        0.0%
   153 ;;STACK                0      0       0       2        0.0%
   154 ;;ABS                  0      0       0       3        0.0%
   155 ;;BITBANK0            50      0       0       4        0.0%
   156 ;;BITSFR3              0      0       0       4        0.0%
   157 ;;SFR3                 0      0       0       4        0.0%
   158 ;;BANK0               50      0       0       5        0.0%
   159 ;;BITSFR2              0      0       0       5        0.0%
   160 ;;SFR2                 0      0       0       5        0.0%
   161 ;;BITBANK1            50      0       0       6        0.0%
   162 ;;BANK1               50      0       0       7        0.0%
   163 ;;BITBANK3            60      0       0       8        0.0%
   164 ;;BANK3               60      0       0       9        0.0%
   165 ;;BITBANK2            60      0       0      10        0.0%
   166 ;;BANK2               60      0       0      11        0.0%
   167 ;;DATA                 0      0       0      12        0.0%
   168                           
   169                           	global	_main
   170                           psect	maintext
   171                           
   172 ;; *************** function _main *****************
   173 ;; Defined at:
   174 ;;		line 3 in file "E:\MPLAB_IDE\shy_1\shy_1.c"
   175 ;; Parameters:    Size  Location     Type
   176 ;;		None
   177 ;; Auto vars:     Size  Location     Type
   178 ;;		None
   179 ;; Return value:  Size  Location     Type
   180 ;;                  2  684[COMMON] int 
   181 ;; Registers used:
   182 ;;		None
   183 ;; Tracked objects:
   184 ;;		On entry : 17F/0
   185 ;;		On exit  : 0/0
   186 ;;		Unchanged: 0/0
   187 ;; Data sizes:     COMMON   BANK0   BANK1   BANK3   BANK2
   188 ;;      Params:         0       0       0       0       0
   189 ;;      Locals:         0       0       0       0       0
   190 ;;      Temps:          0       0       0       0       0
   191 ;;      Totals:         0       0       0       0       0
   192 ;;Total ram usage:        0 bytes
   193 ;; This function calls:
   194 ;;		Nothing
   195 ;; This function is called by:
   196 ;;		Startup code after reset
   197 ;; This function uses a non-reentrant model
   198 ;;
   199                           psect	maintext
   200                           	file	"E:\MPLAB_IDE\shy_1\shy_1.c"
   201                           	line	3
   202                           	global	__size_of_main
   203  001B                     	__size_of_main	equ	__end_of_main-_main
   204                           	
   205  07E5                     _main:	
   206                           	opt	stack 8
   207                           ; Regs used in _main: []
   208                           	line	5
   209                           	
   210  07E5                     l1733:	
   211                           # 5 "E:\MPLAB_IDE\shy_1\shy_1.c"
   212  07E5  0183                       CLRF _STATUS,F ;#
   213                           	line	6
   214                           # 6 "E:\MPLAB_IDE\shy_1\shy_1.c"
   215  07E6  1BB0                 BTFSC 30H,7 ;#
   216                           	line	7
   217                           # 7 "E:\MPLAB_IDE\shy_1\shy_1.c"
   218  07E7  2FE9                 GOTO LOOP1 ;#
   219                           	line	8
   220                           # 8 "E:\MPLAB_IDE\shy_1\shy_1.c"
   221  07E8  2FEC                 GOTO LOOP2 ;#
   222                           	line	9
   223                           # 9 "E:\MPLAB_IDE\shy_1\shy_1.c"
   224  07E9                     LOOP1: COMF 30H,F ;#
      + 07E9  09B0               	comf	48,f
   225                           	line	10
   226                           # 10 "E:\MPLAB_IDE\shy_1\shy_1.c"
   227  07EA  0AB0                 INCF 30H,F ;#
   228                           	line	11
   229                           # 11 "E:\MPLAB_IDE\shy_1\shy_1.c"
   230  07EB  17B0                 BSF 30H,7 ;#
   231                           	line	12
   232                           # 12 "E:\MPLAB_IDE\shy_1\shy_1.c"
   233  07EC                     LOOP2: BTFSC 31H,7 ;#
      + 07EC  1BB1               	btfsc	49,7
   234                           	line	13
   235                           # 13 "E:\MPLAB_IDE\shy_1\shy_1.c"
   236  07ED  2FEF                 GOTO LOOP4 ;#
   237                           	line	14
   238                           # 14 "E:\MPLAB_IDE\shy_1\shy_1.c"
   239  07EE  2FF2                 GOTO LOOP3 ;#
   240                           	line	15
   241                           # 15 "E:\MPLAB_IDE\shy_1\shy_1.c"
   242  07EF                     LOOP4: COMF 31H,F ;#
      + 07EF  09B1               	comf	49,f
   243                           	line	16
   244                           # 16 "E:\MPLAB_IDE\shy_1\shy_1.c"
   245  07F0  0AB1                 INCF 31H,F ;#
   246                           	line	17
   247                           # 17 "E:\MPLAB_IDE\shy_1\shy_1.c"
   248  07F1  17B1                 BSF 31H,7 ;#
   249                           	line	18
   250                           # 18 "E:\MPLAB_IDE\shy_1\shy_1.c"
   251  07F2                     LOOP3: MOVF 30H,W ;#
      + 07F2  0830               	movf	48,w
   252                           	line	19
   253                           # 19 "E:\MPLAB_IDE\shy_1\shy_1.c"
   254  07F3  07B1                 ADDWF 31H,F ;#
   255                           	line	20
   256                           # 20 "E:\MPLAB_IDE\shy_1\shy_1.c"
   257  07F4  1BB1                 BTFSC 31H,7 ;#
   258                           	line	21
   259                           # 21 "E:\MPLAB_IDE\shy_1\shy_1.c"
   260  07F5  2FF7                 GOTO LOOP5 ;#
   261                           	line	22
   262                           # 22 "E:\MPLAB_IDE\shy_1\shy_1.c"
   263  07F6  2FFA                 GOTO LOOP6 ;#
   264                           	line	23
   265                           # 23 "E:\MPLAB_IDE\shy_1\shy_1.c"
   266  07F7                     LOOP5: COMF 31H,F ;#
      + 07F7  09B1               	comf	49,f
   267                           	line	24
   268                           # 24 "E:\MPLAB_IDE\shy_1\shy_1.c"
   269  07F8  0AB1                 INCF 31H,F ;#
   270                           	line	25
   271                           # 25 "E:\MPLAB_IDE\shy_1\shy_1.c"
   272  07F9  17B1                 BSF 31H,7 ;#
   273                           	line	26
   274                           # 26 "E:\MPLAB_IDE\shy_1\shy_1.c"
   275  07FA                     LOOP6: MOVF 31H,W ;#
      + 07FA  0831               	movf	49,w
   276                           	line	27
   277                           # 27 "E:\MPLAB_IDE\shy_1\shy_1.c"
   278  07FB  00B2                 MOVWF 32H ;#
   279                           psect	maintext
   280                           	line	30
   281                           ;shy_1.c: 30: loop:goto loop;
   282                           	
   283  07FC                     l685:	
   284  07FC  2FFC               	goto	l685
   285                           	line	32
   286                           	
   287  07FD                     l686:	
   288                           	global	start
   289  07FD  120A  118A  2800   	ljmp	start
   290                           	opt stack 0
   291                           GLOBAL	__end_of_main
   292  0800                     	__end_of_main:
   293 ;; =============== function _main ends ============
   294                           
   295                           	signat	_main,90
   296                           psect	maintext
   297                           	global	btemp
   298  007E                     	btemp set 07Eh
   299                           
   300                           	DABS	1,126,2	;btemp
   301                           	global	wtemp0
   302  007E                     	wtemp0 set btemp


HI-TECH Software PICC Macro Assembler V9.82 build 9453 
Symbol Table                                                                                   Sun Mar 30 12:49:59 2025

                  _RD 0C60                    _WR 0C61                   l685 07FC                   l686 07FD  
                 _GIE 005F                  LOOP1 07E9                  LOOP2 07EC                  LOOP3 07F2  
                LOOP4 07EF                  LOOP5 07F7                  LOOP6 07FA                  l1733 07E5  
                _WREN 0C62                  _main 07E5                  btemp 007E                  start 0000  
               ?_main 0000                 _EEADR 010D                 _CARRY 0018                 status 0003  
               wtemp0 007E          __end_of_main 0800                ??_main 0000                _EEDATA 010C  
              _EECON1 018C                _EECON2 018D                _STATUS 0003        __pcstackCOMMON 0000  
          __pmaintext 07E5  end_of_initialization 07E1   start_initialization 07E1         __size_of_main 001B  
