

HI-TECH Software PIC LITE Macro Assembler V9.82 build 9453 
                                                                                               Tue Apr 15 22:40:14 2025

HI-TECH Software Omniscient Code Generator (Lite mode) build 9453
     1  0000                     opt subtitle "HI-TECH Software Omniscient Code Generator (Lite mode) build 9453"
     2                           
     3                           opt pagewidth 120
     4                           
     5                           	opt lm
     6                           
     7                           	processor	16F877A
     8                           clrc	macro
     9                           	bcf	3,0
    10  0000                     	endm
    11                           clrz	macro
    12                           	bcf	3,2
    13  0000                     	endm
    14                           setc	macro
    15                           	bsf	3,0
    16  0000                     	endm
    17                           setz	macro
    18                           	bsf	3,2
    19  0000                     	endm
    20                           skipc	macro
    21                           	btfss	3,0
    22  0000                     	endm
    23                           skipz	macro
    24                           	btfss	3,2
    25  0000                     	endm
    26                           skipnc	macro
    27                           	btfsc	3,0
    28  0000                     	endm
    29                           skipnz	macro
    30                           	btfsc	3,2
    31  0000                     	endm
    32  0000                     indf	equ	0
    33  0000                     indf0	equ	0
    34  0002                     pc	equ	2
    35  0002                     pcl	equ	2
    36  0003                     status	equ	3
    37  0004                     fsr	equ	4
    38  0004                     fsr0	equ	4
    39  0001                     c	equ	1
    40  0000                     z	equ	0
    41  000A                     pclath	equ	10
    42                           # 2 "E:\MPLAB_IDE\shy_4\main.c"
    43                           	psect config,class=CONFIG,delta=2 ;#
    44                           # 2 "E:\MPLAB_IDE\shy_4\main.c"
    45  2007  FF29               	dw 0xFF29 ;#
    46                           # 3 "E:\MPLAB_IDE\shy_4\main.c"
    47                           	psect eeprom_data,class=EEDATA,delta=2,space=2 ;#
    48                           # 3 "E:\MPLAB_IDE\shy_4\main.c"
    49  0000  00B0 0027 0009     	db	0xB0,0x27,9,0,0,0,0,0 ;#
              0000 0000 0000     
              0000 0000          
    50                           	FNCALL	_main,_DELAY
    51                           	FNCALL	_main,_ENABLE
    52                           	FNCALL	_main,_eeprom_read
    53                           	FNCALL	_main,_div
    54                           	FNCALL	_main,_ENABLE1
    55                           	FNCALL	_main,_eeprom_write
    56                           	FNCALL	_main,_speed_calculate
    57                           	FNCALL	_speed_calculate,___awdiv
    58                           	FNCALL	_speed_calculate,___bmul
    59                           	FNCALL	_div,___lldiv
    60                           	FNCALL	_div,___lmul
    61                           	FNCALL	_div,___aldiv
    62                           	FNCALL	_div,___wmul
    63                           	FNCALL	_div,___awdiv
    64                           	FNCALL	_div,___bmul
    65                           	FNCALL	_ENABLE1,_DELAY
    66                           	FNCALL	_ENABLE,_DELAY
    67                           	FNROOT	_main
    68                           	FNCALL	intlevel1,_int_serve
    69                           	global	intlevel1
    70                           	FNROOT	intlevel1
    71                           	global	_table
    72                           psect	idataBANK0,class=CODE,space=0,delta=2
    73                           global __pidataBANK0
    74  064C                     __pidataBANK0:
    75                           	file	"E:\MPLAB_IDE\shy_4\main.c"
    76                           	line	6
    77                           
    78                           ;initializer for _table
    79  064C  3430               	retlw	030h
    80  064D  3431               	retlw	031h
    81  064E  3432               	retlw	032h
    82  064F  3433               	retlw	033h
    83  0650  3434               	retlw	034h
    84  0651  3435               	retlw	035h
    85  0652  3436               	retlw	036h
    86  0653  3437               	retlw	037h
    87  0654  3438               	retlw	038h
    88  0655  3439               	retlw	039h
    89                           	global	_li_cheng
    90                           	global	_count_temp
    91                           	global	_n
    92                           	global	_b
    93                           	global	_c
    94                           	global	_d1
    95                           	global	_e
    96                           	global	_e1
    97                           	global	_f
    98                           	global	_f1
    99                           	global	_m
   100                           	global	_tmr01
   101                           	global	_tmr02
   102                           	global	_t_speed
   103                           	global	_a
   104                           	global	_d
   105                           	global	_speed
   106                           	global	_PORTD
   107  0008                     _PORTD	set	8
   108                           	global	_TMR0
   109  0001                     _TMR0	set	1
   110                           	global	_CARRY
   111  0018                     _CARRY	set	24
   112                           	global	_GIE
   113  005F                     _GIE	set	95
   114                           	global	_INTE
   115  005C                     _INTE	set	92
   116                           	global	_INTF
   117  0059                     _INTF	set	89
   118                           	global	_RA3
   119  002B                     _RA3	set	43
   120                           	global	_RA4
   121  002C                     _RA4	set	44
   122                           	global	_RA5
   123  002D                     _RA5	set	45
   124                           	global	_RE0
   125  0048                     _RE0	set	72
   126                           	global	_T0IE
   127  005D                     _T0IE	set	93
   128                           	global	_T0IF
   129  005A                     _T0IF	set	90
   130                           	global	_ADCON1
   131  009F                     _ADCON1	set	159
   132                           	global	_OPTION_REG
   133  0081                     _OPTION_REG	set	129
   134                           	global	_TRISA
   135  0085                     _TRISA	set	133
   136                           	global	_TRISD
   137  0088                     _TRISD	set	136
   138                           	global	_TRISA0
   139  0428                     _TRISA0	set	1064
   140                           	global	_TRISB0
   141  0430                     _TRISB0	set	1072
   142                           	global	_TRISE0
   143  0448                     _TRISE0	set	1096
   144                           	global	_EEADR
   145  010D                     _EEADR	set	269
   146                           	global	_EEDATA
   147  010C                     _EEDATA	set	268
   148                           	global	_EECON1
   149  018C                     _EECON1	set	396
   150                           	global	_EECON2
   151  018D                     _EECON2	set	397
   152                           	global	_RD
   153  0C60                     _RD	set	3168
   154                           	global	_WR
   155  0C61                     _WR	set	3169
   156                           	global	_WREN
   157  0C62                     _WREN	set	3170
   158                           	file	"shy_4.as"
   159                           	line	#
   160                           psect cinit,class=CODE,delta=2
   161                           global start_initialization
   162  05CB                     start_initialization:
   163                           
   164                           psect	bssCOMMON,class=COMMON,space=1
   165                           global __pbssCOMMON
   166  007A                     __pbssCOMMON:
   167  007A                     _tmr01:
   168  007A                            ds      1
   169                           
   170  007B                     _tmr02:
   171  007B                            ds      1
   172                           
   173                           psect	bssBANK0,class=BANK0,space=1
   174                           global __pbssBANK0
   175  0043                     __pbssBANK0:
   176  0043                     _li_cheng:
   177  0043                            ds      4
   178                           
   179  0047                     _count_temp:
   180  0047                            ds      2
   181                           
   182  0049                     _n:
   183  0049                            ds      2
   184                           
   185  004B                     _b:
   186  004B                            ds      1
   187                           
   188  004C                     _c:
   189  004C                            ds      1
   190                           
   191  004D                     _d1:
   192  004D                            ds      1
   193                           
   194  004E                     _e:
   195  004E                            ds      1
   196                           
   197  004F                     _e1:
   198  004F                            ds      1
   199                           
   200  0050                     _f:
   201  0050                            ds      1
   202                           
   203  0051                     _f1:
   204  0051                            ds      1
   205                           
   206  0052                     _m:
   207  0052                            ds      1
   208                           
   209  0053                     _t_speed:
   210  0053                            ds      2
   211                           
   212  0055                     _a:
   213  0055                            ds      1
   214                           
   215  0056                     _d:
   216  0056                            ds      1
   217                           
   218  0057                     _speed:
   219  0057                            ds      1
   220                           
   221                           psect	dataBANK0,class=BANK0,space=1
   222                           global __pdataBANK0
   223  0058                     __pdataBANK0:
   224                           	file	"E:\MPLAB_IDE\shy_4\main.c"
   225  0058                     _table:
   226  0058                            ds      10
   227                           
   228                           psect clrtext,class=CODE,delta=2
   229                           global clear_ram
   230                           ;	Called with FSR containing the base address, and
   231                           ;	W with the last address+1
   232  0656                     clear_ram:
   233  0656  0064               	clrwdt			;clear the watchdog before getting into this loop
   234  0657                     clrloop:
   235  0657  0180               	clrf	indf		;clear RAM location pointed to by FSR
   236  0658  0A84               	incf	fsr,f		;increment pointer
   237  0659  0604               	xorwf	fsr,w		;XOR with final address
   238  065A  1903               	btfsc	status,2	;have we reached the end yet?
   239  065B  3400               	retlw	0		;all done for this memory range, return
   240  065C  0604               	xorwf	fsr,w		;XOR again to restore value
   241  065D  2E57               	goto	clrloop		;do the next byte
   242                           
   243                           ; Clear objects allocated to COMMON
   244                           psect cinit,class=CODE,delta=2
   245  05CB  01FA               	clrf	((__pbssCOMMON)+0)&07Fh
   246  05CC  01FB               	clrf	((__pbssCOMMON)+1)&07Fh
   247                           ; Clear objects allocated to BANK0
   248                           psect cinit,class=CODE,delta=2
   249  05CD  1383               	bcf	status, 7	;select IRP bank0
   250  05CE  3043               	movlw	low(__pbssBANK0)
   251  05CF  0084               	movwf	fsr
   252  05D0  3058               	movlw	low((__pbssBANK0)+015h)
   253  05D1  120A  118A  2656   	fcall	clear_ram
              120A  118A         
   254                           global btemp
   255                           psect inittext,class=CODE,delta=2
   256                           global init_fetch,btemp
   257                           ;	Called with low address in FSR and high address in W
   258  061D                     init_fetch:
   259  061D  087E               	movf btemp,w
   260  061E  008A               	movwf pclath
   261  061F  087F               	movf btemp+1,w
   262  0620  0082               	movwf pc
   263                           global init_ram
   264                           ;Called with:
   265                           ;	high address of idata address in btemp 
   266                           ;	low address of idata address in btemp+1 
   267                           ;	low address of data in FSR
   268                           ;	high address + 1 of data in btemp-1
   269  0621                     init_ram:
   270  0621  120A  118A  261D   	fcall init_fetch
              120A  118A         
   271  0626  0080               	movwf indf,f
   272  0627  0A84               	incf fsr,f
   273  0628  0804               	movf fsr,w
   274  0629  067D               	xorwf btemp-1,w
   275  062A  1903               	btfsc status,2
   276  062B  3400               	retlw 0
   277  062C  0AFF               	incf btemp+1,f
   278  062D  1903               	btfsc status,2
   279  062E  0AFE               	incf btemp,f
   280  062F  2E21               	goto init_ram
   281                           ; Initialize objects allocated to BANK0
   282                           psect cinit,class=CODE,delta=2
   283                           global init_ram, __pidataBANK0
   284  05D6  3062               	movlw low(__pdataBANK0+10)
   285  05D7  00FD               	movwf btemp-1,f
   286  05D8  3006               	movlw high(__pidataBANK0)
   287  05D9  00FE               	movwf btemp,f
   288  05DA  304C               	movlw low(__pidataBANK0)
   289  05DB  00FF               	movwf btemp+1,f
   290  05DC  3058               	movlw low(__pdataBANK0)
   291  05DD  0084               	movwf fsr,f
   292  05DE  120A  118A  2621   	fcall init_ram
              120A  118A         
   293                           psect cinit,class=CODE,delta=2
   294                           global end_of_initialization
   295                           
   296                           ;End of C runtime variable initialization code
   297                           
   298  05E3                     end_of_initialization:
   299  05E3  0183               clrf status
   300  05E4  120A  118A  2815   ljmp _main	;jump to C main() function
   301                           psect	cstackCOMMON,class=COMMON,space=1
   302                           global __pcstackCOMMON
   303  0070                     __pcstackCOMMON:
   304                           	global	?_DELAY
   305  0070                     ?_DELAY:	; 0 bytes @ 0x0
   306                           	global	?_ENABLE
   307  0070                     ?_ENABLE:	; 0 bytes @ 0x0
   308                           	global	?_ENABLE1
   309  0070                     ?_ENABLE1:	; 0 bytes @ 0x0
   310                           	global	?_div
   311  0070                     ?_div:	; 0 bytes @ 0x0
   312                           	global	?_speed_calculate
   313  0070                     ?_speed_calculate:	; 0 bytes @ 0x0
   314                           	global	?_int_serve
   315  0070                     ?_int_serve:	; 0 bytes @ 0x0
   316                           	global	??_int_serve
   317  0070                     ??_int_serve:	; 0 bytes @ 0x0
   318                           	global	?_eeprom_read
   319  0070                     ?_eeprom_read:	; 1 bytes @ 0x0
   320                           	global	?_main
   321  0070                     ?_main:	; 2 bytes @ 0x0
   322  0070                     	ds	10
   323                           psect	cstackBANK0,class=BANK0,space=1
   324                           global __pcstackBANK0
   325  0020                     __pcstackBANK0:
   326                           	global	??_eeprom_read
   327  0020                     ??_eeprom_read:	; 0 bytes @ 0x0
   328                           	global	??_DELAY
   329  0020                     ??_DELAY:	; 0 bytes @ 0x0
   330                           	global	?_eeprom_write
   331  0020                     ?_eeprom_write:	; 1 bytes @ 0x0
   332                           	global	?___bmul
   333  0020                     ?___bmul:	; 1 bytes @ 0x0
   334                           	global	?___wmul
   335  0020                     ?___wmul:	; 2 bytes @ 0x0
   336                           	global	?___awdiv
   337  0020                     ?___awdiv:	; 2 bytes @ 0x0
   338                           	global	?___lmul
   339  0020                     ?___lmul:	; 4 bytes @ 0x0
   340                           	global	?___lldiv
   341  0020                     ?___lldiv:	; 4 bytes @ 0x0
   342                           	global	?___aldiv
   343  0020                     ?___aldiv:	; 4 bytes @ 0x0
   344                           	global	eeprom_write@value
   345  0020                     eeprom_write@value:	; 1 bytes @ 0x0
   346                           	global	___bmul@multiplicand
   347  0020                     ___bmul@multiplicand:	; 1 bytes @ 0x0
   348                           	global	DELAY@i
   349  0020                     DELAY@i:	; 2 bytes @ 0x0
   350                           	global	___wmul@multiplier
   351  0020                     ___wmul@multiplier:	; 2 bytes @ 0x0
   352                           	global	___awdiv@divisor
   353  0020                     ___awdiv@divisor:	; 2 bytes @ 0x0
   354                           	global	___lmul@multiplier
   355  0020                     ___lmul@multiplier:	; 4 bytes @ 0x0
   356                           	global	___lldiv@divisor
   357  0020                     ___lldiv@divisor:	; 4 bytes @ 0x0
   358                           	global	___aldiv@divisor
   359  0020                     ___aldiv@divisor:	; 4 bytes @ 0x0
   360  0020                     	ds	1
   361                           	global	??_eeprom_write
   362  0021                     ??_eeprom_write:	; 0 bytes @ 0x1
   363                           	global	??___bmul
   364  0021                     ??___bmul:	; 0 bytes @ 0x1
   365                           	global	eeprom_read@addr
   366  0021                     eeprom_read@addr:	; 1 bytes @ 0x1
   367  0021                     	ds	1
   368                           	global	??_ENABLE
   369  0022                     ??_ENABLE:	; 0 bytes @ 0x2
   370                           	global	??_ENABLE1
   371  0022                     ??_ENABLE1:	; 0 bytes @ 0x2
   372                           	global	eeprom_write@addr
   373  0022                     eeprom_write@addr:	; 1 bytes @ 0x2
   374                           	global	___bmul@product
   375  0022                     ___bmul@product:	; 1 bytes @ 0x2
   376                           	global	___wmul@multiplicand
   377  0022                     ___wmul@multiplicand:	; 2 bytes @ 0x2
   378                           	global	___awdiv@dividend
   379  0022                     ___awdiv@dividend:	; 2 bytes @ 0x2
   380  0022                     	ds	1
   381                           	global	___bmul@multiplier
   382  0023                     ___bmul@multiplier:	; 1 bytes @ 0x3
   383  0023                     	ds	1
   384                           	global	??___wmul
   385  0024                     ??___wmul:	; 0 bytes @ 0x4
   386                           	global	??___awdiv
   387  0024                     ??___awdiv:	; 0 bytes @ 0x4
   388                           	global	___wmul@product
   389  0024                     ___wmul@product:	; 2 bytes @ 0x4
   390                           	global	___lmul@multiplicand
   391  0024                     ___lmul@multiplicand:	; 4 bytes @ 0x4
   392                           	global	___lldiv@dividend
   393  0024                     ___lldiv@dividend:	; 4 bytes @ 0x4
   394                           	global	___aldiv@dividend
   395  0024                     ___aldiv@dividend:	; 4 bytes @ 0x4
   396  0024                     	ds	1
   397                           	global	___awdiv@counter
   398  0025                     ___awdiv@counter:	; 1 bytes @ 0x5
   399  0025                     	ds	1
   400                           	global	___awdiv@sign
   401  0026                     ___awdiv@sign:	; 1 bytes @ 0x6
   402  0026                     	ds	1
   403                           	global	___awdiv@quotient
   404  0027                     ___awdiv@quotient:	; 2 bytes @ 0x7
   405  0027                     	ds	1
   406                           	global	??___lmul
   407  0028                     ??___lmul:	; 0 bytes @ 0x8
   408                           	global	??___lldiv
   409  0028                     ??___lldiv:	; 0 bytes @ 0x8
   410                           	global	??___aldiv
   411  0028                     ??___aldiv:	; 0 bytes @ 0x8
   412  0028                     	ds	1
   413                           	global	??_speed_calculate
   414  0029                     ??_speed_calculate:	; 0 bytes @ 0x9
   415                           	global	___aldiv@counter
   416  0029                     ___aldiv@counter:	; 1 bytes @ 0x9
   417                           	global	___lmul@product
   418  0029                     ___lmul@product:	; 4 bytes @ 0x9
   419                           	global	___lldiv@quotient
   420  0029                     ___lldiv@quotient:	; 4 bytes @ 0x9
   421  0029                     	ds	1
   422                           	global	___aldiv@sign
   423  002A                     ___aldiv@sign:	; 1 bytes @ 0xA
   424  002A                     	ds	1
   425                           	global	___aldiv@quotient
   426  002B                     ___aldiv@quotient:	; 4 bytes @ 0xB
   427  002B                     	ds	1
   428                           	global	speed_calculate@z
   429  002C                     speed_calculate@z:	; 1 bytes @ 0xC
   430  002C                     	ds	1
   431                           	global	___lldiv@counter
   432  002D                     ___lldiv@counter:	; 1 bytes @ 0xD
   433  002D                     	ds	2
   434                           	global	??_div
   435  002F                     ??_div:	; 0 bytes @ 0xF
   436  002F                     	ds	12
   437                           	global	div@x
   438  003B                     div@x:	; 4 bytes @ 0x1B
   439  003B                     	ds	4
   440                           	global	div@z
   441  003F                     div@z:	; 1 bytes @ 0x1F
   442  003F                     	ds	1
   443                           	global	div@y
   444  0040                     div@y:	; 2 bytes @ 0x20
   445  0040                     	ds	2
   446                           	global	??_main
   447  0042                     ??_main:	; 0 bytes @ 0x22
   448  0042                     	ds	1
   449 ;;Data sizes: Strings 0, constant 0, data 10, bss 23, persistent 0 stack 0
   450 ;;Auto spaces:   Size  Autos    Used
   451 ;; COMMON          14     10      12
   452 ;; BANK0           80     35      66
   453 ;; BANK1           80      0       0
   454 ;; BANK3           96      0       0
   455 ;; BANK2           96      0       0
   456                           
   457 ;;
   458 ;; Pointer list with targets:
   459                           
   460 ;; ?___awdiv	int  size(1) Largest target is 0
   461 ;;
   462 ;; ?___wmul	unsigned int  size(1) Largest target is 0
   463 ;;
   464 ;; ?___aldiv	long  size(1) Largest target is 0
   465 ;;
   466 ;; ?___lmul	unsigned long  size(1) Largest target is 0
   467 ;;
   468 ;; ?___lldiv	unsigned long  size(1) Largest target is 0
   469 ;;
   470                           
   471                           
   472 ;;
   473 ;; Critical Paths under _main in COMMON
   474 ;;
   475 ;;   None.
   476 ;;
   477 ;; Critical Paths under _int_serve in COMMON
   478 ;;
   479 ;;   None.
   480 ;;
   481 ;; Critical Paths under _main in BANK0
   482 ;;
   483 ;;   _main->_div
   484 ;;   _speed_calculate->___awdiv
   485 ;;   _div->___aldiv
   486 ;;   _ENABLE1->_DELAY
   487 ;;   _ENABLE->_DELAY
   488 ;;
   489 ;; Critical Paths under _int_serve in BANK0
   490 ;;
   491 ;;   None.
   492 ;;
   493 ;; Critical Paths under _main in BANK1
   494 ;;
   495 ;;   None.
   496 ;;
   497 ;; Critical Paths under _int_serve in BANK1
   498 ;;
   499 ;;   None.
   500 ;;
   501 ;; Critical Paths under _main in BANK3
   502 ;;
   503 ;;   None.
   504 ;;
   505 ;; Critical Paths under _int_serve in BANK3
   506 ;;
   507 ;;   None.
   508 ;;
   509 ;; Critical Paths under _main in BANK2
   510 ;;
   511 ;;   None.
   512 ;;
   513 ;; Critical Paths under _int_serve in BANK2
   514 ;;
   515 ;;   None.
   516                           
   517 ;;
   518 ;;Main: autosize = 0, tempsize = 1, incstack = 0, save=0
   519 ;;
   520                           
   521 ;;
   522 ;;Call Graph Tables:
   523 ;;
   524 ;; ---------------------------------------------------------------------------------
   525 ;; (Depth) Function   	        Calls       Base Space   Used Autos Params    Refs
   526 ;; ---------------------------------------------------------------------------------
   527 ;; (0) _main                                                 1     1      0    1865
   528 ;;                                             34 BANK0      1     1      0
   529 ;;                              _DELAY
   530 ;;                             _ENABLE
   531 ;;                        _eeprom_read
   532 ;;                                _div
   533 ;;                            _ENABLE1
   534 ;;                       _eeprom_write
   535 ;;                    _speed_calculate
   536 ;; ---------------------------------------------------------------------------------
   537 ;; (1) _speed_calculate                                      4     4      0     437
   538 ;;                                              9 BANK0      4     4      0
   539 ;;                            ___awdiv
   540 ;;                             ___bmul
   541 ;; ---------------------------------------------------------------------------------
   542 ;; (1) _div                                                 19    19      0    1218
   543 ;;                                             15 BANK0     19    19      0
   544 ;;                            ___lldiv
   545 ;;                             ___lmul
   546 ;;                            ___aldiv
   547 ;;                             ___wmul
   548 ;;                            ___awdiv
   549 ;;                             ___bmul
   550 ;; ---------------------------------------------------------------------------------
   551 ;; (1) _ENABLE1                                              0     0      0      46
   552 ;;                              _DELAY
   553 ;; ---------------------------------------------------------------------------------
   554 ;; (1) _ENABLE                                               0     0      0      46
   555 ;;                              _DELAY
   556 ;; ---------------------------------------------------------------------------------
   557 ;; (2) ___aldiv                                             15     7      8     300
   558 ;;                                              0 BANK0     15     7      8
   559 ;; ---------------------------------------------------------------------------------
   560 ;; (2) ___lldiv                                             14     6      8     162
   561 ;;                                              0 BANK0     14     6      8
   562 ;; ---------------------------------------------------------------------------------
   563 ;; (2) ___awdiv                                              9     5      4     300
   564 ;;                                              0 BANK0      9     5      4
   565 ;; ---------------------------------------------------------------------------------
   566 ;; (2) ___lmul                                              13     5      8      92
   567 ;;                                              0 BANK0     13     5      8
   568 ;; ---------------------------------------------------------------------------------
   569 ;; (2) ___wmul                                               6     2      4      92
   570 ;;                                              0 BANK0      6     2      4
   571 ;; ---------------------------------------------------------------------------------
   572 ;; (2) ___bmul                                               4     3      1      92
   573 ;;                                              0 BANK0      4     3      1
   574 ;; ---------------------------------------------------------------------------------
   575 ;; (1) _eeprom_write                                         3     2      1      50
   576 ;;                                              0 BANK0      3     2      1
   577 ;; ---------------------------------------------------------------------------------
   578 ;; (1) _eeprom_read                                          2     2      0      22
   579 ;;                                              0 BANK0      2     2      0
   580 ;; ---------------------------------------------------------------------------------
   581 ;; (2) _DELAY                                                2     2      0      46
   582 ;;                                              0 BANK0      2     2      0
   583 ;; ---------------------------------------------------------------------------------
   584 ;; Estimated maximum stack depth 2
   585 ;; ---------------------------------------------------------------------------------
   586 ;; (Depth) Function   	        Calls       Base Space   Used Autos Params    Refs
   587 ;; ---------------------------------------------------------------------------------
   588 ;; (3) _int_serve                                           10    10      0       0
   589 ;;                                              0 COMMON    10    10      0
   590 ;; ---------------------------------------------------------------------------------
   591 ;; Estimated maximum stack depth 3
   592 ;; ---------------------------------------------------------------------------------
   593                           
   594 ;; Call Graph Graphs:
   595                           
   596 ;; _main (ROOT)
   597 ;;   _DELAY
   598 ;;   _ENABLE
   599 ;;     _DELAY
   600 ;;   _eeprom_read
   601 ;;   _div
   602 ;;     ___lldiv
   603 ;;     ___lmul
   604 ;;     ___aldiv
   605 ;;     ___wmul
   606 ;;     ___awdiv
   607 ;;     ___bmul
   608 ;;   _ENABLE1
   609 ;;     _DELAY
   610 ;;   _eeprom_write
   611 ;;   _speed_calculate
   612 ;;     ___awdiv
   613 ;;     ___bmul
   614 ;;
   615 ;; _int_serve (ROOT)
   616 ;;
   617                           
   618 ;; Address spaces:
   619                           
   620 ;;Name               Size   Autos  Total    Cost      Usage
   621 ;;BANK3               60      0       0       9        0.0%
   622 ;;BITBANK3            60      0       0       8        0.0%
   623 ;;SFR3                 0      0       0       4        0.0%
   624 ;;BITSFR3              0      0       0       4        0.0%
   625 ;;BANK2               60      0       0      11        0.0%
   626 ;;BITBANK2            60      0       0      10        0.0%
   627 ;;SFR2                 0      0       0       5        0.0%
   628 ;;BITSFR2              0      0       0       5        0.0%
   629 ;;SFR1                 0      0       0       2        0.0%
   630 ;;BITSFR1              0      0       0       2        0.0%
   631 ;;BANK1               50      0       0       7        0.0%
   632 ;;BITBANK1            50      0       0       6        0.0%
   633 ;;CODE                 0      0       0       0        0.0%
   634 ;;DATA                 0      0      50      12        0.0%
   635 ;;ABS                  0      0      4E       3        0.0%
   636 ;;NULL                 0      0       0       0        0.0%
   637 ;;STACK                0      0       2       2        0.0%
   638 ;;BANK0               50     23      42       5       82.5%
   639 ;;BITBANK0            50      0       0       4        0.0%
   640 ;;SFR0                 0      0       0       1        0.0%
   641 ;;BITSFR0              0      0       0       1        0.0%
   642 ;;COMMON               E      A       C       1       85.7%
   643 ;;BITCOMMON            E      0       0       0        0.0%
   644 ;;EEDATA             100      0       0       0        0.0%
   645                           
   646                           	global	_main
   647                           psect	maintext,global,class=CODE,delta=2
   648                           global __pmaintext
   649  0015                     __pmaintext:
   650                           
   651 ;; *************** function _main *****************
   652 ;; Defined at:
   653 ;;		line 46 in file "E:\MPLAB_IDE\shy_4\main.c"
   654 ;; Parameters:    Size  Location     Type
   655 ;;		None
   656 ;; Auto vars:     Size  Location     Type
   657 ;;		None
   658 ;; Return value:  Size  Location     Type
   659 ;;                  2  750[COMMON] int 
   660 ;; Registers used:
   661 ;;		wreg, fsr0l, fsr0h, status,2, status,0, pclath, cstack
   662 ;; Tracked objects:
   663 ;;		On entry : 17F/0
   664 ;;		On exit  : 0/0
   665 ;;		Unchanged: 0/0
   666 ;; Data sizes:     COMMON   BANK0   BANK1   BANK3   BANK2
   667 ;;      Params:         0       0       0       0       0
   668 ;;      Locals:         0       0       0       0       0
   669 ;;      Temps:          0       1       0       0       0
   670 ;;      Totals:         0       1       0       0       0
   671 ;;Total ram usage:        1 bytes
   672 ;; Hardware stack levels required when called:    3
   673 ;; This function calls:
   674 ;;		_DELAY
   675 ;;		_ENABLE
   676 ;;		_eeprom_read
   677 ;;		_div
   678 ;;		_ENABLE1
   679 ;;		_eeprom_write
   680 ;;		_speed_calculate
   681 ;; This function is called by:
   682 ;;		Startup code after reset
   683 ;; This function uses a non-reentrant model
   684 ;;
   685                           psect	maintext
   686                           	file	"E:\MPLAB_IDE\shy_4\main.c"
   687                           	line	46
   688                           	global	__size_of_main
   689  012D                     	__size_of_main	equ	__end_of_main-_main
   690                           	
   691  0015                     _main:	
   692                           	opt	stack 5
   693                           ; Regs used in _main: [wreg-fsr0h+status,2+status,0+pclath+cstack]
   694                           	
   695  0015                     l4575:	
   696  0015  1683               	bsf	status, 5	;RP0=1, select bank1
   697  0016  1303               	bcf	status, 6	;RP1=0, select bank1
   698  0017  0188               	clrf	(136)^080h	;volatile
   699  0018  0185               	clrf	(133)^080h	;volatile
   700                           	
   701  0019                     l4577:	
   702  0019  3007               	movlw	(07h)
   703  001A  009F               	movwf	(159)^080h	;volatile
   704                           	line	47
   705                           	
   706  001B                     l4579:	
   707                           ;main.c: 47: DELAY();
   708  001B  120A  118A  25E7   	fcall	_DELAY
              120A  118A         
   709                           	line	48
   710                           	
   711  0020                     l4581:	
   712                           ;main.c: 48: PORTD=1;ENABLE();
   713  0020  3001               	movlw	(01h)
   714  0021  1283               	bcf	status, 5	;RP0=0, select bank0
   715  0022  1303               	bcf	status, 6	;RP1=0, select bank0
   716  0023  0088               	movwf	(8)	;volatile
   717                           	
   718  0024                     l4583:	
   719  0024  120A  118A  263E   	fcall	_ENABLE
              120A  118A         
   720                           	line	49
   721                           	
   722  0029                     l4585:	
   723                           ;main.c: 49: PORTD=0x38;ENABLE();
   724  0029  3038               	movlw	(038h)
   725  002A  1283               	bcf	status, 5	;RP0=0, select bank0
   726  002B  1303               	bcf	status, 6	;RP1=0, select bank0
   727  002C  0088               	movwf	(8)	;volatile
   728                           	
   729  002D                     l4587:	
   730  002D  120A  118A  263E   	fcall	_ENABLE
              120A  118A         
   731                           	line	50
   732                           	
   733  0032                     l4589:	
   734                           ;main.c: 50: PORTD=0x0C;ENABLE();
   735  0032  300C               	movlw	(0Ch)
   736  0033  1283               	bcf	status, 5	;RP0=0, select bank0
   737  0034  1303               	bcf	status, 6	;RP1=0, select bank0
   738  0035  0088               	movwf	(8)	;volatile
   739                           	
   740  0036                     l4591:	
   741  0036  120A  118A  263E   	fcall	_ENABLE
              120A  118A         
   742                           	line	51
   743                           	
   744  003B                     l4593:	
   745                           ;main.c: 51: PORTD=0x06; ENABLE();
   746  003B  3006               	movlw	(06h)
   747  003C  1283               	bcf	status, 5	;RP0=0, select bank0
   748  003D  1303               	bcf	status, 6	;RP1=0, select bank0
   749  003E  0088               	movwf	(8)	;volatile
   750                           	
   751  003F                     l4595:	
   752  003F  120A  118A  263E   	fcall	_ENABLE
              120A  118A         
   753                           	line	52
   754                           	
   755  0044                     l4597:	
   756                           ;main.c: 52: li_cheng.da_ta[0]=eeprom_read(0x00);
   757  0044  3000               	movlw	(0)
   758  0045  120A  118A  25A6   	fcall	_eeprom_read
              120A  118A         
   759  004A  1283               	bcf	status, 5	;RP0=0, select bank0
   760  004B  1303               	bcf	status, 6	;RP1=0, select bank0
   761  004C  00C2               	movwf	(??_main+0)+0
   762  004D  0842               	movf	(??_main+0)+0,w
   763  004E  00C3               	movwf	(_li_cheng)
   764                           	line	53
   765                           	
   766  004F                     l4599:	
   767                           ;main.c: 53: li_cheng.da_ta [1]=eeprom_read(0x01);
   768  004F  3001               	movlw	(01h)
   769  0050  120A  118A  25A6   	fcall	_eeprom_read
              120A  118A         
   770  0055  1283               	bcf	status, 5	;RP0=0, select bank0
   771  0056  1303               	bcf	status, 6	;RP1=0, select bank0
   772  0057  00C2               	movwf	(??_main+0)+0
   773  0058  0842               	movf	(??_main+0)+0,w
   774  0059  00C4               	movwf	0+(_li_cheng)+01h
   775                           	line	54
   776                           	
   777  005A                     l4601:	
   778                           ;main.c: 54: li_cheng.da_ta [2]=eeprom_read (0x02);
   779  005A  3002               	movlw	(02h)
   780  005B  120A  118A  25A6   	fcall	_eeprom_read
              120A  118A         
   781  0060  1283               	bcf	status, 5	;RP0=0, select bank0
   782  0061  1303               	bcf	status, 6	;RP1=0, select bank0
   783  0062  00C2               	movwf	(??_main+0)+0
   784  0063  0842               	movf	(??_main+0)+0,w
   785  0064  00C5               	movwf	0+(_li_cheng)+02h
   786                           	line	55
   787                           	
   788  0065                     l4603:	
   789                           ;main.c: 55: m=250;n =0;
   790  0065  30FA               	movlw	(0FAh)
   791  0066  00C2               	movwf	(??_main+0)+0
   792  0067  0842               	movf	(??_main+0)+0,w
   793  0068  00D2               	movwf	(_m)
   794  0069  01C9               	clrf	(_n)
   795  006A  01CA               	clrf	(_n+1)
   796                           	line	56
   797                           	
   798  006B                     l4605:	
   799                           ;main.c: 56: TRISB0=1;count_temp=0;TRISA0=0;RE0=0;TRISE0=0;
   800  006B  1683               	bsf	status, 5	;RP0=1, select bank1
   801  006C  1303               	bcf	status, 6	;RP1=0, select bank1
   802  006D  1406               	bsf	(1072/8)^080h,(1072)&7
   803  006E  1283               	bcf	status, 5	;RP0=0, select bank0
   804  006F  1303               	bcf	status, 6	;RP1=0, select bank0
   805  0070  01C7               	clrf	(_count_temp)
   806  0071  01C8               	clrf	(_count_temp+1)
   807                           	
   808  0072                     l4607:	
   809  0072  1683               	bsf	status, 5	;RP0=1, select bank1
   810  0073  1303               	bcf	status, 6	;RP1=0, select bank1
   811  0074  1005               	bcf	(1064/8)^080h,(1064)&7
   812                           	
   813  0075                     l4609:	
   814  0075  1283               	bcf	status, 5	;RP0=0, select bank0
   815  0076  1303               	bcf	status, 6	;RP1=0, select bank0
   816  0077  1009               	bcf	(72/8),(72)&7
   817                           	
   818  0078                     l4611:	
   819  0078  1683               	bsf	status, 5	;RP0=1, select bank1
   820  0079  1303               	bcf	status, 6	;RP1=0, select bank1
   821  007A  1009               	bcf	(1096/8)^080h,(1096)&7
   822                           	line	57
   823                           	
   824  007B                     l4613:	
   825                           ;main.c: 57: OPTION_REG=0B01000111;T0IF=0; TMR0=0;
   826  007B  3047               	movlw	(047h)
   827  007C  0081               	movwf	(129)^080h	;volatile
   828                           	
   829  007D                     l4615:	
   830  007D  110B               	bcf	(90/8),(90)&7
   831                           	
   832  007E                     l4617:	
   833  007E  1283               	bcf	status, 5	;RP0=0, select bank0
   834  007F  1303               	bcf	status, 6	;RP1=0, select bank0
   835  0080  0181               	clrf	(1)	;volatile
   836                           	line	58
   837                           	
   838  0081                     l4619:	
   839                           ;main.c: 58: GIE =1;INTE =1;INTF =0;
   840  0081  178B               	bsf	(95/8),(95)&7
   841                           	
   842  0082                     l4621:	
   843  0082  160B               	bsf	(92/8),(92)&7
   844                           	
   845  0083                     l4623:	
   846  0083  108B               	bcf	(89/8),(89)&7
   847  0084  2886               	goto	l4625
   848                           	line	59
   849                           ;main.c: 59: while (1)
   850                           	
   851  0085                     l751:	
   852  0085  2886               	goto	l4625
   853                           	line	60
   854                           ;main.c: 60: while(1)
   855                           	
   856  0086                     l752:	
   857                           	line	62
   858                           	
   859  0086                     l4625:	
   860                           ;main.c: 61: {
   861                           ;main.c: 62: div ();
   862  0086  120A  118A  2142   	fcall	_div
              120A  118A         
   863                           	line	63
   864                           	
   865  008B                     l4627:	
   866                           ;main.c: 63: PORTD=0x80; ENABLE();
   867  008B  3080               	movlw	(080h)
   868  008C  1283               	bcf	status, 5	;RP0=0, select bank0
   869  008D  1303               	bcf	status, 6	;RP1=0, select bank0
   870  008E  0088               	movwf	(8)	;volatile
   871  008F  120A  118A  263E   	fcall	_ENABLE
              120A  118A         
   872                           	line	64
   873                           	
   874  0094                     l4629:	
   875                           ;main.c: 64: PORTD=table[a];ENABLE1();
   876  0094  1283               	bcf	status, 5	;RP0=0, select bank0
   877  0095  1303               	bcf	status, 6	;RP1=0, select bank0
   878  0096  0855               	movf	(_a),w
   879  0097  3E58               	addlw	_table&0ffh
   880  0098  0084               	movwf	fsr0
   881  0099  1383               	bcf	status, 7	;select IRP bank0
   882  009A  0800               	movf	indf,w
   883  009B  0088               	movwf	(8)	;volatile
   884                           	
   885  009C                     l4631:	
   886  009C  120A  118A  2630   	fcall	_ENABLE1
              120A  118A         
   887                           	line	65
   888                           ;main.c: 65: PORTD=table[b];ENABLE1();
   889  00A1  1283               	bcf	status, 5	;RP0=0, select bank0
   890  00A2  1303               	bcf	status, 6	;RP1=0, select bank0
   891  00A3  084B               	movf	(_b),w
   892  00A4  3E58               	addlw	_table&0ffh
   893  00A5  0084               	movwf	fsr0
   894  00A6  1383               	bcf	status, 7	;select IRP bank0
   895  00A7  0800               	movf	indf,w
   896  00A8  0088               	movwf	(8)	;volatile
   897                           	
   898  00A9                     l4633:	
   899  00A9  120A  118A  2630   	fcall	_ENABLE1
              120A  118A         
   900                           	line	66
   901                           	
   902  00AE                     l4635:	
   903                           ;main.c: 66: PORTD=table[c];ENABLE1();
   904  00AE  1283               	bcf	status, 5	;RP0=0, select bank0
   905  00AF  1303               	bcf	status, 6	;RP1=0, select bank0
   906  00B0  084C               	movf	(_c),w
   907  00B1  3E58               	addlw	_table&0ffh
   908  00B2  0084               	movwf	fsr0
   909  00B3  1383               	bcf	status, 7	;select IRP bank0
   910  00B4  0800               	movf	indf,w
   911  00B5  0088               	movwf	(8)	;volatile
   912  00B6  120A  118A  2630   	fcall	_ENABLE1
              120A  118A         
   913                           	line	67
   914                           	
   915  00BB                     l4637:	
   916                           ;main.c: 67: PORTD=table[d];ENABLE1();
   917  00BB  1283               	bcf	status, 5	;RP0=0, select bank0
   918  00BC  1303               	bcf	status, 6	;RP1=0, select bank0
   919  00BD  0856               	movf	(_d),w
   920  00BE  3E58               	addlw	_table&0ffh
   921  00BF  0084               	movwf	fsr0
   922  00C0  1383               	bcf	status, 7	;select IRP bank0
   923  00C1  0800               	movf	indf,w
   924  00C2  0088               	movwf	(8)	;volatile
   925                           	
   926  00C3                     l4639:	
   927  00C3  120A  118A  2630   	fcall	_ENABLE1
              120A  118A         
   928                           	line	68
   929                           ;main.c: 68: PORTD=table[e];ENABLE1();
   930  00C8  1283               	bcf	status, 5	;RP0=0, select bank0
   931  00C9  1303               	bcf	status, 6	;RP1=0, select bank0
   932  00CA  084E               	movf	(_e),w
   933  00CB  3E58               	addlw	_table&0ffh
   934  00CC  0084               	movwf	fsr0
   935  00CD  1383               	bcf	status, 7	;select IRP bank0
   936  00CE  0800               	movf	indf,w
   937  00CF  0088               	movwf	(8)	;volatile
   938                           	
   939  00D0                     l4641:	
   940  00D0  120A  118A  2630   	fcall	_ENABLE1
              120A  118A         
   941                           	line	69
   942                           	
   943  00D5                     l4643:	
   944                           ;main.c: 69: PORTD=table[f];ENABLE1();
   945  00D5  1283               	bcf	status, 5	;RP0=0, select bank0
   946  00D6  1303               	bcf	status, 6	;RP1=0, select bank0
   947  00D7  0850               	movf	(_f),w
   948  00D8  3E58               	addlw	_table&0ffh
   949  00D9  0084               	movwf	fsr0
   950  00DA  1383               	bcf	status, 7	;select IRP bank0
   951  00DB  0800               	movf	indf,w
   952  00DC  0088               	movwf	(8)	;volatile
   953  00DD  120A  118A  2630   	fcall	_ENABLE1
              120A  118A         
   954                           	line	70
   955                           ;main.c: 70: eeprom_write(0x02,li_cheng.da_ta [2]);
   956  00E2  1283               	bcf	status, 5	;RP0=0, select bank0
   957  00E3  1303               	bcf	status, 6	;RP1=0, select bank0
   958  00E4  0845               	movf	0+(_li_cheng)+02h,w
   959  00E5  00C2               	movwf	(??_main+0)+0
   960  00E6  0842               	movf	(??_main+0)+0,w
   961  00E7  00A0               	movwf	(?_eeprom_write)
   962  00E8  3002               	movlw	(02h)
   963  00E9  120A  118A  253F   	fcall	_eeprom_write
              120A  118A         
   964                           	line	71
   965                           ;main.c: 71: eeprom_write(0x01,li_cheng.da_ta [1]);
   966  00EE  1283               	bcf	status, 5	;RP0=0, select bank0
   967  00EF  1303               	bcf	status, 6	;RP1=0, select bank0
   968  00F0  0844               	movf	0+(_li_cheng)+01h,w
   969  00F1  00C2               	movwf	(??_main+0)+0
   970  00F2  0842               	movf	(??_main+0)+0,w
   971  00F3  00A0               	movwf	(?_eeprom_write)
   972  00F4  3001               	movlw	(01h)
   973  00F5  120A  118A  253F   	fcall	_eeprom_write
              120A  118A         
   974                           	line	72
   975                           ;main.c: 72: eeprom_write(0x00,li_cheng.da_ta [0]);
   976  00FA  1283               	bcf	status, 5	;RP0=0, select bank0
   977  00FB  1303               	bcf	status, 6	;RP1=0, select bank0
   978  00FC  0843               	movf	(_li_cheng),w
   979  00FD  00C2               	movwf	(??_main+0)+0
   980  00FE  0842               	movf	(??_main+0)+0,w
   981  00FF  00A0               	movwf	(?_eeprom_write)
   982  0100  3000               	movlw	(0)
   983  0101  120A  118A  253F   	fcall	_eeprom_write
              120A  118A         
   984                           	line	73
   985                           ;main.c: 73: speed_calculate();
   986  0106  120A  118A  248B   	fcall	_speed_calculate
              120A  118A         
   987                           	line	74
   988                           	
   989  010B                     l4645:	
   990                           ;main.c: 74: PORTD=0xc0; ENABLE();
   991  010B  30C0               	movlw	(0C0h)
   992  010C  1283               	bcf	status, 5	;RP0=0, select bank0
   993  010D  1303               	bcf	status, 6	;RP1=0, select bank0
   994  010E  0088               	movwf	(8)	;volatile
   995                           	
   996  010F                     l4647:	
   997  010F  120A  118A  263E   	fcall	_ENABLE
              120A  118A         
   998                           	line	75
   999                           	
  1000  0114                     l4649:	
  1001                           ;main.c: 75: PORTD=table[d1];ENABLE1();
  1002  0114  1283               	bcf	status, 5	;RP0=0, select bank0
  1003  0115  1303               	bcf	status, 6	;RP1=0, select bank0
  1004  0116  084D               	movf	(_d1),w
  1005  0117  3E58               	addlw	_table&0ffh
  1006  0118  0084               	movwf	fsr0
  1007  0119  1383               	bcf	status, 7	;select IRP bank0
  1008  011A  0800               	movf	indf,w
  1009  011B  0088               	movwf	(8)	;volatile
  1010                           	
  1011  011C                     l4651:	
  1012  011C  120A  118A  2630   	fcall	_ENABLE1
              120A  118A         
  1013                           	line	76
  1014                           	
  1015  0121                     l4653:	
  1016                           ;main.c: 76: PORTD=table[e1];ENABLE1();
  1017  0121  1283               	bcf	status, 5	;RP0=0, select bank0
  1018  0122  1303               	bcf	status, 6	;RP1=0, select bank0
  1019  0123  084F               	movf	(_e1),w
  1020  0124  3E58               	addlw	_table&0ffh
  1021  0125  0084               	movwf	fsr0
  1022  0126  1383               	bcf	status, 7	;select IRP bank0
  1023  0127  0800               	movf	indf,w
  1024  0128  0088               	movwf	(8)	;volatile
  1025                           	
  1026  0129                     l4655:	
  1027  0129  120A  118A  2630   	fcall	_ENABLE1
              120A  118A         
  1028                           	line	77
  1029                           	
  1030  012E                     l4657:	
  1031                           ;main.c: 77: PORTD=table[f1];ENABLE1();
  1032  012E  1283               	bcf	status, 5	;RP0=0, select bank0
  1033  012F  1303               	bcf	status, 6	;RP1=0, select bank0
  1034  0130  0851               	movf	(_f1),w
  1035  0131  3E58               	addlw	_table&0ffh
  1036  0132  0084               	movwf	fsr0
  1037  0133  1383               	bcf	status, 7	;select IRP bank0
  1038  0134  0800               	movf	indf,w
  1039  0135  0088               	movwf	(8)	;volatile
  1040                           	
  1041  0136                     l4659:	
  1042  0136  120A  118A  2630   	fcall	_ENABLE1
              120A  118A         
  1043  013B  2886               	goto	l4625
  1044                           	line	78
  1045                           	
  1046  013C                     l753:	
  1047                           	line	60
  1048  013C  2886               	goto	l4625
  1049                           	
  1050  013D                     l754:	
  1051  013D  2886               	goto	l4625
  1052                           	line	78
  1053                           	
  1054  013E                     l755:	
  1055                           	line	59
  1056  013E  2886               	goto	l4625
  1057                           	
  1058  013F                     l756:	
  1059                           	line	79
  1060                           	
  1061  013F                     l757:	
  1062                           	global	start
  1063  013F  120A  118A  2812   	ljmp	start
  1064                           	opt stack 0
  1065                           GLOBAL	__end_of_main
  1066  0142                     	__end_of_main:
  1067 ;; =============== function _main ends ============
  1068                           
  1069                           	signat	_main,90
  1070                           	global	_speed_calculate
  1071                           psect	text341,local,class=CODE,delta=2
  1072                           global __ptext341
  1073  048B                     __ptext341:
  1074                           
  1075 ;; *************** function _speed_calculate *****************
  1076 ;; Defined at:
  1077 ;;		line 25 in file "E:\MPLAB_IDE\shy_4\main.c"
  1078 ;; Parameters:    Size  Location     Type
  1079 ;;		None
  1080 ;; Auto vars:     Size  Location     Type
  1081 ;;  z               1   12[BANK0 ] unsigned char 
  1082 ;; Return value:  Size  Location     Type
  1083 ;;		None               void
  1084 ;; Registers used:
  1085 ;;		wreg, status,2, status,0, pclath, cstack
  1086 ;; Tracked objects:
  1087 ;;		On entry : 0/0
  1088 ;;		On exit  : 0/0
  1089 ;;		Unchanged: 0/0
  1090 ;; Data sizes:     COMMON   BANK0   BANK1   BANK3   BANK2
  1091 ;;      Params:         0       0       0       0       0
  1092 ;;      Locals:         0       1       0       0       0
  1093 ;;      Temps:          0       3       0       0       0
  1094 ;;      Totals:         0       4       0       0       0
  1095 ;;Total ram usage:        4 bytes
  1096 ;; Hardware stack levels used:    1
  1097 ;; Hardware stack levels required when called:    2
  1098 ;; This function calls:
  1099 ;;		___awdiv
  1100 ;;		___bmul
  1101 ;; This function is called by:
  1102 ;;		_main
  1103 ;; This function uses a non-reentrant model
  1104 ;;
  1105                           psect	text341
  1106                           	file	"E:\MPLAB_IDE\shy_4\main.c"
  1107                           	line	25
  1108                           	global	__size_of_speed_calculate
  1109  0068                     	__size_of_speed_calculate	equ	__end_of_speed_calculate-_speed_calculate
  1110                           	
  1111  048B                     _speed_calculate:	
  1112                           	opt	stack 5
  1113                           ; Regs used in _speed_calculate: [wreg+status,2+status,0+pclath+cstack]
  1114                           	line	26
  1115                           	
  1116  048B                     l4573:	
  1117                           ;main.c: 26: speed=18998/t_speed;
  1118  048B  1283               	bcf	status, 5	;RP0=0, select bank0
  1119  048C  1303               	bcf	status, 6	;RP1=0, select bank0
  1120  048D  0854               	movf	(_t_speed+1),w
  1121  048E  01A1               	clrf	(?___awdiv+1)
  1122  048F  07A1               	addwf	(?___awdiv+1)
  1123  0490  0853               	movf	(_t_speed),w
  1124  0491  01A0               	clrf	(?___awdiv)
  1125  0492  07A0               	addwf	(?___awdiv)
  1126                           
  1127  0493  3036               	movlw	low(04A36h)
  1128  0494  00A2               	movwf	0+(?___awdiv)+02h
  1129  0495  304A               	movlw	high(04A36h)
  1130  0496  00A3               	movwf	(0+(?___awdiv)+02h)+1
  1131  0497  120A  118A  23A5   	fcall	___awdiv
              120A  118A         
  1132  049C  1283               	bcf	status, 5	;RP0=0, select bank0
  1133  049D  1303               	bcf	status, 6	;RP1=0, select bank0
  1134  049E  0820               	movf	(0+(?___awdiv)),w
  1135  049F  00A9               	movwf	(??_speed_calculate+0)+0
  1136  04A0  0829               	movf	(??_speed_calculate+0)+0,w
  1137  04A1  00D7               	movwf	(_speed)
  1138                           	line	27
  1139                           ;main.c: 27: d1=speed/100;z=speed-d1*100;
  1140  04A2  3064               	movlw	low(064h)
  1141  04A3  00A0               	movwf	(?___awdiv)
  1142  04A4  3000               	movlw	high(064h)
  1143  04A5  00A1               	movwf	((?___awdiv))+1
  1144  04A6  0857               	movf	(_speed),w
  1145  04A7  00A9               	movwf	(??_speed_calculate+0)+0
  1146  04A8  01AA               	clrf	(??_speed_calculate+0)+0+1
  1147  04A9  0829               	movf	0+(??_speed_calculate+0)+0,w
  1148  04AA  00A2               	movwf	0+(?___awdiv)+02h
  1149  04AB  082A               	movf	1+(??_speed_calculate+0)+0,w
  1150  04AC  00A3               	movwf	1+(?___awdiv)+02h
  1151  04AD  120A  118A  23A5   	fcall	___awdiv
              120A  118A         
  1152  04B2  1283               	bcf	status, 5	;RP0=0, select bank0
  1153  04B3  1303               	bcf	status, 6	;RP1=0, select bank0
  1154  04B4  0820               	movf	(0+(?___awdiv)),w
  1155  04B5  00AB               	movwf	(??_speed_calculate+2)+0
  1156  04B6  082B               	movf	(??_speed_calculate+2)+0,w
  1157  04B7  00CD               	movwf	(_d1)
  1158  04B8  3064               	movlw	(064h)
  1159  04B9  00A9               	movwf	(??_speed_calculate+0)+0
  1160  04BA  0829               	movf	(??_speed_calculate+0)+0,w
  1161  04BB  00A0               	movwf	(?___bmul)
  1162  04BC  084D               	movf	(_d1),w
  1163  04BD  120A  118A  2603   	fcall	___bmul
              120A  118A         
  1164  04C2  3AFF               	xorlw	0ffh
  1165  04C3  3E01               	addlw	1
  1166  04C4  1283               	bcf	status, 5	;RP0=0, select bank0
  1167  04C5  1303               	bcf	status, 6	;RP1=0, select bank0
  1168  04C6  0757               	addwf	(_speed),w
  1169  04C7  00AA               	movwf	(??_speed_calculate+1)+0
  1170  04C8  082A               	movf	(??_speed_calculate+1)+0,w
  1171  04C9  00AC               	movwf	(speed_calculate@z)
  1172                           	line	28
  1173                           ;main.c: 28: e1=z/10;f1=z-e1*10;
  1174  04CA  300A               	movlw	low(0Ah)
  1175  04CB  00A0               	movwf	(?___awdiv)
  1176  04CC  3000               	movlw	high(0Ah)
  1177  04CD  00A1               	movwf	((?___awdiv))+1
  1178  04CE  082C               	movf	(speed_calculate@z),w
  1179  04CF  00A9               	movwf	(??_speed_calculate+0)+0
  1180  04D0  01AA               	clrf	(??_speed_calculate+0)+0+1
  1181  04D1  0829               	movf	0+(??_speed_calculate+0)+0,w
  1182  04D2  00A2               	movwf	0+(?___awdiv)+02h
  1183  04D3  082A               	movf	1+(??_speed_calculate+0)+0,w
  1184  04D4  00A3               	movwf	1+(?___awdiv)+02h
  1185  04D5  120A  118A  23A5   	fcall	___awdiv
              120A  118A         
  1186  04DA  1283               	bcf	status, 5	;RP0=0, select bank0
  1187  04DB  1303               	bcf	status, 6	;RP1=0, select bank0
  1188  04DC  0820               	movf	(0+(?___awdiv)),w
  1189  04DD  00AB               	movwf	(??_speed_calculate+2)+0
  1190  04DE  082B               	movf	(??_speed_calculate+2)+0,w
  1191  04DF  00CF               	movwf	(_e1)
  1192  04E0  300A               	movlw	(0Ah)
  1193  04E1  00A9               	movwf	(??_speed_calculate+0)+0
  1194  04E2  0829               	movf	(??_speed_calculate+0)+0,w
  1195  04E3  00A0               	movwf	(?___bmul)
  1196  04E4  084F               	movf	(_e1),w
  1197  04E5  120A  118A  2603   	fcall	___bmul
              120A  118A         
  1198  04EA  3AFF               	xorlw	0ffh
  1199  04EB  3E01               	addlw	1
  1200  04EC  1283               	bcf	status, 5	;RP0=0, select bank0
  1201  04ED  1303               	bcf	status, 6	;RP1=0, select bank0
  1202  04EE  072C               	addwf	(speed_calculate@z),w
  1203  04EF  00AA               	movwf	(??_speed_calculate+1)+0
  1204  04F0  082A               	movf	(??_speed_calculate+1)+0,w
  1205  04F1  00D1               	movwf	(_f1)
  1206                           	line	29
  1207                           	
  1208  04F2                     l739:	
  1209  04F2  0008               	return
  1210                           	opt stack 0
  1211                           GLOBAL	__end_of_speed_calculate
  1212  04F3                     	__end_of_speed_calculate:
  1213 ;; =============== function _speed_calculate ends ============
  1214                           
  1215                           	signat	_speed_calculate,88
  1216                           	global	_div
  1217                           psect	text342,local,class=CODE,delta=2
  1218                           global __ptext342
  1219  0142                     __ptext342:
  1220                           
  1221 ;; *************** function _div *****************
  1222 ;; Defined at:
  1223 ;;		line 17 in file "E:\MPLAB_IDE\shy_4\main.c"
  1224 ;; Parameters:    Size  Location     Type
  1225 ;;		None
  1226 ;; Auto vars:     Size  Location     Type
  1227 ;;  x               4   27[BANK0 ] long 
  1228 ;;  y               2   32[BANK0 ] int 
  1229 ;;  z               1   31[BANK0 ] unsigned char 
  1230 ;; Return value:  Size  Location     Type
  1231 ;;		None               void
  1232 ;; Registers used:
  1233 ;;		wreg, status,2, status,0, pclath, cstack
  1234 ;; Tracked objects:
  1235 ;;		On entry : 0/0
  1236 ;;		On exit  : 0/0
  1237 ;;		Unchanged: 0/0
  1238 ;; Data sizes:     COMMON   BANK0   BANK1   BANK3   BANK2
  1239 ;;      Params:         0       0       0       0       0
  1240 ;;      Locals:         0       7       0       0       0
  1241 ;;      Temps:          0      12       0       0       0
  1242 ;;      Totals:         0      19       0       0       0
  1243 ;;Total ram usage:       19 bytes
  1244 ;; Hardware stack levels used:    1
  1245 ;; Hardware stack levels required when called:    2
  1246 ;; This function calls:
  1247 ;;		___lldiv
  1248 ;;		___lmul
  1249 ;;		___aldiv
  1250 ;;		___wmul
  1251 ;;		___awdiv
  1252 ;;		___bmul
  1253 ;; This function is called by:
  1254 ;;		_main
  1255 ;; This function uses a non-reentrant model
  1256 ;;
  1257                           psect	text342
  1258                           	file	"E:\MPLAB_IDE\shy_4\main.c"
  1259                           	line	17
  1260                           	global	__size_of_div
  1261  012C                     	__size_of_div	equ	__end_of_div-_div
  1262                           	
  1263  0142                     _div:	
  1264                           	opt	stack 5
  1265                           ; Regs used in _div: [wreg+status,2+status,0+pclath+cstack]
  1266                           	line	18
  1267                           	
  1268  0142                     l4571:	
  1269                           ;main.c: 18: a=li_cheng.count/100000;x=li_cheng.count-a*100000;
  1270  0142  3000               	movlw	0
  1271  0143  1283               	bcf	status, 5	;RP0=0, select bank0
  1272  0144  1303               	bcf	status, 6	;RP1=0, select bank0
  1273  0145  00A3               	movwf	(?___lldiv+3)
  1274  0146  3001               	movlw	01h
  1275  0147  00A2               	movwf	(?___lldiv+2)
  1276  0148  3086               	movlw	086h
  1277  0149  00A1               	movwf	(?___lldiv+1)
  1278  014A  30A0               	movlw	0A0h
  1279  014B  00A0               	movwf	(?___lldiv)
  1280                           
  1281  014C  0846               	movf	(_li_cheng+3),w
  1282  014D  00A7               	movwf	3+(?___lldiv)+04h
  1283  014E  0845               	movf	(_li_cheng+2),w
  1284  014F  00A6               	movwf	2+(?___lldiv)+04h
  1285  0150  0844               	movf	(_li_cheng+1),w
  1286  0151  00A5               	movwf	1+(?___lldiv)+04h
  1287  0152  0843               	movf	(_li_cheng),w
  1288  0153  00A4               	movwf	0+(?___lldiv)+04h
  1289                           
  1290  0154  120A  118A  241B   	fcall	___lldiv
              120A  118A         
  1291  0159  1283               	bcf	status, 5	;RP0=0, select bank0
  1292  015A  1303               	bcf	status, 6	;RP1=0, select bank0
  1293  015B  0820               	movf	0+(((0+(?___lldiv)))),w
  1294  015C  00AF               	movwf	(??_div+0)+0
  1295  015D  082F               	movf	(??_div+0)+0,w
  1296  015E  00D5               	movwf	(_a)
  1297  015F  0843               	movf	(_li_cheng),w
  1298  0160  00AF               	movwf	(??_div+0)+0
  1299  0161  0844               	movf	(_li_cheng+1),w
  1300  0162  00B0               	movwf	((??_div+0)+0+1)
  1301  0163  0845               	movf	(_li_cheng+2),w
  1302  0164  00B1               	movwf	((??_div+0)+0+2)
  1303  0165  0846               	movf	(_li_cheng+3),w
  1304  0166  00B2               	movwf	((??_div+0)+0+3)
  1305  0167  0855               	movf	(_a),w
  1306  0168  00B3               	movwf	(??_div+4)+0
  1307  0169  01B4               	clrf	((??_div+4)+0+1)
  1308  016A  01B5               	clrf	((??_div+4)+0+2)
  1309  016B  01B6               	clrf	((??_div+4)+0+3)
  1310  016C  0836               	movf	3+(??_div+4)+0,w
  1311  016D  00A3               	movwf	(?___lmul+3)
  1312  016E  0835               	movf	2+(??_div+4)+0,w
  1313  016F  00A2               	movwf	(?___lmul+2)
  1314  0170  0834               	movf	1+(??_div+4)+0,w
  1315  0171  00A1               	movwf	(?___lmul+1)
  1316  0172  0833               	movf	0+(??_div+4)+0,w
  1317  0173  00A0               	movwf	(?___lmul)
  1318                           
  1319  0174  3000               	movlw	0
  1320  0175  00A7               	movwf	3+(?___lmul)+04h
  1321  0176  3001               	movlw	01h
  1322  0177  00A6               	movwf	2+(?___lmul)+04h
  1323  0178  3086               	movlw	086h
  1324  0179  00A5               	movwf	1+(?___lmul)+04h
  1325  017A  30A0               	movlw	0A0h
  1326  017B  00A4               	movwf	0+(?___lmul)+04h
  1327                           
  1328  017C  120A  118A  24F3   	fcall	___lmul
              120A  118A         
  1329  0181  1283               	bcf	status, 5	;RP0=0, select bank0
  1330  0182  1303               	bcf	status, 6	;RP1=0, select bank0
  1331  0183  0920               	comf	(0+(?___lmul)),w
  1332  0184  00B7               	movwf	(??_div+8)+0
  1333  0185  0921               	comf	(1+(?___lmul)),w
  1334  0186  00B8               	movwf	((??_div+8)+0+1)
  1335  0187  0922               	comf	(2+(?___lmul)),w
  1336  0188  00B9               	movwf	((??_div+8)+0+2)
  1337  0189  0923               	comf	(3+(?___lmul)),w
  1338  018A  00BA               	movwf	((??_div+8)+0+3)
  1339  018B  0AB7               	incf	(??_div+8)+0,f
  1340  018C  1903               	skipnz
  1341  018D  0AB8               	incf	((??_div+8)+0+1),f
  1342  018E  1903               	skipnz
  1343  018F  0AB9               	incf	((??_div+8)+0+2),f
  1344  0190  1903               	skipnz
  1345  0191  0ABA               	incf	((??_div+8)+0+3),f
  1346  0192  0837               	movf	0+(??_div+8)+0,w
  1347  0193  07AF               	addwf	(??_div+0)+0,f
  1348  0194  0838               	movf	1+(??_div+8)+0,w
  1349  0195  1803               	skipnc
  1350  0196  0F38               	incfsz	1+(??_div+8)+0,w
  1351  0197  2999               	goto	u2850
  1352  0198  299A               	goto	u2851
  1353  0199                     u2850:
  1354  0199  07B0               	addwf	(??_div+0)+1,f
  1355  019A                     u2851:
  1356  019A  0839               	movf	2+(??_div+8)+0,w
  1357  019B  1803               	skipnc
  1358  019C  0F39               	incfsz	2+(??_div+8)+0,w
  1359  019D  299F               	goto	u2852
  1360  019E  29A0               	goto	u2853
  1361  019F                     u2852:
  1362  019F  07B1               	addwf	(??_div+0)+2,f
  1363  01A0                     u2853:
  1364  01A0  083A               	movf	3+(??_div+8)+0,w
  1365  01A1  1803               	skipnc
  1366  01A2  0A3A               	incf	3+(??_div+8)+0,w
  1367  01A3  07B2               	addwf	(??_div+0)+3,f
  1368  01A4  0832               	movf	3+(??_div+0)+0,w
  1369  01A5  00BE               	movwf	(div@x+3)
  1370  01A6  0831               	movf	2+(??_div+0)+0,w
  1371  01A7  00BD               	movwf	(div@x+2)
  1372  01A8  0830               	movf	1+(??_div+0)+0,w
  1373  01A9  00BC               	movwf	(div@x+1)
  1374  01AA  082F               	movf	0+(??_div+0)+0,w
  1375  01AB  00BB               	movwf	(div@x)
  1376                           
  1377                           	line	19
  1378                           ;main.c: 19: b=x/10000;y=x-b*10000;
  1379  01AC  3000               	movlw	0
  1380  01AD  00A3               	movwf	(?___aldiv+3)
  1381  01AE  3000               	movlw	0
  1382  01AF  00A2               	movwf	(?___aldiv+2)
  1383  01B0  3027               	movlw	027h
  1384  01B1  00A1               	movwf	(?___aldiv+1)
  1385  01B2  3010               	movlw	010h
  1386  01B3  00A0               	movwf	(?___aldiv)
  1387                           
  1388  01B4  083E               	movf	(div@x+3),w
  1389  01B5  00A7               	movwf	3+(?___aldiv)+04h
  1390  01B6  083D               	movf	(div@x+2),w
  1391  01B7  00A6               	movwf	2+(?___aldiv)+04h
  1392  01B8  083C               	movf	(div@x+1),w
  1393  01B9  00A5               	movwf	1+(?___aldiv)+04h
  1394  01BA  083B               	movf	(div@x),w
  1395  01BB  00A4               	movwf	0+(?___aldiv)+04h
  1396                           
  1397  01BC  120A  118A  226E   	fcall	___aldiv
              120A  118A         
  1398  01C1  1283               	bcf	status, 5	;RP0=0, select bank0
  1399  01C2  1303               	bcf	status, 6	;RP1=0, select bank0
  1400  01C3  0820               	movf	0+(((0+(?___aldiv)))),w
  1401  01C4  00AF               	movwf	(??_div+0)+0
  1402  01C5  082F               	movf	(??_div+0)+0,w
  1403  01C6  00CB               	movwf	(_b)
  1404  01C7  084B               	movf	(_b),w
  1405  01C8  00AF               	movwf	(??_div+0)+0
  1406  01C9  01B0               	clrf	(??_div+0)+0+1
  1407  01CA  082F               	movf	0+(??_div+0)+0,w
  1408  01CB  00A0               	movwf	(?___wmul)
  1409  01CC  0830               	movf	1+(??_div+0)+0,w
  1410  01CD  00A1               	movwf	(?___wmul+1)
  1411  01CE  3010               	movlw	low(02710h)
  1412  01CF  00A2               	movwf	0+(?___wmul)+02h
  1413  01D0  3027               	movlw	high(02710h)
  1414  01D1  00A3               	movwf	(0+(?___wmul)+02h)+1
  1415  01D2  120A  118A  257A   	fcall	___wmul
              120A  118A         
  1416  01D7  1283               	bcf	status, 5	;RP0=0, select bank0
  1417  01D8  1303               	bcf	status, 6	;RP1=0, select bank0
  1418  01D9  0920               	comf	(0+(?___wmul)),w
  1419  01DA  00B1               	movwf	(??_div+2)+0
  1420  01DB  0921               	comf	(1+(?___wmul)),w
  1421  01DC  00B2               	movwf	((??_div+2)+0+1)
  1422  01DD  0AB1               	incf	(??_div+2)+0,f
  1423  01DE  1903               	skipnz
  1424  01DF  0AB2               	incf	((??_div+2)+0+1),f
  1425  01E0  083B               	movf	(div@x),w
  1426  01E1  0731               	addwf	0+(??_div+2)+0,w
  1427  01E2  00C0               	movwf	(div@y)
  1428  01E3  083C               	movf	(div@x+1),w
  1429  01E4  1803               	skipnc
  1430  01E5  0A3C               	incf	(div@x+1),w
  1431  01E6  0732               	addwf	1+(??_div+2)+0,w
  1432  01E7  00C1               	movwf	1+(div@y)
  1433                           	line	20
  1434                           ;main.c: 20: c=y/1000;y=y-c*1000;
  1435  01E8  30E8               	movlw	low(03E8h)
  1436  01E9  00A0               	movwf	(?___awdiv)
  1437  01EA  3003               	movlw	high(03E8h)
  1438  01EB  00A1               	movwf	((?___awdiv))+1
  1439  01EC  0841               	movf	(div@y+1),w
  1440  01ED  01A3               	clrf	1+(?___awdiv)+02h
  1441  01EE  07A3               	addwf	1+(?___awdiv)+02h
  1442  01EF  0840               	movf	(div@y),w
  1443  01F0  01A2               	clrf	0+(?___awdiv)+02h
  1444  01F1  07A2               	addwf	0+(?___awdiv)+02h
  1445                           
  1446  01F2  120A  118A  23A5   	fcall	___awdiv
              120A  118A         
  1447  01F7  1283               	bcf	status, 5	;RP0=0, select bank0
  1448  01F8  1303               	bcf	status, 6	;RP1=0, select bank0
  1449  01F9  0820               	movf	(0+(?___awdiv)),w
  1450  01FA  00AF               	movwf	(??_div+0)+0
  1451  01FB  082F               	movf	(??_div+0)+0,w
  1452  01FC  00CC               	movwf	(_c)
  1453  01FD  084C               	movf	(_c),w
  1454  01FE  00AF               	movwf	(??_div+0)+0
  1455  01FF  01B0               	clrf	(??_div+0)+0+1
  1456  0200  082F               	movf	0+(??_div+0)+0,w
  1457  0201  00A0               	movwf	(?___wmul)
  1458  0202  0830               	movf	1+(??_div+0)+0,w
  1459  0203  00A1               	movwf	(?___wmul+1)
  1460  0204  30E8               	movlw	low(03E8h)
  1461  0205  00A2               	movwf	0+(?___wmul)+02h
  1462  0206  3003               	movlw	high(03E8h)
  1463  0207  00A3               	movwf	(0+(?___wmul)+02h)+1
  1464  0208  120A  118A  257A   	fcall	___wmul
              120A  118A         
  1465  020D  1283               	bcf	status, 5	;RP0=0, select bank0
  1466  020E  1303               	bcf	status, 6	;RP1=0, select bank0
  1467  020F  0920               	comf	(0+(?___wmul)),w
  1468  0210  00B1               	movwf	(??_div+2)+0
  1469  0211  0921               	comf	(1+(?___wmul)),w
  1470  0212  00B2               	movwf	((??_div+2)+0+1)
  1471  0213  0AB1               	incf	(??_div+2)+0,f
  1472  0214  1903               	skipnz
  1473  0215  0AB2               	incf	((??_div+2)+0+1),f
  1474  0216  0840               	movf	(div@y),w
  1475  0217  0731               	addwf	0+(??_div+2)+0,w
  1476  0218  00C0               	movwf	(div@y)
  1477  0219  0841               	movf	(div@y+1),w
  1478  021A  1803               	skipnc
  1479  021B  0A41               	incf	(div@y+1),w
  1480  021C  0732               	addwf	1+(??_div+2)+0,w
  1481  021D  00C1               	movwf	1+(div@y)
  1482                           	line	21
  1483                           ;main.c: 21: d=y/100;z=y-d*100;
  1484  021E  3064               	movlw	low(064h)
  1485  021F  00A0               	movwf	(?___awdiv)
  1486  0220  3000               	movlw	high(064h)
  1487  0221  00A1               	movwf	((?___awdiv))+1
  1488  0222  0841               	movf	(div@y+1),w
  1489  0223  01A3               	clrf	1+(?___awdiv)+02h
  1490  0224  07A3               	addwf	1+(?___awdiv)+02h
  1491  0225  0840               	movf	(div@y),w
  1492  0226  01A2               	clrf	0+(?___awdiv)+02h
  1493  0227  07A2               	addwf	0+(?___awdiv)+02h
  1494                           
  1495  0228  120A  118A  23A5   	fcall	___awdiv
              120A  118A         
  1496  022D  1283               	bcf	status, 5	;RP0=0, select bank0
  1497  022E  1303               	bcf	status, 6	;RP1=0, select bank0
  1498  022F  0820               	movf	(0+(?___awdiv)),w
  1499  0230  00AF               	movwf	(??_div+0)+0
  1500  0231  082F               	movf	(??_div+0)+0,w
  1501  0232  00D6               	movwf	(_d)
  1502  0233  3064               	movlw	(064h)
  1503  0234  00AF               	movwf	(??_div+0)+0
  1504  0235  082F               	movf	(??_div+0)+0,w
  1505  0236  00A0               	movwf	(?___bmul)
  1506  0237  0856               	movf	(_d),w
  1507  0238  120A  118A  2603   	fcall	___bmul
              120A  118A         
  1508  023D  3AFF               	xorlw	0ffh
  1509  023E  3E01               	addlw	1
  1510  023F  1283               	bcf	status, 5	;RP0=0, select bank0
  1511  0240  1303               	bcf	status, 6	;RP1=0, select bank0
  1512  0241  0740               	addwf	(div@y),w
  1513  0242  00B0               	movwf	(??_div+1)+0
  1514  0243  0830               	movf	(??_div+1)+0,w
  1515  0244  00BF               	movwf	(div@z)
  1516                           	line	22
  1517                           ;main.c: 22: e=z/10;f=z-e*10;
  1518  0245  300A               	movlw	low(0Ah)
  1519  0246  00A0               	movwf	(?___awdiv)
  1520  0247  3000               	movlw	high(0Ah)
  1521  0248  00A1               	movwf	((?___awdiv))+1
  1522  0249  083F               	movf	(div@z),w
  1523  024A  00AF               	movwf	(??_div+0)+0
  1524  024B  01B0               	clrf	(??_div+0)+0+1
  1525  024C  082F               	movf	0+(??_div+0)+0,w
  1526  024D  00A2               	movwf	0+(?___awdiv)+02h
  1527  024E  0830               	movf	1+(??_div+0)+0,w
  1528  024F  00A3               	movwf	1+(?___awdiv)+02h
  1529  0250  120A  118A  23A5   	fcall	___awdiv
              120A  118A         
  1530  0255  1283               	bcf	status, 5	;RP0=0, select bank0
  1531  0256  1303               	bcf	status, 6	;RP1=0, select bank0
  1532  0257  0820               	movf	(0+(?___awdiv)),w
  1533  0258  00B1               	movwf	(??_div+2)+0
  1534  0259  0831               	movf	(??_div+2)+0,w
  1535  025A  00CE               	movwf	(_e)
  1536  025B  300A               	movlw	(0Ah)
  1537  025C  00AF               	movwf	(??_div+0)+0
  1538  025D  082F               	movf	(??_div+0)+0,w
  1539  025E  00A0               	movwf	(?___bmul)
  1540  025F  084E               	movf	(_e),w
  1541  0260  120A  118A  2603   	fcall	___bmul
              120A  118A         
  1542  0265  3AFF               	xorlw	0ffh
  1543  0266  3E01               	addlw	1
  1544  0267  1283               	bcf	status, 5	;RP0=0, select bank0
  1545  0268  1303               	bcf	status, 6	;RP1=0, select bank0
  1546  0269  073F               	addwf	(div@z),w
  1547  026A  00B0               	movwf	(??_div+1)+0
  1548  026B  0830               	movf	(??_div+1)+0,w
  1549  026C  00D0               	movwf	(_f)
  1550                           	line	23
  1551                           	
  1552  026D                     l736:	
  1553  026D  0008               	return
  1554                           	opt stack 0
  1555                           GLOBAL	__end_of_div
  1556  026E                     	__end_of_div:
  1557 ;; =============== function _div ends ============
  1558                           
  1559                           	signat	_div,88
  1560                           	global	_ENABLE1
  1561                           psect	text343,local,class=CODE,delta=2
  1562                           global __ptext343
  1563  0630                     __ptext343:
  1564                           
  1565 ;; *************** function _ENABLE1 *****************
  1566 ;; Defined at:
  1567 ;;		line 15 in file "E:\MPLAB_IDE\shy_4\main.c"
  1568 ;; Parameters:    Size  Location     Type
  1569 ;;		None
  1570 ;; Auto vars:     Size  Location     Type
  1571 ;;		None
  1572 ;; Return value:  Size  Location     Type
  1573 ;;		None               void
  1574 ;; Registers used:
  1575 ;;		wreg, status,2, status,0, pclath, cstack
  1576 ;; Tracked objects:
  1577 ;;		On entry : 0/0
  1578 ;;		On exit  : 0/0
  1579 ;;		Unchanged: 0/0
  1580 ;; Data sizes:     COMMON   BANK0   BANK1   BANK3   BANK2
  1581 ;;      Params:         0       0       0       0       0
  1582 ;;      Locals:         0       0       0       0       0
  1583 ;;      Temps:          0       0       0       0       0
  1584 ;;      Totals:         0       0       0       0       0
  1585 ;;Total ram usage:        0 bytes
  1586 ;; Hardware stack levels used:    1
  1587 ;; Hardware stack levels required when called:    2
  1588 ;; This function calls:
  1589 ;;		_DELAY
  1590 ;; This function is called by:
  1591 ;;		_main
  1592 ;; This function uses a non-reentrant model
  1593 ;;
  1594                           psect	text343
  1595                           	file	"E:\MPLAB_IDE\shy_4\main.c"
  1596                           	line	15
  1597                           	global	__size_of_ENABLE1
  1598  000E                     	__size_of_ENABLE1	equ	__end_of_ENABLE1-_ENABLE1
  1599                           	
  1600  0630                     _ENABLE1:	
  1601                           	opt	stack 5
  1602                           ; Regs used in _ENABLE1: [wreg+status,2+status,0+pclath+cstack]
  1603                           	
  1604  0630                     l4565:	
  1605  0630  1283               	bcf	status, 5	;RP0=0, select bank0
  1606  0631  1303               	bcf	status, 6	;RP1=0, select bank0
  1607  0632  1685               	bsf	(45/8),(45)&7
  1608  0633  1205               	bcf	(44/8),(44)&7
  1609  0634  1185               	bcf	(43/8),(43)&7
  1610                           	
  1611  0635                     l4567:	
  1612  0635  120A  118A  25E7   	fcall	_DELAY
              120A  118A         
  1613                           	
  1614  063A                     l4569:	
  1615  063A  1283               	bcf	status, 5	;RP0=0, select bank0
  1616  063B  1303               	bcf	status, 6	;RP1=0, select bank0
  1617  063C  1585               	bsf	(43/8),(43)&7
  1618                           	
  1619  063D                     l733:	
  1620  063D  0008               	return
  1621                           	opt stack 0
  1622                           GLOBAL	__end_of_ENABLE1
  1623  063E                     	__end_of_ENABLE1:
  1624 ;; =============== function _ENABLE1 ends ============
  1625                           
  1626                           	signat	_ENABLE1,88
  1627                           	global	_ENABLE
  1628                           psect	text344,local,class=CODE,delta=2
  1629                           global __ptext344
  1630  063E                     __ptext344:
  1631                           
  1632 ;; *************** function _ENABLE *****************
  1633 ;; Defined at:
  1634 ;;		line 13 in file "E:\MPLAB_IDE\shy_4\main.c"
  1635 ;; Parameters:    Size  Location     Type
  1636 ;;		None
  1637 ;; Auto vars:     Size  Location     Type
  1638 ;;		None
  1639 ;; Return value:  Size  Location     Type
  1640 ;;		None               void
  1641 ;; Registers used:
  1642 ;;		wreg, status,2, status,0, pclath, cstack
  1643 ;; Tracked objects:
  1644 ;;		On entry : 0/0
  1645 ;;		On exit  : 0/0
  1646 ;;		Unchanged: 0/0
  1647 ;; Data sizes:     COMMON   BANK0   BANK1   BANK3   BANK2
  1648 ;;      Params:         0       0       0       0       0
  1649 ;;      Locals:         0       0       0       0       0
  1650 ;;      Temps:          0       0       0       0       0
  1651 ;;      Totals:         0       0       0       0       0
  1652 ;;Total ram usage:        0 bytes
  1653 ;; Hardware stack levels used:    1
  1654 ;; Hardware stack levels required when called:    2
  1655 ;; This function calls:
  1656 ;;		_DELAY
  1657 ;; This function is called by:
  1658 ;;		_main
  1659 ;; This function uses a non-reentrant model
  1660 ;;
  1661                           psect	text344
  1662                           	file	"E:\MPLAB_IDE\shy_4\main.c"
  1663                           	line	13
  1664                           	global	__size_of_ENABLE
  1665  000E                     	__size_of_ENABLE	equ	__end_of_ENABLE-_ENABLE
  1666                           	
  1667  063E                     _ENABLE:	
  1668                           	opt	stack 5
  1669                           ; Regs used in _ENABLE: [wreg+status,2+status,0+pclath+cstack]
  1670                           	
  1671  063E                     l4559:	
  1672  063E  1283               	bcf	status, 5	;RP0=0, select bank0
  1673  063F  1303               	bcf	status, 6	;RP1=0, select bank0
  1674  0640  1285               	bcf	(45/8),(45)&7
  1675  0641  1205               	bcf	(44/8),(44)&7
  1676  0642  1185               	bcf	(43/8),(43)&7
  1677                           	
  1678  0643                     l4561:	
  1679  0643  120A  118A  25E7   	fcall	_DELAY
              120A  118A         
  1680                           	
  1681  0648                     l4563:	
  1682  0648  1283               	bcf	status, 5	;RP0=0, select bank0
  1683  0649  1303               	bcf	status, 6	;RP1=0, select bank0
  1684  064A  1585               	bsf	(43/8),(43)&7
  1685                           	
  1686  064B                     l730:	
  1687  064B  0008               	return
  1688                           	opt stack 0
  1689                           GLOBAL	__end_of_ENABLE
  1690  064C                     	__end_of_ENABLE:
  1691 ;; =============== function _ENABLE ends ============
  1692                           
  1693                           	signat	_ENABLE,88
  1694                           	global	___aldiv
  1695                           psect	text345,local,class=CODE,delta=2
  1696                           global __ptext345
  1697  026E                     __ptext345:
  1698                           
  1699 ;; *************** function ___aldiv *****************
  1700 ;; Defined at:
  1701 ;;		line 5 in file "C:\Program Files (x86)\HI-TECH Software\PICC\9.82\sources\aldiv.c"
  1702 ;; Parameters:    Size  Location     Type
  1703 ;;  divisor         4    0[BANK0 ] long 
  1704 ;;  dividend        4    4[BANK0 ] long 
  1705 ;; Auto vars:     Size  Location     Type
  1706 ;;  quotient        4   11[BANK0 ] long 
  1707 ;;  sign            1   10[BANK0 ] unsigned char 
  1708 ;;  counter         1    9[BANK0 ] unsigned char 
  1709 ;; Return value:  Size  Location     Type
  1710 ;;                  4    0[BANK0 ] long 
  1711 ;; Registers used:
  1712 ;;		wreg, status,2, status,0
  1713 ;; Tracked objects:
  1714 ;;		On entry : 0/0
  1715 ;;		On exit  : 0/0
  1716 ;;		Unchanged: 0/0
  1717 ;; Data sizes:     COMMON   BANK0   BANK1   BANK3   BANK2
  1718 ;;      Params:         0       8       0       0       0
  1719 ;;      Locals:         0       6       0       0       0
  1720 ;;      Temps:          0       1       0       0       0
  1721 ;;      Totals:         0      15       0       0       0
  1722 ;;Total ram usage:       15 bytes
  1723 ;; Hardware stack levels used:    1
  1724 ;; Hardware stack levels required when called:    1
  1725 ;; This function calls:
  1726 ;;		Nothing
  1727 ;; This function is called by:
  1728 ;;		_div
  1729 ;; This function uses a non-reentrant model
  1730 ;;
  1731                           psect	text345
  1732                           	file	"C:\Program Files (x86)\HI-TECH Software\PICC\9.82\sources\aldiv.c"
  1733                           	line	5
  1734                           	global	__size_of___aldiv
  1735  00A8                     	__size_of___aldiv	equ	__end_of___aldiv-___aldiv
  1736                           	
  1737  026E                     ___aldiv:	
  1738                           	opt	stack 5
  1739                           ; Regs used in ___aldiv: [wreg+status,2+status,0]
  1740                           	line	9
  1741                           	
  1742  026E                     l4517:	
  1743  026E  1283               	bcf	status, 5	;RP0=0, select bank0
  1744  026F  1303               	bcf	status, 6	;RP1=0, select bank0
  1745  0270  01AA               	clrf	(___aldiv@sign)
  1746                           	line	10
  1747  0271  1FA3               	btfss	(___aldiv@divisor+3),7
  1748  0272  2A74               	goto	u2751
  1749  0273  2A75               	goto	u2750
  1750  0274                     u2751:
  1751  0274  2A84               	goto	l4523
  1752  0275                     u2750:
  1753                           	line	11
  1754                           	
  1755  0275                     l4519:	
  1756  0275  09A0               	comf	(___aldiv@divisor),f
  1757  0276  09A1               	comf	(___aldiv@divisor+1),f
  1758  0277  09A2               	comf	(___aldiv@divisor+2),f
  1759  0278  09A3               	comf	(___aldiv@divisor+3),f
  1760  0279  0AA0               	incf	(___aldiv@divisor),f
  1761  027A  1903               	skipnz
  1762  027B  0AA1               	incf	(___aldiv@divisor+1),f
  1763  027C  1903               	skipnz
  1764  027D  0AA2               	incf	(___aldiv@divisor+2),f
  1765  027E  1903               	skipnz
  1766  027F  0AA3               	incf	(___aldiv@divisor+3),f
  1767                           	line	12
  1768                           	
  1769  0280                     l4521:	
  1770  0280  01AA               	clrf	(___aldiv@sign)
  1771  0281  1403               	bsf	status,0
  1772  0282  0DAA               	rlf	(___aldiv@sign),f
  1773  0283  2A84               	goto	l4523
  1774                           	line	13
  1775                           	
  1776  0284                     l2874:	
  1777                           	line	14
  1778                           	
  1779  0284                     l4523:	
  1780  0284  1FA7               	btfss	(___aldiv@dividend+3),7
  1781  0285  2A87               	goto	u2761
  1782  0286  2A88               	goto	u2760
  1783  0287                     u2761:
  1784  0287  2A98               	goto	l4529
  1785  0288                     u2760:
  1786                           	line	15
  1787                           	
  1788  0288                     l4525:	
  1789  0288  09A4               	comf	(___aldiv@dividend),f
  1790  0289  09A5               	comf	(___aldiv@dividend+1),f
  1791  028A  09A6               	comf	(___aldiv@dividend+2),f
  1792  028B  09A7               	comf	(___aldiv@dividend+3),f
  1793  028C  0AA4               	incf	(___aldiv@dividend),f
  1794  028D  1903               	skipnz
  1795  028E  0AA5               	incf	(___aldiv@dividend+1),f
  1796  028F  1903               	skipnz
  1797  0290  0AA6               	incf	(___aldiv@dividend+2),f
  1798  0291  1903               	skipnz
  1799  0292  0AA7               	incf	(___aldiv@dividend+3),f
  1800                           	line	16
  1801                           	
  1802  0293                     l4527:	
  1803  0293  3001               	movlw	(01h)
  1804  0294  00A8               	movwf	(??___aldiv+0)+0
  1805  0295  0828               	movf	(??___aldiv+0)+0,w
  1806  0296  06AA               	xorwf	(___aldiv@sign),f
  1807  0297  2A98               	goto	l4529
  1808                           	line	17
  1809                           	
  1810  0298                     l2875:	
  1811                           	line	18
  1812                           	
  1813  0298                     l4529:	
  1814  0298  3000               	movlw	0
  1815  0299  00AE               	movwf	(___aldiv@quotient+3)
  1816  029A  3000               	movlw	0
  1817  029B  00AD               	movwf	(___aldiv@quotient+2)
  1818  029C  3000               	movlw	0
  1819  029D  00AC               	movwf	(___aldiv@quotient+1)
  1820  029E  3000               	movlw	0
  1821  029F  00AB               	movwf	(___aldiv@quotient)
  1822                           
  1823                           	line	19
  1824                           	
  1825  02A0                     l4531:	
  1826  02A0  0823               	movf	(___aldiv@divisor+3),w
  1827  02A1  0422               	iorwf	(___aldiv@divisor+2),w
  1828  02A2  0421               	iorwf	(___aldiv@divisor+1),w
  1829  02A3  0420               	iorwf	(___aldiv@divisor),w
  1830  02A4  1903               	skipnz
  1831  02A5  2AA7               	goto	u2771
  1832  02A6  2AA8               	goto	u2770
  1833  02A7                     u2771:
  1834  02A7  2AFC               	goto	l4551
  1835  02A8                     u2770:
  1836                           	line	20
  1837                           	
  1838  02A8                     l4533:	
  1839  02A8  01A9               	clrf	(___aldiv@counter)
  1840  02A9  1403               	bsf	status,0
  1841  02AA  0DA9               	rlf	(___aldiv@counter),f
  1842                           	line	21
  1843  02AB  2ABA               	goto	l4537
  1844                           	
  1845  02AC                     l2878:	
  1846                           	line	22
  1847                           	
  1848  02AC                     l4535:	
  1849  02AC  3001               	movlw	01h
  1850  02AD  00A8               	movwf	(??___aldiv+0)+0
  1851  02AE                     u2785:
  1852  02AE  1003               	clrc
  1853  02AF  0DA0               	rlf	(___aldiv@divisor),f
  1854  02B0  0DA1               	rlf	(___aldiv@divisor+1),f
  1855  02B1  0DA2               	rlf	(___aldiv@divisor+2),f
  1856  02B2  0DA3               	rlf	(___aldiv@divisor+3),f
  1857  02B3  0BA8               	decfsz	(??___aldiv+0)+0
  1858  02B4  2AAE               	goto	u2785
  1859                           	line	23
  1860  02B5  3001               	movlw	(01h)
  1861  02B6  00A8               	movwf	(??___aldiv+0)+0
  1862  02B7  0828               	movf	(??___aldiv+0)+0,w
  1863  02B8  07A9               	addwf	(___aldiv@counter),f
  1864  02B9  2ABA               	goto	l4537
  1865                           	line	24
  1866                           	
  1867  02BA                     l2877:	
  1868                           	line	21
  1869                           	
  1870  02BA                     l4537:	
  1871  02BA  1FA3               	btfss	(___aldiv@divisor+3),(31)&7
  1872  02BB  2ABD               	goto	u2791
  1873  02BC  2ABE               	goto	u2790
  1874  02BD                     u2791:
  1875  02BD  2AAC               	goto	l4535
  1876  02BE                     u2790:
  1877  02BE  2AC0               	goto	l4539
  1878                           	
  1879  02BF                     l2879:	
  1880  02BF  2AC0               	goto	l4539
  1881                           	line	25
  1882                           	
  1883  02C0                     l2880:	
  1884                           	line	26
  1885                           	
  1886  02C0                     l4539:	
  1887  02C0  3001               	movlw	01h
  1888  02C1  00A8               	movwf	(??___aldiv+0)+0
  1889  02C2                     u2805:
  1890  02C2  1003               	clrc
  1891  02C3  0DAB               	rlf	(___aldiv@quotient),f
  1892  02C4  0DAC               	rlf	(___aldiv@quotient+1),f
  1893  02C5  0DAD               	rlf	(___aldiv@quotient+2),f
  1894  02C6  0DAE               	rlf	(___aldiv@quotient+3),f
  1895  02C7  0BA8               	decfsz	(??___aldiv+0)+0
  1896  02C8  2AC2               	goto	u2805
  1897                           	line	27
  1898                           	
  1899  02C9                     l4541:	
  1900  02C9  0823               	movf	(___aldiv@divisor+3),w
  1901  02CA  0227               	subwf	(___aldiv@dividend+3),w
  1902  02CB  1D03               	skipz
  1903  02CC  2AD7               	goto	u2815
  1904  02CD  0822               	movf	(___aldiv@divisor+2),w
  1905  02CE  0226               	subwf	(___aldiv@dividend+2),w
  1906  02CF  1D03               	skipz
  1907  02D0  2AD7               	goto	u2815
  1908  02D1  0821               	movf	(___aldiv@divisor+1),w
  1909  02D2  0225               	subwf	(___aldiv@dividend+1),w
  1910  02D3  1D03               	skipz
  1911  02D4  2AD7               	goto	u2815
  1912  02D5  0820               	movf	(___aldiv@divisor),w
  1913  02D6  0224               	subwf	(___aldiv@dividend),w
  1914  02D7                     u2815:
  1915  02D7  1C03               	skipc
  1916  02D8  2ADA               	goto	u2811
  1917  02D9  2ADB               	goto	u2810
  1918  02DA                     u2811:
  1919  02DA  2AEB               	goto	l4547
  1920  02DB                     u2810:
  1921                           	line	28
  1922                           	
  1923  02DB                     l4543:	
  1924  02DB  0820               	movf	(___aldiv@divisor),w
  1925  02DC  02A4               	subwf	(___aldiv@dividend),f
  1926  02DD  0821               	movf	(___aldiv@divisor+1),w
  1927  02DE  1C03               	skipc
  1928  02DF  0F21               	incfsz	(___aldiv@divisor+1),w
  1929  02E0  02A5               	subwf	(___aldiv@dividend+1),f
  1930  02E1  0822               	movf	(___aldiv@divisor+2),w
  1931  02E2  1C03               	skipc
  1932  02E3  0F22               	incfsz	(___aldiv@divisor+2),w
  1933  02E4  02A6               	subwf	(___aldiv@dividend+2),f
  1934  02E5  0823               	movf	(___aldiv@divisor+3),w
  1935  02E6  1C03               	skipc
  1936  02E7  0F23               	incfsz	(___aldiv@divisor+3),w
  1937  02E8  02A7               	subwf	(___aldiv@dividend+3),f
  1938                           	line	29
  1939                           	
  1940  02E9                     l4545:	
  1941  02E9  142B               	bsf	(___aldiv@quotient)+(0/8),(0)&7
  1942  02EA  2AEB               	goto	l4547
  1943                           	line	30
  1944                           	
  1945  02EB                     l2881:	
  1946                           	line	31
  1947                           	
  1948  02EB                     l4547:	
  1949  02EB  3001               	movlw	01h
  1950  02EC                     u2825:
  1951  02EC  1003               	clrc
  1952  02ED  0CA3               	rrf	(___aldiv@divisor+3),f
  1953  02EE  0CA2               	rrf	(___aldiv@divisor+2),f
  1954  02EF  0CA1               	rrf	(___aldiv@divisor+1),f
  1955  02F0  0CA0               	rrf	(___aldiv@divisor),f
  1956  02F1  3EFF               	addlw	-1
  1957  02F2  1D03               	skipz
  1958  02F3  2AEC               	goto	u2825
  1959                           
  1960                           	line	32
  1961                           	
  1962  02F4                     l4549:	
  1963  02F4  3001               	movlw	low(01h)
  1964  02F5  02A9               	subwf	(___aldiv@counter),f
  1965  02F6  1D03               	btfss	status,2
  1966  02F7  2AF9               	goto	u2831
  1967  02F8  2AFA               	goto	u2830
  1968  02F9                     u2831:
  1969  02F9  2AC0               	goto	l4539
  1970  02FA                     u2830:
  1971  02FA  2AFC               	goto	l4551
  1972                           	
  1973  02FB                     l2882:	
  1974  02FB  2AFC               	goto	l4551
  1975                           	line	33
  1976                           	
  1977  02FC                     l2876:	
  1978                           	line	34
  1979                           	
  1980  02FC                     l4551:	
  1981  02FC  082A               	movf	(___aldiv@sign),w
  1982  02FD  1D03               	skipz
  1983  02FE  2B00               	goto	u2840
  1984  02FF  2B0C               	goto	l4555
  1985  0300                     u2840:
  1986                           	line	35
  1987                           	
  1988  0300                     l4553:	
  1989  0300  09AB               	comf	(___aldiv@quotient),f
  1990  0301  09AC               	comf	(___aldiv@quotient+1),f
  1991  0302  09AD               	comf	(___aldiv@quotient+2),f
  1992  0303  09AE               	comf	(___aldiv@quotient+3),f
  1993  0304  0AAB               	incf	(___aldiv@quotient),f
  1994  0305  1903               	skipnz
  1995  0306  0AAC               	incf	(___aldiv@quotient+1),f
  1996  0307  1903               	skipnz
  1997  0308  0AAD               	incf	(___aldiv@quotient+2),f
  1998  0309  1903               	skipnz
  1999  030A  0AAE               	incf	(___aldiv@quotient+3),f
  2000  030B  2B0C               	goto	l4555
  2001                           	
  2002  030C                     l2883:	
  2003                           	line	36
  2004                           	
  2005  030C                     l4555:	
  2006  030C  082E               	movf	(___aldiv@quotient+3),w
  2007  030D  00A3               	movwf	(?___aldiv+3)
  2008  030E  082D               	movf	(___aldiv@quotient+2),w
  2009  030F  00A2               	movwf	(?___aldiv+2)
  2010  0310  082C               	movf	(___aldiv@quotient+1),w
  2011  0311  00A1               	movwf	(?___aldiv+1)
  2012  0312  082B               	movf	(___aldiv@quotient),w
  2013  0313  00A0               	movwf	(?___aldiv)
  2014                           
  2015  0314  2B15               	goto	l2884
  2016                           	
  2017  0315                     l4557:	
  2018                           	line	37
  2019                           	
  2020  0315                     l2884:	
  2021  0315  0008               	return
  2022                           	opt stack 0
  2023                           GLOBAL	__end_of___aldiv
  2024  0316                     	__end_of___aldiv:
  2025 ;; =============== function ___aldiv ends ============
  2026                           
  2027                           	signat	___aldiv,8316
  2028                           	global	___lldiv
  2029                           psect	text346,local,class=CODE,delta=2
  2030                           global __ptext346
  2031  041B                     __ptext346:
  2032                           
  2033 ;; *************** function ___lldiv *****************
  2034 ;; Defined at:
  2035 ;;		line 5 in file "C:\Program Files (x86)\HI-TECH Software\PICC\9.82\sources\lldiv.c"
  2036 ;; Parameters:    Size  Location     Type
  2037 ;;  divisor         4    0[BANK0 ] unsigned long 
  2038 ;;  dividend        4    4[BANK0 ] unsigned long 
  2039 ;; Auto vars:     Size  Location     Type
  2040 ;;  quotient        4    9[BANK0 ] unsigned long 
  2041 ;;  counter         1   13[BANK0 ] unsigned char 
  2042 ;; Return value:  Size  Location     Type
  2043 ;;                  4    0[BANK0 ] unsigned long 
  2044 ;; Registers used:
  2045 ;;		wreg, status,2, status,0
  2046 ;; Tracked objects:
  2047 ;;		On entry : 0/0
  2048 ;;		On exit  : 0/0
  2049 ;;		Unchanged: 0/0
  2050 ;; Data sizes:     COMMON   BANK0   BANK1   BANK3   BANK2
  2051 ;;      Params:         0       8       0       0       0
  2052 ;;      Locals:         0       5       0       0       0
  2053 ;;      Temps:          0       1       0       0       0
  2054 ;;      Totals:         0      14       0       0       0
  2055 ;;Total ram usage:       14 bytes
  2056 ;; Hardware stack levels used:    1
  2057 ;; Hardware stack levels required when called:    1
  2058 ;; This function calls:
  2059 ;;		Nothing
  2060 ;; This function is called by:
  2061 ;;		_div
  2062 ;; This function uses a non-reentrant model
  2063 ;;
  2064                           psect	text346
  2065                           	file	"C:\Program Files (x86)\HI-TECH Software\PICC\9.82\sources\lldiv.c"
  2066                           	line	5
  2067                           	global	__size_of___lldiv
  2068  0070                     	__size_of___lldiv	equ	__end_of___lldiv-___lldiv
  2069                           	
  2070  041B                     ___lldiv:	
  2071                           	opt	stack 5
  2072                           ; Regs used in ___lldiv: [wreg+status,2+status,0]
  2073                           	line	9
  2074                           	
  2075  041B                     l4493:	
  2076  041B  3000               	movlw	0
  2077  041C  1283               	bcf	status, 5	;RP0=0, select bank0
  2078  041D  1303               	bcf	status, 6	;RP1=0, select bank0
  2079  041E  00AC               	movwf	(___lldiv@quotient+3)
  2080  041F  3000               	movlw	0
  2081  0420  00AB               	movwf	(___lldiv@quotient+2)
  2082  0421  3000               	movlw	0
  2083  0422  00AA               	movwf	(___lldiv@quotient+1)
  2084  0423  3000               	movlw	0
  2085  0424  00A9               	movwf	(___lldiv@quotient)
  2086                           
  2087                           	line	10
  2088  0425  0823               	movf	(___lldiv@divisor+3),w
  2089  0426  0422               	iorwf	(___lldiv@divisor+2),w
  2090  0427  0421               	iorwf	(___lldiv@divisor+1),w
  2091  0428  0420               	iorwf	(___lldiv@divisor),w
  2092  0429  1903               	skipnz
  2093  042A  2C2C               	goto	u2681
  2094  042B  2C2D               	goto	u2680
  2095  042C                     u2681:
  2096  042C  2C81               	goto	l4513
  2097  042D                     u2680:
  2098                           	line	11
  2099                           	
  2100  042D                     l4495:	
  2101  042D  01AD               	clrf	(___lldiv@counter)
  2102  042E  1403               	bsf	status,0
  2103  042F  0DAD               	rlf	(___lldiv@counter),f
  2104                           	line	12
  2105  0430  2C3F               	goto	l4499
  2106                           	
  2107  0431                     l2853:	
  2108                           	line	13
  2109                           	
  2110  0431                     l4497:	
  2111  0431  3001               	movlw	01h
  2112  0432  00A8               	movwf	(??___lldiv+0)+0
  2113  0433                     u2695:
  2114  0433  1003               	clrc
  2115  0434  0DA0               	rlf	(___lldiv@divisor),f
  2116  0435  0DA1               	rlf	(___lldiv@divisor+1),f
  2117  0436  0DA2               	rlf	(___lldiv@divisor+2),f
  2118  0437  0DA3               	rlf	(___lldiv@divisor+3),f
  2119  0438  0BA8               	decfsz	(??___lldiv+0)+0
  2120  0439  2C33               	goto	u2695
  2121                           	line	14
  2122  043A  3001               	movlw	(01h)
  2123  043B  00A8               	movwf	(??___lldiv+0)+0
  2124  043C  0828               	movf	(??___lldiv+0)+0,w
  2125  043D  07AD               	addwf	(___lldiv@counter),f
  2126  043E  2C3F               	goto	l4499
  2127                           	line	15
  2128                           	
  2129  043F                     l2852:	
  2130                           	line	12
  2131                           	
  2132  043F                     l4499:	
  2133  043F  1FA3               	btfss	(___lldiv@divisor+3),(31)&7
  2134  0440  2C42               	goto	u2701
  2135  0441  2C43               	goto	u2700
  2136  0442                     u2701:
  2137  0442  2C31               	goto	l4497
  2138  0443                     u2700:
  2139  0443  2C45               	goto	l4501
  2140                           	
  2141  0444                     l2854:	
  2142  0444  2C45               	goto	l4501
  2143                           	line	16
  2144                           	
  2145  0445                     l2855:	
  2146                           	line	17
  2147                           	
  2148  0445                     l4501:	
  2149  0445  3001               	movlw	01h
  2150  0446  00A8               	movwf	(??___lldiv+0)+0
  2151  0447                     u2715:
  2152  0447  1003               	clrc
  2153  0448  0DA9               	rlf	(___lldiv@quotient),f
  2154  0449  0DAA               	rlf	(___lldiv@quotient+1),f
  2155  044A  0DAB               	rlf	(___lldiv@quotient+2),f
  2156  044B  0DAC               	rlf	(___lldiv@quotient+3),f
  2157  044C  0BA8               	decfsz	(??___lldiv+0)+0
  2158  044D  2C47               	goto	u2715
  2159                           	line	18
  2160                           	
  2161  044E                     l4503:	
  2162  044E  0823               	movf	(___lldiv@divisor+3),w
  2163  044F  0227               	subwf	(___lldiv@dividend+3),w
  2164  0450  1D03               	skipz
  2165  0451  2C5C               	goto	u2725
  2166  0452  0822               	movf	(___lldiv@divisor+2),w
  2167  0453  0226               	subwf	(___lldiv@dividend+2),w
  2168  0454  1D03               	skipz
  2169  0455  2C5C               	goto	u2725
  2170  0456  0821               	movf	(___lldiv@divisor+1),w
  2171  0457  0225               	subwf	(___lldiv@dividend+1),w
  2172  0458  1D03               	skipz
  2173  0459  2C5C               	goto	u2725
  2174  045A  0820               	movf	(___lldiv@divisor),w
  2175  045B  0224               	subwf	(___lldiv@dividend),w
  2176  045C                     u2725:
  2177  045C  1C03               	skipc
  2178  045D  2C5F               	goto	u2721
  2179  045E  2C60               	goto	u2720
  2180  045F                     u2721:
  2181  045F  2C70               	goto	l4509
  2182  0460                     u2720:
  2183                           	line	19
  2184                           	
  2185  0460                     l4505:	
  2186  0460  0820               	movf	(___lldiv@divisor),w
  2187  0461  02A4               	subwf	(___lldiv@dividend),f
  2188  0462  0821               	movf	(___lldiv@divisor+1),w
  2189  0463  1C03               	skipc
  2190  0464  0F21               	incfsz	(___lldiv@divisor+1),w
  2191  0465  02A5               	subwf	(___lldiv@dividend+1),f
  2192  0466  0822               	movf	(___lldiv@divisor+2),w
  2193  0467  1C03               	skipc
  2194  0468  0F22               	incfsz	(___lldiv@divisor+2),w
  2195  0469  02A6               	subwf	(___lldiv@dividend+2),f
  2196  046A  0823               	movf	(___lldiv@divisor+3),w
  2197  046B  1C03               	skipc
  2198  046C  0F23               	incfsz	(___lldiv@divisor+3),w
  2199  046D  02A7               	subwf	(___lldiv@dividend+3),f
  2200                           	line	20
  2201                           	
  2202  046E                     l4507:	
  2203  046E  1429               	bsf	(___lldiv@quotient)+(0/8),(0)&7
  2204  046F  2C70               	goto	l4509
  2205                           	line	21
  2206                           	
  2207  0470                     l2856:	
  2208                           	line	22
  2209                           	
  2210  0470                     l4509:	
  2211  0470  3001               	movlw	01h
  2212  0471                     u2735:
  2213  0471  1003               	clrc
  2214  0472  0CA3               	rrf	(___lldiv@divisor+3),f
  2215  0473  0CA2               	rrf	(___lldiv@divisor+2),f
  2216  0474  0CA1               	rrf	(___lldiv@divisor+1),f
  2217  0475  0CA0               	rrf	(___lldiv@divisor),f
  2218  0476  3EFF               	addlw	-1
  2219  0477  1D03               	skipz
  2220  0478  2C71               	goto	u2735
  2221                           
  2222                           	line	23
  2223                           	
  2224  0479                     l4511:	
  2225  0479  3001               	movlw	low(01h)
  2226  047A  02AD               	subwf	(___lldiv@counter),f
  2227  047B  1D03               	btfss	status,2
  2228  047C  2C7E               	goto	u2741
  2229  047D  2C7F               	goto	u2740
  2230  047E                     u2741:
  2231  047E  2C45               	goto	l4501
  2232  047F                     u2740:
  2233  047F  2C81               	goto	l4513
  2234                           	
  2235  0480                     l2857:	
  2236  0480  2C81               	goto	l4513
  2237                           	line	24
  2238                           	
  2239  0481                     l2851:	
  2240                           	line	25
  2241                           	
  2242  0481                     l4513:	
  2243  0481  082C               	movf	(___lldiv@quotient+3),w
  2244  0482  00A3               	movwf	(?___lldiv+3)
  2245  0483  082B               	movf	(___lldiv@quotient+2),w
  2246  0484  00A2               	movwf	(?___lldiv+2)
  2247  0485  082A               	movf	(___lldiv@quotient+1),w
  2248  0486  00A1               	movwf	(?___lldiv+1)
  2249  0487  0829               	movf	(___lldiv@quotient),w
  2250  0488  00A0               	movwf	(?___lldiv)
  2251                           
  2252  0489  2C8A               	goto	l2858
  2253                           	
  2254  048A                     l4515:	
  2255                           	line	26
  2256                           	
  2257  048A                     l2858:	
  2258  048A  0008               	return
  2259                           	opt stack 0
  2260                           GLOBAL	__end_of___lldiv
  2261  048B                     	__end_of___lldiv:
  2262 ;; =============== function ___lldiv ends ============
  2263                           
  2264                           	signat	___lldiv,8316
  2265                           	global	___awdiv
  2266                           psect	text347,local,class=CODE,delta=2
  2267                           global __ptext347
  2268  03A5                     __ptext347:
  2269                           
  2270 ;; *************** function ___awdiv *****************
  2271 ;; Defined at:
  2272 ;;		line 5 in file "C:\Program Files (x86)\HI-TECH Software\PICC\9.82\sources\awdiv.c"
  2273 ;; Parameters:    Size  Location     Type
  2274 ;;  divisor         2    0[BANK0 ] int 
  2275 ;;  dividend        2    2[BANK0 ] int 
  2276 ;; Auto vars:     Size  Location     Type
  2277 ;;  quotient        2    7[BANK0 ] int 
  2278 ;;  sign            1    6[BANK0 ] unsigned char 
  2279 ;;  counter         1    5[BANK0 ] unsigned char 
  2280 ;; Return value:  Size  Location     Type
  2281 ;;                  2    0[BANK0 ] int 
  2282 ;; Registers used:
  2283 ;;		wreg, status,2, status,0
  2284 ;; Tracked objects:
  2285 ;;		On entry : 0/0
  2286 ;;		On exit  : 0/0
  2287 ;;		Unchanged: 0/0
  2288 ;; Data sizes:     COMMON   BANK0   BANK1   BANK3   BANK2
  2289 ;;      Params:         0       4       0       0       0
  2290 ;;      Locals:         0       4       0       0       0
  2291 ;;      Temps:          0       1       0       0       0
  2292 ;;      Totals:         0       9       0       0       0
  2293 ;;Total ram usage:        9 bytes
  2294 ;; Hardware stack levels used:    1
  2295 ;; Hardware stack levels required when called:    1
  2296 ;; This function calls:
  2297 ;;		Nothing
  2298 ;; This function is called by:
  2299 ;;		_div
  2300 ;;		_speed_calculate
  2301 ;; This function uses a non-reentrant model
  2302 ;;
  2303                           psect	text347
  2304                           	file	"C:\Program Files (x86)\HI-TECH Software\PICC\9.82\sources\awdiv.c"
  2305                           	line	5
  2306                           	global	__size_of___awdiv
  2307  0076                     	__size_of___awdiv	equ	__end_of___awdiv-___awdiv
  2308                           	
  2309  03A5                     ___awdiv:	
  2310                           	opt	stack 5
  2311                           ; Regs used in ___awdiv: [wreg+status,2+status,0]
  2312                           	line	9
  2313                           	
  2314  03A5                     l4453:	
  2315  03A5  1283               	bcf	status, 5	;RP0=0, select bank0
  2316  03A6  1303               	bcf	status, 6	;RP1=0, select bank0
  2317  03A7  01A6               	clrf	(___awdiv@sign)
  2318                           	line	10
  2319  03A8  1FA1               	btfss	(___awdiv@divisor+1),7
  2320  03A9  2BAB               	goto	u2581
  2321  03AA  2BAC               	goto	u2580
  2322  03AB                     u2581:
  2323  03AB  2BB5               	goto	l4457
  2324  03AC                     u2580:
  2325                           	line	11
  2326                           	
  2327  03AC                     l4455:	
  2328  03AC  09A0               	comf	(___awdiv@divisor),f
  2329  03AD  09A1               	comf	(___awdiv@divisor+1),f
  2330  03AE  0AA0               	incf	(___awdiv@divisor),f
  2331  03AF  1903               	skipnz
  2332  03B0  0AA1               	incf	(___awdiv@divisor+1),f
  2333                           	line	12
  2334  03B1  01A6               	clrf	(___awdiv@sign)
  2335  03B2  1403               	bsf	status,0
  2336  03B3  0DA6               	rlf	(___awdiv@sign),f
  2337  03B4  2BB5               	goto	l4457
  2338                           	line	13
  2339                           	
  2340  03B5                     l2819:	
  2341                           	line	14
  2342                           	
  2343  03B5                     l4457:	
  2344  03B5  1FA3               	btfss	(___awdiv@dividend+1),7
  2345  03B6  2BB8               	goto	u2591
  2346  03B7  2BB9               	goto	u2590
  2347  03B8                     u2591:
  2348  03B8  2BC3               	goto	l4463
  2349  03B9                     u2590:
  2350                           	line	15
  2351                           	
  2352  03B9                     l4459:	
  2353  03B9  09A2               	comf	(___awdiv@dividend),f
  2354  03BA  09A3               	comf	(___awdiv@dividend+1),f
  2355  03BB  0AA2               	incf	(___awdiv@dividend),f
  2356  03BC  1903               	skipnz
  2357  03BD  0AA3               	incf	(___awdiv@dividend+1),f
  2358                           	line	16
  2359                           	
  2360  03BE                     l4461:	
  2361  03BE  3001               	movlw	(01h)
  2362  03BF  00A4               	movwf	(??___awdiv+0)+0
  2363  03C0  0824               	movf	(??___awdiv+0)+0,w
  2364  03C1  06A6               	xorwf	(___awdiv@sign),f
  2365  03C2  2BC3               	goto	l4463
  2366                           	line	17
  2367                           	
  2368  03C3                     l2820:	
  2369                           	line	18
  2370                           	
  2371  03C3                     l4463:	
  2372  03C3  01A7               	clrf	(___awdiv@quotient)
  2373  03C4  01A8               	clrf	(___awdiv@quotient+1)
  2374                           	line	19
  2375                           	
  2376  03C5                     l4465:	
  2377  03C5  0821               	movf	(___awdiv@divisor+1),w
  2378  03C6  0420               	iorwf	(___awdiv@divisor),w
  2379  03C7  1903               	skipnz
  2380  03C8  2BCA               	goto	u2601
  2381  03C9  2BCB               	goto	u2600
  2382  03CA                     u2601:
  2383  03CA  2C09               	goto	l4485
  2384  03CB                     u2600:
  2385                           	line	20
  2386                           	
  2387  03CB                     l4467:	
  2388  03CB  01A5               	clrf	(___awdiv@counter)
  2389  03CC  1403               	bsf	status,0
  2390  03CD  0DA5               	rlf	(___awdiv@counter),f
  2391                           	line	21
  2392  03CE  2BDB               	goto	l4473
  2393                           	
  2394  03CF                     l2823:	
  2395                           	line	22
  2396                           	
  2397  03CF                     l4469:	
  2398  03CF  3001               	movlw	01h
  2399                           	
  2400  03D0                     u2615:
  2401  03D0  1003               	clrc
  2402  03D1  0DA0               	rlf	(___awdiv@divisor),f
  2403  03D2  0DA1               	rlf	(___awdiv@divisor+1),f
  2404  03D3  3EFF               	addlw	-1
  2405  03D4  1D03               	skipz
  2406  03D5  2BD0               	goto	u2615
  2407                           	line	23
  2408                           	
  2409  03D6                     l4471:	
  2410  03D6  3001               	movlw	(01h)
  2411  03D7  00A4               	movwf	(??___awdiv+0)+0
  2412  03D8  0824               	movf	(??___awdiv+0)+0,w
  2413  03D9  07A5               	addwf	(___awdiv@counter),f
  2414  03DA  2BDB               	goto	l4473
  2415                           	line	24
  2416                           	
  2417  03DB                     l2822:	
  2418                           	line	21
  2419                           	
  2420  03DB                     l4473:	
  2421  03DB  1FA1               	btfss	(___awdiv@divisor+1),(15)&7
  2422  03DC  2BDE               	goto	u2621
  2423  03DD  2BDF               	goto	u2620
  2424  03DE                     u2621:
  2425  03DE  2BCF               	goto	l4469
  2426  03DF                     u2620:
  2427  03DF  2BE1               	goto	l4475
  2428                           	
  2429  03E0                     l2824:	
  2430  03E0  2BE1               	goto	l4475
  2431                           	line	25
  2432                           	
  2433  03E1                     l2825:	
  2434                           	line	26
  2435                           	
  2436  03E1                     l4475:	
  2437  03E1  3001               	movlw	01h
  2438                           	
  2439  03E2                     u2635:
  2440  03E2  1003               	clrc
  2441  03E3  0DA7               	rlf	(___awdiv@quotient),f
  2442  03E4  0DA8               	rlf	(___awdiv@quotient+1),f
  2443  03E5  3EFF               	addlw	-1
  2444  03E6  1D03               	skipz
  2445  03E7  2BE2               	goto	u2635
  2446                           	line	27
  2447  03E8  0821               	movf	(___awdiv@divisor+1),w
  2448  03E9  0223               	subwf	(___awdiv@dividend+1),w
  2449  03EA  1D03               	skipz
  2450  03EB  2BEE               	goto	u2645
  2451  03EC  0820               	movf	(___awdiv@divisor),w
  2452  03ED  0222               	subwf	(___awdiv@dividend),w
  2453  03EE                     u2645:
  2454  03EE  1C03               	skipc
  2455  03EF  2BF1               	goto	u2641
  2456  03F0  2BF2               	goto	u2640
  2457  03F1                     u2641:
  2458  03F1  2BFA               	goto	l4481
  2459  03F2                     u2640:
  2460                           	line	28
  2461                           	
  2462  03F2                     l4477:	
  2463  03F2  0820               	movf	(___awdiv@divisor),w
  2464  03F3  02A2               	subwf	(___awdiv@dividend),f
  2465  03F4  0821               	movf	(___awdiv@divisor+1),w
  2466  03F5  1C03               	skipc
  2467  03F6  03A3               	decf	(___awdiv@dividend+1),f
  2468  03F7  02A3               	subwf	(___awdiv@dividend+1),f
  2469                           	line	29
  2470                           	
  2471  03F8                     l4479:	
  2472  03F8  1427               	bsf	(___awdiv@quotient)+(0/8),(0)&7
  2473  03F9  2BFA               	goto	l4481
  2474                           	line	30
  2475                           	
  2476  03FA                     l2826:	
  2477                           	line	31
  2478                           	
  2479  03FA                     l4481:	
  2480  03FA  3001               	movlw	01h
  2481                           	
  2482  03FB                     u2655:
  2483  03FB  1003               	clrc
  2484  03FC  0CA1               	rrf	(___awdiv@divisor+1),f
  2485  03FD  0CA0               	rrf	(___awdiv@divisor),f
  2486  03FE  3EFF               	addlw	-1
  2487  03FF  1D03               	skipz
  2488  0400  2BFB               	goto	u2655
  2489                           	line	32
  2490                           	
  2491  0401                     l4483:	
  2492  0401  3001               	movlw	low(01h)
  2493  0402  02A5               	subwf	(___awdiv@counter),f
  2494  0403  1D03               	btfss	status,2
  2495  0404  2C06               	goto	u2661
  2496  0405  2C07               	goto	u2660
  2497  0406                     u2661:
  2498  0406  2BE1               	goto	l4475
  2499  0407                     u2660:
  2500  0407  2C09               	goto	l4485
  2501                           	
  2502  0408                     l2827:	
  2503  0408  2C09               	goto	l4485
  2504                           	line	33
  2505                           	
  2506  0409                     l2821:	
  2507                           	line	34
  2508                           	
  2509  0409                     l4485:	
  2510  0409  0826               	movf	(___awdiv@sign),w
  2511  040A  1D03               	skipz
  2512  040B  2C0D               	goto	u2670
  2513  040C  2C13               	goto	l4489
  2514  040D                     u2670:
  2515                           	line	35
  2516                           	
  2517  040D                     l4487:	
  2518  040D  09A7               	comf	(___awdiv@quotient),f
  2519  040E  09A8               	comf	(___awdiv@quotient+1),f
  2520  040F  0AA7               	incf	(___awdiv@quotient),f
  2521  0410  1903               	skipnz
  2522  0411  0AA8               	incf	(___awdiv@quotient+1),f
  2523  0412  2C13               	goto	l4489
  2524                           	
  2525  0413                     l2828:	
  2526                           	line	36
  2527                           	
  2528  0413                     l4489:	
  2529  0413  0828               	movf	(___awdiv@quotient+1),w
  2530  0414  01A1               	clrf	(?___awdiv+1)
  2531  0415  07A1               	addwf	(?___awdiv+1)
  2532  0416  0827               	movf	(___awdiv@quotient),w
  2533  0417  01A0               	clrf	(?___awdiv)
  2534  0418  07A0               	addwf	(?___awdiv)
  2535                           
  2536  0419  2C1A               	goto	l2829
  2537                           	
  2538  041A                     l4491:	
  2539                           	line	37
  2540                           	
  2541  041A                     l2829:	
  2542  041A  0008               	return
  2543                           	opt stack 0
  2544                           GLOBAL	__end_of___awdiv
  2545  041B                     	__end_of___awdiv:
  2546 ;; =============== function ___awdiv ends ============
  2547                           
  2548                           	signat	___awdiv,8314
  2549                           	global	___lmul
  2550                           psect	text348,local,class=CODE,delta=2
  2551                           global __ptext348
  2552  04F3                     __ptext348:
  2553                           
  2554 ;; *************** function ___lmul *****************
  2555 ;; Defined at:
  2556 ;;		line 3 in file "C:\Program Files (x86)\HI-TECH Software\PICC\9.82\sources\lmul.c"
  2557 ;; Parameters:    Size  Location     Type
  2558 ;;  multiplier      4    0[BANK0 ] unsigned long 
  2559 ;;  multiplicand    4    4[BANK0 ] unsigned long 
  2560 ;; Auto vars:     Size  Location     Type
  2561 ;;  product         4    9[BANK0 ] unsigned long 
  2562 ;; Return value:  Size  Location     Type
  2563 ;;                  4    0[BANK0 ] unsigned long 
  2564 ;; Registers used:
  2565 ;;		wreg, status,2, status,0
  2566 ;; Tracked objects:
  2567 ;;		On entry : 0/0
  2568 ;;		On exit  : 0/0
  2569 ;;		Unchanged: 0/0
  2570 ;; Data sizes:     COMMON   BANK0   BANK1   BANK3   BANK2
  2571 ;;      Params:         0       8       0       0       0
  2572 ;;      Locals:         0       4       0       0       0
  2573 ;;      Temps:          0       1       0       0       0
  2574 ;;      Totals:         0      13       0       0       0
  2575 ;;Total ram usage:       13 bytes
  2576 ;; Hardware stack levels used:    1
  2577 ;; Hardware stack levels required when called:    1
  2578 ;; This function calls:
  2579 ;;		Nothing
  2580 ;; This function is called by:
  2581 ;;		_div
  2582 ;; This function uses a non-reentrant model
  2583 ;;
  2584                           psect	text348
  2585                           	file	"C:\Program Files (x86)\HI-TECH Software\PICC\9.82\sources\lmul.c"
  2586                           	line	3
  2587                           	global	__size_of___lmul
  2588  004C                     	__size_of___lmul	equ	__end_of___lmul-___lmul
  2589                           	
  2590  04F3                     ___lmul:	
  2591                           	opt	stack 5
  2592                           ; Regs used in ___lmul: [wreg+status,2+status,0]
  2593                           	line	4
  2594                           	
  2595  04F3                     l4439:	
  2596  04F3  3000               	movlw	0
  2597  04F4  1283               	bcf	status, 5	;RP0=0, select bank0
  2598  04F5  1303               	bcf	status, 6	;RP1=0, select bank0
  2599  04F6  00AC               	movwf	(___lmul@product+3)
  2600  04F7  3000               	movlw	0
  2601  04F8  00AB               	movwf	(___lmul@product+2)
  2602  04F9  3000               	movlw	0
  2603  04FA  00AA               	movwf	(___lmul@product+1)
  2604  04FB  3000               	movlw	0
  2605  04FC  00A9               	movwf	(___lmul@product)
  2606                           
  2607  04FD  2CFE               	goto	l4441
  2608                           	line	6
  2609                           	
  2610  04FE                     l2754:	
  2611                           	line	7
  2612                           	
  2613  04FE                     l4441:	
  2614  04FE  1C20               	btfss	(___lmul@multiplier),(0)&7
  2615  04FF  2D01               	goto	u2531
  2616  0500  2D02               	goto	u2530
  2617  0501                     u2531:
  2618  0501  2D1A               	goto	l4445
  2619  0502                     u2530:
  2620                           	line	8
  2621                           	
  2622  0502                     l4443:	
  2623  0502  0824               	movf	(___lmul@multiplicand),w
  2624  0503  07A9               	addwf	(___lmul@product),f
  2625  0504  0825               	movf	(___lmul@multiplicand+1),w
  2626  0505  1103               	clrz
  2627  0506  1803               	skipnc
  2628  0507  3E01               	addlw	1
  2629  0508  1903               	skipnz
  2630  0509  2D0B               	goto	u2541
  2631  050A  07AA               	addwf	(___lmul@product+1),f
  2632  050B                     u2541:
  2633  050B  0826               	movf	(___lmul@multiplicand+2),w
  2634  050C  1103               	clrz
  2635  050D  1803               	skipnc
  2636  050E  3E01               	addlw	1
  2637  050F  1903               	skipnz
  2638  0510  2D12               	goto	u2542
  2639  0511  07AB               	addwf	(___lmul@product+2),f
  2640  0512                     u2542:
  2641  0512  0827               	movf	(___lmul@multiplicand+3),w
  2642  0513  1103               	clrz
  2643  0514  1803               	skipnc
  2644  0515  3E01               	addlw	1
  2645  0516  1903               	skipnz
  2646  0517  2D19               	goto	u2543
  2647  0518  07AC               	addwf	(___lmul@product+3),f
  2648  0519                     u2543:
  2649                           
  2650  0519  2D1A               	goto	l4445
  2651                           	
  2652  051A                     l2755:	
  2653                           	line	9
  2654                           	
  2655  051A                     l4445:	
  2656  051A  3001               	movlw	01h
  2657  051B  00A8               	movwf	(??___lmul+0)+0
  2658  051C                     u2555:
  2659  051C  1003               	clrc
  2660  051D  0DA4               	rlf	(___lmul@multiplicand),f
  2661  051E  0DA5               	rlf	(___lmul@multiplicand+1),f
  2662  051F  0DA6               	rlf	(___lmul@multiplicand+2),f
  2663  0520  0DA7               	rlf	(___lmul@multiplicand+3),f
  2664  0521  0BA8               	decfsz	(??___lmul+0)+0
  2665  0522  2D1C               	goto	u2555
  2666                           	line	10
  2667                           	
  2668  0523                     l4447:	
  2669  0523  3001               	movlw	01h
  2670  0524                     u2565:
  2671  0524  1003               	clrc
  2672  0525  0CA3               	rrf	(___lmul@multiplier+3),f
  2673  0526  0CA2               	rrf	(___lmul@multiplier+2),f
  2674  0527  0CA1               	rrf	(___lmul@multiplier+1),f
  2675  0528  0CA0               	rrf	(___lmul@multiplier),f
  2676  0529  3EFF               	addlw	-1
  2677  052A  1D03               	skipz
  2678  052B  2D24               	goto	u2565
  2679                           
  2680                           	line	11
  2681  052C  0823               	movf	(___lmul@multiplier+3),w
  2682  052D  0422               	iorwf	(___lmul@multiplier+2),w
  2683  052E  0421               	iorwf	(___lmul@multiplier+1),w
  2684  052F  0420               	iorwf	(___lmul@multiplier),w
  2685  0530  1D03               	skipz
  2686  0531  2D33               	goto	u2571
  2687  0532  2D34               	goto	u2570
  2688  0533                     u2571:
  2689  0533  2CFE               	goto	l4441
  2690  0534                     u2570:
  2691  0534  2D35               	goto	l4449
  2692                           	
  2693  0535                     l2756:	
  2694                           	line	12
  2695                           	
  2696  0535                     l4449:	
  2697  0535  082C               	movf	(___lmul@product+3),w
  2698  0536  00A3               	movwf	(?___lmul+3)
  2699  0537  082B               	movf	(___lmul@product+2),w
  2700  0538  00A2               	movwf	(?___lmul+2)
  2701  0539  082A               	movf	(___lmul@product+1),w
  2702  053A  00A1               	movwf	(?___lmul+1)
  2703  053B  0829               	movf	(___lmul@product),w
  2704  053C  00A0               	movwf	(?___lmul)
  2705                           
  2706  053D  2D3E               	goto	l2757
  2707                           	
  2708  053E                     l4451:	
  2709                           	line	13
  2710                           	
  2711  053E                     l2757:	
  2712  053E  0008               	return
  2713                           	opt stack 0
  2714                           GLOBAL	__end_of___lmul
  2715  053F                     	__end_of___lmul:
  2716 ;; =============== function ___lmul ends ============
  2717                           
  2718                           	signat	___lmul,8316
  2719                           	global	___wmul
  2720                           psect	text349,local,class=CODE,delta=2
  2721                           global __ptext349
  2722  057A                     __ptext349:
  2723                           
  2724 ;; *************** function ___wmul *****************
  2725 ;; Defined at:
  2726 ;;		line 3 in file "C:\Program Files (x86)\HI-TECH Software\PICC\9.82\sources\wmul.c"
  2727 ;; Parameters:    Size  Location     Type
  2728 ;;  multiplier      2    0[BANK0 ] unsigned int 
  2729 ;;  multiplicand    2    2[BANK0 ] unsigned int 
  2730 ;; Auto vars:     Size  Location     Type
  2731 ;;  product         2    4[BANK0 ] unsigned int 
  2732 ;; Return value:  Size  Location     Type
  2733 ;;                  2    0[BANK0 ] unsigned int 
  2734 ;; Registers used:
  2735 ;;		wreg, status,2, status,0
  2736 ;; Tracked objects:
  2737 ;;		On entry : 0/0
  2738 ;;		On exit  : 0/0
  2739 ;;		Unchanged: 0/0
  2740 ;; Data sizes:     COMMON   BANK0   BANK1   BANK3   BANK2
  2741 ;;      Params:         0       4       0       0       0
  2742 ;;      Locals:         0       2       0       0       0
  2743 ;;      Temps:          0       0       0       0       0
  2744 ;;      Totals:         0       6       0       0       0
  2745 ;;Total ram usage:        6 bytes
  2746 ;; Hardware stack levels used:    1
  2747 ;; Hardware stack levels required when called:    1
  2748 ;; This function calls:
  2749 ;;		Nothing
  2750 ;; This function is called by:
  2751 ;;		_div
  2752 ;; This function uses a non-reentrant model
  2753 ;;
  2754                           psect	text349
  2755                           	file	"C:\Program Files (x86)\HI-TECH Software\PICC\9.82\sources\wmul.c"
  2756                           	line	3
  2757                           	global	__size_of___wmul
  2758  002C                     	__size_of___wmul	equ	__end_of___wmul-___wmul
  2759                           	
  2760  057A                     ___wmul:	
  2761                           	opt	stack 5
  2762                           ; Regs used in ___wmul: [wreg+status,2+status,0]
  2763                           	line	4
  2764                           	
  2765  057A                     l4427:	
  2766  057A  1283               	bcf	status, 5	;RP0=0, select bank0
  2767  057B  1303               	bcf	status, 6	;RP1=0, select bank0
  2768  057C  01A4               	clrf	(___wmul@product)
  2769  057D  01A5               	clrf	(___wmul@product+1)
  2770  057E  2D7F               	goto	l4429
  2771                           	line	6
  2772                           	
  2773  057F                     l2679:	
  2774                           	line	7
  2775                           	
  2776  057F                     l4429:	
  2777  057F  1C20               	btfss	(___wmul@multiplier),(0)&7
  2778  0580  2D82               	goto	u2491
  2779  0581  2D83               	goto	u2490
  2780  0582                     u2491:
  2781  0582  2D89               	goto	l2680
  2782  0583                     u2490:
  2783                           	line	8
  2784                           	
  2785  0583                     l4431:	
  2786  0583  0822               	movf	(___wmul@multiplicand),w
  2787  0584  07A4               	addwf	(___wmul@product),f
  2788  0585  1803               	skipnc
  2789  0586  0AA5               	incf	(___wmul@product+1),f
  2790  0587  0823               	movf	(___wmul@multiplicand+1),w
  2791  0588  07A5               	addwf	(___wmul@product+1),f
  2792                           	
  2793  0589                     l2680:	
  2794                           	line	9
  2795  0589  3001               	movlw	01h
  2796                           	
  2797  058A                     u2505:
  2798  058A  1003               	clrc
  2799  058B  0DA2               	rlf	(___wmul@multiplicand),f
  2800  058C  0DA3               	rlf	(___wmul@multiplicand+1),f
  2801  058D  3EFF               	addlw	-1
  2802  058E  1D03               	skipz
  2803  058F  2D8A               	goto	u2505
  2804                           	line	10
  2805                           	
  2806  0590                     l4433:	
  2807  0590  3001               	movlw	01h
  2808                           	
  2809  0591                     u2515:
  2810  0591  1003               	clrc
  2811  0592  0CA1               	rrf	(___wmul@multiplier+1),f
  2812  0593  0CA0               	rrf	(___wmul@multiplier),f
  2813  0594  3EFF               	addlw	-1
  2814  0595  1D03               	skipz
  2815  0596  2D91               	goto	u2515
  2816                           	line	11
  2817  0597  0821               	movf	((___wmul@multiplier+1)),w
  2818  0598  0420               	iorwf	((___wmul@multiplier)),w
  2819  0599  1D03               	skipz
  2820  059A  2D9C               	goto	u2521
  2821  059B  2D9D               	goto	u2520
  2822  059C                     u2521:
  2823  059C  2D7F               	goto	l4429
  2824  059D                     u2520:
  2825  059D  2D9E               	goto	l4435
  2826                           	
  2827  059E                     l2681:	
  2828                           	line	12
  2829                           	
  2830  059E                     l4435:	
  2831  059E  0825               	movf	(___wmul@product+1),w
  2832  059F  01A1               	clrf	(?___wmul+1)
  2833  05A0  07A1               	addwf	(?___wmul+1)
  2834  05A1  0824               	movf	(___wmul@product),w
  2835  05A2  01A0               	clrf	(?___wmul)
  2836  05A3  07A0               	addwf	(?___wmul)
  2837                           
  2838  05A4  2DA5               	goto	l2682
  2839                           	
  2840  05A5                     l4437:	
  2841                           	line	13
  2842                           	
  2843  05A5                     l2682:	
  2844  05A5  0008               	return
  2845                           	opt stack 0
  2846                           GLOBAL	__end_of___wmul
  2847  05A6                     	__end_of___wmul:
  2848 ;; =============== function ___wmul ends ============
  2849                           
  2850                           	signat	___wmul,8314
  2851                           	global	___bmul
  2852                           psect	text350,local,class=CODE,delta=2
  2853                           global __ptext350
  2854  0603                     __ptext350:
  2855                           
  2856 ;; *************** function ___bmul *****************
  2857 ;; Defined at:
  2858 ;;		line 3 in file "C:\Program Files (x86)\HI-TECH Software\PICC\9.82\sources\bmul.c"
  2859 ;; Parameters:    Size  Location     Type
  2860 ;;  multiplier      1    wreg     unsigned char 
  2861 ;;  multiplicand    1    0[BANK0 ] unsigned char 
  2862 ;; Auto vars:     Size  Location     Type
  2863 ;;  multiplier      1    3[BANK0 ] unsigned char 
  2864 ;;  product         1    2[BANK0 ] unsigned char 
  2865 ;; Return value:  Size  Location     Type
  2866 ;;                  1    wreg      unsigned char 
  2867 ;; Registers used:
  2868 ;;		wreg, status,2, status,0
  2869 ;; Tracked objects:
  2870 ;;		On entry : 0/0
  2871 ;;		On exit  : 0/0
  2872 ;;		Unchanged: 0/0
  2873 ;; Data sizes:     COMMON   BANK0   BANK1   BANK3   BANK2
  2874 ;;      Params:         0       1       0       0       0
  2875 ;;      Locals:         0       2       0       0       0
  2876 ;;      Temps:          0       1       0       0       0
  2877 ;;      Totals:         0       4       0       0       0
  2878 ;;Total ram usage:        4 bytes
  2879 ;; Hardware stack levels used:    1
  2880 ;; Hardware stack levels required when called:    1
  2881 ;; This function calls:
  2882 ;;		Nothing
  2883 ;; This function is called by:
  2884 ;;		_div
  2885 ;;		_speed_calculate
  2886 ;; This function uses a non-reentrant model
  2887 ;;
  2888                           psect	text350
  2889                           	file	"C:\Program Files (x86)\HI-TECH Software\PICC\9.82\sources\bmul.c"
  2890                           	line	3
  2891                           	global	__size_of___bmul
  2892  001A                     	__size_of___bmul	equ	__end_of___bmul-___bmul
  2893                           	
  2894  0603                     ___bmul:	
  2895                           	opt	stack 5
  2896                           ; Regs used in ___bmul: [wreg+status,2+status,0]
  2897                           ;___bmul@multiplier stored from wreg
  2898  0603  1283               	bcf	status, 5	;RP0=0, select bank0
  2899  0604  1303               	bcf	status, 6	;RP1=0, select bank0
  2900  0605  00A3               	movwf	(___bmul@multiplier)
  2901                           	line	4
  2902                           	
  2903  0606                     l4413:	
  2904  0606  01A2               	clrf	(___bmul@product)
  2905                           	line	6
  2906                           	
  2907  0607                     l2673:	
  2908                           	line	7
  2909  0607  1C23               	btfss	(___bmul@multiplier),(0)&7
  2910  0608  2E0A               	goto	u2471
  2911  0609  2E0B               	goto	u2470
  2912  060A                     u2471:
  2913  060A  2E10               	goto	l4417
  2914  060B                     u2470:
  2915                           	line	8
  2916                           	
  2917  060B                     l4415:	
  2918  060B  0820               	movf	(___bmul@multiplicand),w
  2919  060C  00A1               	movwf	(??___bmul+0)+0
  2920  060D  0821               	movf	(??___bmul+0)+0,w
  2921  060E  07A2               	addwf	(___bmul@product),f
  2922  060F  2E10               	goto	l4417
  2923                           	
  2924  0610                     l2674:	
  2925                           	line	9
  2926                           	
  2927  0610                     l4417:	
  2928  0610  1003               	clrc
  2929  0611  0DA0               	rlf	(___bmul@multiplicand),f
  2930                           
  2931                           	line	10
  2932                           	
  2933  0612                     l4419:	
  2934  0612  1003               	clrc
  2935  0613  0CA3               	rrf	(___bmul@multiplier),f
  2936                           
  2937                           	line	11
  2938                           	
  2939  0614                     l4421:	
  2940  0614  08A3               	movf	(___bmul@multiplier),f
  2941  0615  1D03               	skipz
  2942  0616  2E18               	goto	u2481
  2943  0617  2E19               	goto	u2480
  2944  0618                     u2481:
  2945  0618  2E07               	goto	l2673
  2946  0619                     u2480:
  2947  0619  2E1A               	goto	l4423
  2948                           	
  2949  061A                     l2675:	
  2950                           	line	12
  2951                           	
  2952  061A                     l4423:	
  2953  061A  0822               	movf	(___bmul@product),w
  2954  061B  2E1C               	goto	l2676
  2955                           	
  2956  061C                     l4425:	
  2957                           	line	13
  2958                           	
  2959  061C                     l2676:	
  2960  061C  0008               	return
  2961                           	opt stack 0
  2962                           GLOBAL	__end_of___bmul
  2963  061D                     	__end_of___bmul:
  2964 ;; =============== function ___bmul ends ============
  2965                           
  2966                           	signat	___bmul,8313
  2967                           	global	_eeprom_write
  2968                           psect	text351,local,class=CODE,delta=2
  2969                           global __ptext351
  2970  053F                     __ptext351:
  2971                           
  2972 ;; *************** function _eeprom_write *****************
  2973 ;; Defined at:
  2974 ;;		line 7 in file "C:\Program Files (x86)\HI-TECH Software\PICC\9.82\sources\eewrite.c"
  2975 ;; Parameters:    Size  Location     Type
  2976 ;;  addr            1    wreg     unsigned char 
  2977 ;;  value           1    0[BANK0 ] unsigned char 
  2978 ;; Auto vars:     Size  Location     Type
  2979 ;;  addr            1    2[BANK0 ] unsigned char 
  2980 ;; Return value:  Size  Location     Type
  2981 ;;                  1    wreg      unsigned char 
  2982 ;; Registers used:
  2983 ;;		wreg, status,2, status,0
  2984 ;; Tracked objects:
  2985 ;;		On entry : 0/0
  2986 ;;		On exit  : 0/0
  2987 ;;		Unchanged: 0/0
  2988 ;; Data sizes:     COMMON   BANK0   BANK1   BANK3   BANK2
  2989 ;;      Params:         0       1       0       0       0
  2990 ;;      Locals:         0       1       0       0       0
  2991 ;;      Temps:          0       1       0       0       0
  2992 ;;      Totals:         0       3       0       0       0
  2993 ;;Total ram usage:        3 bytes
  2994 ;; Hardware stack levels used:    1
  2995 ;; Hardware stack levels required when called:    1
  2996 ;; This function calls:
  2997 ;;		Nothing
  2998 ;; This function is called by:
  2999 ;;		_main
  3000 ;; This function uses a non-reentrant model
  3001 ;;
  3002                           psect	text351
  3003                           	file	"C:\Program Files (x86)\HI-TECH Software\PICC\9.82\sources\eewrite.c"
  3004                           	line	7
  3005                           	global	__size_of_eeprom_write
  3006  003B                     	__size_of_eeprom_write	equ	__end_of_eeprom_write-_eeprom_write
  3007                           	
  3008  053F                     _eeprom_write:	
  3009                           	opt	stack 6
  3010                           ; Regs used in _eeprom_write: [wreg+status,2+status,0]
  3011                           ;eeprom_write@addr stored from wreg
  3012  053F  1283               	bcf	status, 5	;RP0=0, select bank0
  3013  0540  1303               	bcf	status, 6	;RP1=0, select bank0
  3014  0541  00A2               	movwf	(eeprom_write@addr)
  3015                           	line	8
  3016                           	
  3017  0542                     l1989:	
  3018  0542  2D43               	goto	l1990
  3019                           	
  3020  0543                     l1991:	
  3021                           	
  3022  0543                     l1990:	
  3023  0543  1683               	bsf	status, 5	;RP0=1, select bank3
  3024  0544  1703               	bsf	status, 6	;RP1=1, select bank3
  3025  0545  188C               	btfsc	(3169/8)^0180h,(3169)&7
  3026  0546  2D48               	goto	u2441
  3027  0547  2D49               	goto	u2440
  3028  0548                     u2441:
  3029  0548  2D43               	goto	l1990
  3030  0549                     u2440:
  3031  0549  2D4A               	goto	l4393
  3032                           	
  3033  054A                     l1992:	
  3034                           	
  3035  054A                     l4393:	
  3036  054A  1283               	bcf	status, 5	;RP0=0, select bank0
  3037  054B  1303               	bcf	status, 6	;RP1=0, select bank0
  3038  054C  0822               	movf	(eeprom_write@addr),w
  3039  054D  1283               	bcf	status, 5	;RP0=0, select bank2
  3040  054E  1703               	bsf	status, 6	;RP1=1, select bank2
  3041  054F  008D               	movwf	(269)^0100h	;volatile
  3042  0550  1283               	bcf	status, 5	;RP0=0, select bank0
  3043  0551  1303               	bcf	status, 6	;RP1=0, select bank0
  3044  0552  0820               	movf	(eeprom_write@value),w
  3045  0553  1283               	bcf	status, 5	;RP0=0, select bank2
  3046  0554  1703               	bsf	status, 6	;RP1=1, select bank2
  3047  0555  008C               	movwf	(268)^0100h	;volatile
  3048                           	
  3049  0556                     l4395:	
  3050  0556  303F               	movlw	(03Fh)
  3051  0557  1283               	bcf	status, 5	;RP0=0, select bank0
  3052  0558  1303               	bcf	status, 6	;RP1=0, select bank0
  3053  0559  00A1               	movwf	(??_eeprom_write+0)+0
  3054  055A  0821               	movf	(??_eeprom_write+0)+0,w
  3055  055B  1683               	bsf	status, 5	;RP0=1, select bank3
  3056  055C  1703               	bsf	status, 6	;RP1=1, select bank3
  3057  055D  058C               	andwf	(396)^0180h,f	;volatile
  3058                           	
  3059  055E                     l4397:	
  3060  055E  1283               	bcf	status, 5	;RP0=0, select bank0
  3061  055F  1303               	bcf	status, 6	;RP1=0, select bank0
  3062  0560  1003               	bcf	(24/8),(24)&7
  3063                           	
  3064  0561                     l4399:	
  3065  0561  1F8B               	btfss	(95/8),(95)&7
  3066  0562  2D64               	goto	u2451
  3067  0563  2D65               	goto	u2450
  3068  0564                     u2451:
  3069  0564  2D66               	goto	l1993
  3070  0565                     u2450:
  3071                           	
  3072  0565                     l4401:	
  3073  0565  1403               	bsf	(24/8),(24)&7
  3074                           	
  3075  0566                     l1993:	
  3076  0566  138B               	bcf	(95/8),(95)&7
  3077  0567  1683               	bsf	status, 5	;RP0=1, select bank3
  3078  0568  1703               	bsf	status, 6	;RP1=1, select bank3
  3079  0569  150C               	bsf	(3170/8)^0180h,(3170)&7
  3080                           	
  3081  056A                     l4403:	
  3082  056A  3055               	movlw	(055h)
  3083  056B  008D               	movwf	(397)^0180h	;volatile
  3084  056C  30AA               	movlw	(0AAh)
  3085  056D  008D               	movwf	(397)^0180h	;volatile
  3086                           	
  3087  056E                     l4405:	
  3088  056E  148C               	bsf	(3169/8)^0180h,(3169)&7
  3089                           	
  3090  056F                     l4407:	
  3091  056F  110C               	bcf	(3170/8)^0180h,(3170)&7
  3092                           	
  3093  0570                     l4409:	
  3094  0570  1283               	bcf	status, 5	;RP0=0, select bank0
  3095  0571  1303               	bcf	status, 6	;RP1=0, select bank0
  3096  0572  1C03               	btfss	(24/8),(24)&7
  3097  0573  2D75               	goto	u2461
  3098  0574  2D76               	goto	u2460
  3099  0575                     u2461:
  3100  0575  2D79               	goto	l1996
  3101  0576                     u2460:
  3102                           	
  3103  0576                     l4411:	
  3104  0576  178B               	bsf	(95/8),(95)&7
  3105  0577  2D79               	goto	l1996
  3106                           	
  3107  0578                     l1994:	
  3108  0578  2D79               	goto	l1996
  3109                           	
  3110  0579                     l1995:	
  3111                           	line	10
  3112                           ;	Return value of _eeprom_write is never used
  3113                           	
  3114  0579                     l1996:	
  3115  0579  0008               	return
  3116                           	opt stack 0
  3117                           GLOBAL	__end_of_eeprom_write
  3118  057A                     	__end_of_eeprom_write:
  3119 ;; =============== function _eeprom_write ends ============
  3120                           
  3121                           	signat	_eeprom_write,8313
  3122                           	global	_eeprom_read
  3123                           psect	text352,local,class=CODE,delta=2
  3124                           global __ptext352
  3125  05A6                     __ptext352:
  3126                           
  3127 ;; *************** function _eeprom_read *****************
  3128 ;; Defined at:
  3129 ;;		line 7 in file "eeread.c"
  3130 ;; Parameters:    Size  Location     Type
  3131 ;;  addr            1    wreg     unsigned char 
  3132 ;; Auto vars:     Size  Location     Type
  3133 ;;  addr            1    1[BANK0 ] unsigned char 
  3134 ;; Return value:  Size  Location     Type
  3135 ;;                  1    wreg      unsigned char 
  3136 ;; Registers used:
  3137 ;;		wreg, status,2, status,0
  3138 ;; Tracked objects:
  3139 ;;		On entry : 0/0
  3140 ;;		On exit  : 0/0
  3141 ;;		Unchanged: 0/0
  3142 ;; Data sizes:     COMMON   BANK0   BANK1   BANK3   BANK2
  3143 ;;      Params:         0       0       0       0       0
  3144 ;;      Locals:         0       1       0       0       0
  3145 ;;      Temps:          0       1       0       0       0
  3146 ;;      Totals:         0       2       0       0       0
  3147 ;;Total ram usage:        2 bytes
  3148 ;; Hardware stack levels used:    1
  3149 ;; Hardware stack levels required when called:    1
  3150 ;; This function calls:
  3151 ;;		Nothing
  3152 ;; This function is called by:
  3153 ;;		_main
  3154 ;; This function uses a non-reentrant model
  3155 ;;
  3156                           psect	text352
  3157                           	file	"C:\Program Files (x86)\HI-TECH Software\PICC\9.82\sources\eeread.c"
  3158                           	line	7
  3159                           	global	__size_of_eeprom_read
  3160  0025                     	__size_of_eeprom_read	equ	__end_of_eeprom_read-_eeprom_read
  3161                           	
  3162  05A6                     _eeprom_read:	
  3163                           	opt	stack 6
  3164                           ; Regs used in _eeprom_read: [wreg+status,2+status,0]
  3165                           ;eeprom_read@addr stored from wreg
  3166                           	line	9
  3167  05A6  1283               	bcf	status, 5	;RP0=0, select bank0
  3168  05A7  1303               	bcf	status, 6	;RP1=0, select bank0
  3169  05A8  00A1               	movwf	(eeprom_read@addr)
  3170                           	line	8
  3171                           	
  3172  05A9                     l1372:	
  3173                           	line	9
  3174                           # 9 "C:\Program Files (x86)\HI-TECH Software\PICC\9.82\sources\eeread.c"
  3175  05A9  0064               clrwdt ;#
  3176                           psect	text352
  3177                           	line	10
  3178  05AA  1683               	bsf	status, 5	;RP0=1, select bank3
  3179  05AB  1703               	bsf	status, 6	;RP1=1, select bank3
  3180  05AC  188C               	btfsc	(3169/8)^0180h,(3169)&7
  3181  05AD  2DAF               	goto	u2431
  3182  05AE  2DB0               	goto	u2430
  3183  05AF                     u2431:
  3184  05AF  2DA9               	goto	l1372
  3185  05B0                     u2430:
  3186  05B0  2DB1               	goto	l4389
  3187                           	
  3188  05B1                     l1373:	
  3189                           	line	11
  3190                           	
  3191  05B1                     l4389:	
  3192  05B1  1283               	bcf	status, 5	;RP0=0, select bank0
  3193  05B2  1303               	bcf	status, 6	;RP1=0, select bank0
  3194  05B3  0821               	movf	(eeprom_read@addr),w
  3195  05B4  1283               	bcf	status, 5	;RP0=0, select bank2
  3196  05B5  1703               	bsf	status, 6	;RP1=1, select bank2
  3197  05B6  008D               	movwf	(269)^0100h	;volatile
  3198  05B7  303F               	movlw	(03Fh)
  3199  05B8  1283               	bcf	status, 5	;RP0=0, select bank0
  3200  05B9  1303               	bcf	status, 6	;RP1=0, select bank0
  3201  05BA  00A0               	movwf	(??_eeprom_read+0)+0
  3202  05BB  0820               	movf	(??_eeprom_read+0)+0,w
  3203  05BC  1683               	bsf	status, 5	;RP0=1, select bank3
  3204  05BD  1703               	bsf	status, 6	;RP1=1, select bank3
  3205  05BE  058C               	andwf	(396)^0180h,f	;volatile
  3206  05BF  140C               	bsf	(3168/8)^0180h,(3168)&7
  3207  05C0  1003               	clrc
  3208  05C1  180C               	btfsc	(3168/8)^0180h,(3168)&7
  3209  05C2  1403               	setc
  3210  05C3  3000               	movlw	0
  3211  05C4  1803               	skipnc
  3212  05C5  3001               	movlw	1
  3213                           
  3214  05C6  1283               	bcf	status, 5	;RP0=0, select bank2
  3215  05C7  1703               	bsf	status, 6	;RP1=1, select bank2
  3216  05C8  080C               	movf	(268)^0100h,w	;volatile
  3217  05C9  2DCA               	goto	l1374
  3218                           	
  3219  05CA                     l4391:	
  3220                           	line	12
  3221                           	
  3222  05CA                     l1374:	
  3223  05CA  0008               	return
  3224                           	opt stack 0
  3225                           GLOBAL	__end_of_eeprom_read
  3226  05CB                     	__end_of_eeprom_read:
  3227 ;; =============== function _eeprom_read ends ============
  3228                           
  3229                           	signat	_eeprom_read,4217
  3230                           	global	_DELAY
  3231                           psect	text353,local,class=CODE,delta=2
  3232                           global __ptext353
  3233  05E7                     __ptext353:
  3234                           
  3235 ;; *************** function _DELAY *****************
  3236 ;; Defined at:
  3237 ;;		line 11 in file "E:\MPLAB_IDE\shy_4\main.c"
  3238 ;; Parameters:    Size  Location     Type
  3239 ;;		None
  3240 ;; Auto vars:     Size  Location     Type
  3241 ;;  i               2    0[BANK0 ] unsigned int 
  3242 ;; Return value:  Size  Location     Type
  3243 ;;		None               void
  3244 ;; Registers used:
  3245 ;;		wreg, status,2, status,0
  3246 ;; Tracked objects:
  3247 ;;		On entry : 0/0
  3248 ;;		On exit  : 0/0
  3249 ;;		Unchanged: 0/0
  3250 ;; Data sizes:     COMMON   BANK0   BANK1   BANK3   BANK2
  3251 ;;      Params:         0       0       0       0       0
  3252 ;;      Locals:         0       2       0       0       0
  3253 ;;      Temps:          0       0       0       0       0
  3254 ;;      Totals:         0       2       0       0       0
  3255 ;;Total ram usage:        2 bytes
  3256 ;; Hardware stack levels used:    1
  3257 ;; Hardware stack levels required when called:    1
  3258 ;; This function calls:
  3259 ;;		Nothing
  3260 ;; This function is called by:
  3261 ;;		_ENABLE
  3262 ;;		_ENABLE1
  3263 ;;		_main
  3264 ;; This function uses a non-reentrant model
  3265 ;;
  3266                           psect	text353
  3267                           	file	"E:\MPLAB_IDE\shy_4\main.c"
  3268                           	line	11
  3269                           	global	__size_of_DELAY
  3270  001C                     	__size_of_DELAY	equ	__end_of_DELAY-_DELAY
  3271                           	
  3272  05E7                     _DELAY:	
  3273                           	opt	stack 5
  3274                           ; Regs used in _DELAY: [wreg+status,2+status,0]
  3275                           	
  3276  05E7                     l4339:	
  3277  05E7  30E7               	movlw	low(03E7h)
  3278  05E8  1283               	bcf	status, 5	;RP0=0, select bank0
  3279  05E9  1303               	bcf	status, 6	;RP1=0, select bank0
  3280  05EA  00A0               	movwf	(DELAY@i)
  3281  05EB  3003               	movlw	high(03E7h)
  3282  05EC  00A1               	movwf	((DELAY@i))+1
  3283                           	
  3284  05ED                     l4341:	
  3285  05ED  0821               	movf	((DELAY@i+1)),w
  3286  05EE  0420               	iorwf	((DELAY@i)),w
  3287  05EF  1D03               	skipz
  3288  05F0  2DF2               	goto	u2351
  3289  05F1  2DF3               	goto	u2350
  3290  05F2                     u2351:
  3291  05F2  2DF5               	goto	l4345
  3292  05F3                     u2350:
  3293  05F3  2E02               	goto	l727
  3294                           	
  3295  05F4                     l4343:	
  3296  05F4  2E02               	goto	l727
  3297                           	
  3298  05F5                     l725:	
  3299                           	
  3300  05F5                     l4345:	
  3301  05F5  3001               	movlw	low(01h)
  3302  05F6  02A0               	subwf	(DELAY@i),f
  3303  05F7  3000               	movlw	high(01h)
  3304  05F8  1C03               	skipc
  3305  05F9  03A1               	decf	(DELAY@i+1),f
  3306  05FA  02A1               	subwf	(DELAY@i+1),f
  3307                           	
  3308  05FB                     l4347:	
  3309  05FB  0821               	movf	((DELAY@i+1)),w
  3310  05FC  0420               	iorwf	((DELAY@i)),w
  3311  05FD  1D03               	skipz
  3312  05FE  2E00               	goto	u2361
  3313  05FF  2E01               	goto	u2360
  3314  0600                     u2361:
  3315  0600  2DF5               	goto	l4345
  3316  0601                     u2360:
  3317  0601  2E02               	goto	l727
  3318                           	
  3319  0602                     l726:	
  3320                           	
  3321  0602                     l727:	
  3322  0602  0008               	return
  3323                           	opt stack 0
  3324                           GLOBAL	__end_of_DELAY
  3325  0603                     	__end_of_DELAY:
  3326 ;; =============== function _DELAY ends ============
  3327                           
  3328                           	signat	_DELAY,88
  3329                           	global	_int_serve
  3330                           psect	text354,local,class=CODE,delta=2
  3331                           global __ptext354
  3332  0316                     __ptext354:
  3333                           
  3334 ;; *************** function _int_serve *****************
  3335 ;; Defined at:
  3336 ;;		line 31 in file "E:\MPLAB_IDE\shy_4\main.c"
  3337 ;; Parameters:    Size  Location     Type
  3338 ;;		None
  3339 ;; Auto vars:     Size  Location     Type
  3340 ;;		None
  3341 ;; Return value:  Size  Location     Type
  3342 ;;		None               void
  3343 ;; Registers used:
  3344 ;;		wreg, status,2, status,0, btemp+1
  3345 ;; Tracked objects:
  3346 ;;		On entry : 0/0
  3347 ;;		On exit  : 0/0
  3348 ;;		Unchanged: 0/0
  3349 ;; Data sizes:     COMMON   BANK0   BANK1   BANK3   BANK2
  3350 ;;      Params:         0       0       0       0       0
  3351 ;;      Locals:         0       0       0       0       0
  3352 ;;      Temps:         10       0       0       0       0
  3353 ;;      Totals:        10       0       0       0       0
  3354 ;;Total ram usage:       10 bytes
  3355 ;; Hardware stack levels used:    1
  3356 ;; This function calls:
  3357 ;;		Nothing
  3358 ;; This function is called by:
  3359 ;;		Interrupt level 1
  3360 ;; This function uses a non-reentrant model
  3361 ;;
  3362                           psect	text354
  3363                           	file	"E:\MPLAB_IDE\shy_4\main.c"
  3364                           	line	31
  3365                           	global	__size_of_int_serve
  3366  008F                     	__size_of_int_serve	equ	__end_of_int_serve-_int_serve
  3367                           	
  3368  0316                     _int_serve:	
  3369                           	opt	stack 5
  3370                           ; Regs used in _int_serve: [wreg+status,2+status,0+btemp+1]
  3371                           psect	intentry,class=CODE,delta=2
  3372                           global __pintentry
  3373  0004                     __pintentry:
  3374                           global interrupt_function
  3375  0004                     interrupt_function:
  3376                           	global saved_w
  3377  007E                     	saved_w	set	btemp+0
  3378  0004  00FE               	movwf	saved_w
  3379  0005  0E03               	swapf	status,w
  3380  0006  00F6               	movwf	(??_int_serve+6)
  3381  0007  0804               	movf	fsr0,w
  3382  0008  00F7               	movwf	(??_int_serve+7)
  3383  0009  080A               	movf	pclath,w
  3384  000A  00F8               	movwf	(??_int_serve+8)
  3385  000B  1283               	bcf	status, 5	;RP0=0, select bank0
  3386  000C  1303               	bcf	status, 6	;RP1=0, select bank0
  3387  000D  087F               	movf	btemp+1,w
  3388  000E  00F9               	movwf	(??_int_serve+9)
  3389  000F  120A  118A  2B16   	ljmp	_int_serve
  3390                           psect	text354
  3391                           	line	32
  3392                           	
  3393  0316                     i1l4349:	
  3394                           ;main.c: 32: if (T0IF==1){n ++;T0IF =0;}
  3395  0316  1D0B               	btfss	(90/8),(90)&7
  3396  0317  2B19               	goto	u237_21
  3397  0318  2B1A               	goto	u237_20
  3398  0319                     u237_21:
  3399  0319  2B22               	goto	i1l4355
  3400  031A                     u237_20:
  3401                           	
  3402  031A                     i1l4351:	
  3403  031A  3001               	movlw	low(01h)
  3404  031B  07C9               	addwf	(_n),f
  3405  031C  1803               	skipnc
  3406  031D  0ACA               	incf	(_n+1),f
  3407  031E  3000               	movlw	high(01h)
  3408  031F  07CA               	addwf	(_n+1),f
  3409                           	
  3410  0320                     i1l4353:	
  3411  0320  110B               	bcf	(90/8),(90)&7
  3412  0321  2B22               	goto	i1l4355
  3413                           	
  3414  0322                     i1l742:	
  3415                           	line	33
  3416                           	
  3417  0322                     i1l4355:	
  3418                           ;main.c: 33: if (INTF==1)
  3419  0322  1C8B               	btfss	(89/8),(89)&7
  3420  0323  2B25               	goto	u238_21
  3421  0324  2B26               	goto	u238_20
  3422  0325                     u238_21:
  3423  0325  2B9A               	goto	i1l748
  3424  0326                     u238_20:
  3425                           	line	34
  3426                           	
  3427  0326                     i1l4357:	
  3428                           ;main.c: 34: { count_temp ++;
  3429  0326  3001               	movlw	low(01h)
  3430  0327  07C7               	addwf	(_count_temp),f
  3431  0328  1803               	skipnc
  3432  0329  0AC8               	incf	(_count_temp+1),f
  3433  032A  3000               	movlw	high(01h)
  3434  032B  07C8               	addwf	(_count_temp+1),f
  3435                           	line	35
  3436                           ;main.c: 35: if (count_temp ==740){li_cheng.count ++; count_temp =0;};
  3437  032C  3002               	movlw	high(02E4h)
  3438  032D  0648               	xorwf	(_count_temp+1),w
  3439  032E  1D03               	skipz
  3440  032F  2B32               	goto	u239_25
  3441  0330  30E4               	movlw	low(02E4h)
  3442  0331  0647               	xorwf	(_count_temp),w
  3443  0332                     u239_25:
  3444                           
  3445  0332  1D03               	skipz
  3446  0333  2B35               	goto	u239_21
  3447  0334  2B36               	goto	u239_20
  3448  0335                     u239_21:
  3449  0335  2B47               	goto	i1l4363
  3450  0336                     u239_20:
  3451                           	
  3452  0336                     i1l4359:	
  3453  0336  3001               	movlw	01h
  3454  0337  07C3               	addwf	(_li_cheng),f
  3455  0338  3000               	movlw	0
  3456  0339  1803               	skipnc
  3457  033A  3001               movlw 1
  3458  033B  07C4               	addwf	(_li_cheng+1),f
  3459  033C  3000               	movlw	0
  3460  033D  1803               	skipnc
  3461  033E  3001               movlw 1
  3462  033F  07C5               	addwf	(_li_cheng+2),f
  3463  0340  3000               	movlw	0
  3464  0341  1803               	skipnc
  3465  0342  3001               movlw 1
  3466  0343  07C6               	addwf	(_li_cheng+3),f
  3467                           	
  3468  0344                     i1l4361:	
  3469  0344  01C7               	clrf	(_count_temp)
  3470  0345  01C8               	clrf	(_count_temp+1)
  3471  0346  2B47               	goto	i1l4363
  3472                           	
  3473  0347                     i1l744:	
  3474                           	line	36
  3475                           	
  3476  0347                     i1l4363:	
  3477                           ;main.c: 36: if (li_cheng.count==0x927C0){INTE =0;RE0=1;};
  3478  0347  3000               	movlw	0
  3479  0348  0646               	xorwf	(_li_cheng+3),w
  3480  0349  1D03               	skipz
  3481  034A  2B55               	goto	u240_25
  3482  034B  3009               	movlw	09h
  3483  034C  0645               	xorwf	(_li_cheng+2),w
  3484  034D  1D03               	skipz
  3485  034E  2B55               	goto	u240_25
  3486  034F  3027               	movlw	027h
  3487  0350  0644               	xorwf	(_li_cheng+1),w
  3488  0351  1D03               	skipz
  3489  0352  2B55               	goto	u240_25
  3490  0353  30C0               	movlw	0C0h
  3491  0354  0643               	xorwf	(_li_cheng),w
  3492  0355                     u240_25:
  3493  0355  1D03               	skipz
  3494  0356  2B58               	goto	u240_21
  3495  0357  2B59               	goto	u240_20
  3496  0358                     u240_21:
  3497  0358  2B5C               	goto	i1l4367
  3498  0359                     u240_20:
  3499                           	
  3500  0359                     i1l4365:	
  3501  0359  120B               	bcf	(92/8),(92)&7
  3502  035A  1409               	bsf	(72/8),(72)&7
  3503  035B  2B5C               	goto	i1l4367
  3504                           	
  3505  035C                     i1l745:	
  3506                           	line	37
  3507                           	
  3508  035C                     i1l4367:	
  3509                           ;main.c: 37: m ++;
  3510  035C  3001               	movlw	(01h)
  3511  035D  00F0               	movwf	(??_int_serve+0)+0
  3512  035E  0870               	movf	(??_int_serve+0)+0,w
  3513  035F  07D2               	addwf	(_m),f
  3514                           	line	38
  3515                           	
  3516  0360                     i1l4369:	
  3517                           ;main.c: 38: if (m ==0)
  3518  0360  08D2               	movf	(_m),f
  3519  0361  1D03               	skipz
  3520  0362  2B64               	goto	u241_21
  3521  0363  2B65               	goto	u241_20
  3522  0364                     u241_21:
  3523  0364  2B6E               	goto	i1l4379
  3524  0365                     u241_20:
  3525                           	line	39
  3526                           	
  3527  0365                     i1l4371:	
  3528                           ;main.c: 39: {n =0;tmr01=TMR0;T0IE=1;T0IF=0;};
  3529  0365  01C9               	clrf	(_n)
  3530  0366  01CA               	clrf	(_n+1)
  3531                           	
  3532  0367                     i1l4373:	
  3533  0367  0801               	movf	(1),w	;volatile
  3534  0368  00F0               	movwf	(??_int_serve+0)+0
  3535  0369  0870               	movf	(??_int_serve+0)+0,w
  3536  036A  00FA               	movwf	(_tmr01)
  3537                           	
  3538  036B                     i1l4375:	
  3539  036B  168B               	bsf	(93/8),(93)&7
  3540                           	
  3541  036C                     i1l4377:	
  3542  036C  110B               	bcf	(90/8),(90)&7
  3543  036D  2B6E               	goto	i1l4379
  3544                           	
  3545  036E                     i1l746:	
  3546                           	line	40
  3547                           	
  3548  036E                     i1l4379:	
  3549                           ;main.c: 40: if (m==1)
  3550  036E  0852               	movf	(_m),w
  3551  036F  3A01               	xorlw	01h
  3552  0370  1D03               	skipz
  3553  0371  2B73               	goto	u242_21
  3554  0372  2B74               	goto	u242_20
  3555  0373                     u242_21:
  3556  0373  2B98               	goto	i1l4387
  3557  0374                     u242_20:
  3558                           	line	41
  3559                           	
  3560  0374                     i1l4381:	
  3561                           ;main.c: 41: {tmr02=TMR0;T0IE=0;t_speed = n*256+(tmr02-tmr01);};
  3562  0374  0801               	movf	(1),w	;volatile
  3563  0375  00F0               	movwf	(??_int_serve+0)+0
  3564  0376  0870               	movf	(??_int_serve+0)+0,w
  3565  0377  00FB               	movwf	(_tmr02)
  3566                           	
  3567  0378                     i1l4383:	
  3568  0378  128B               	bcf	(93/8),(93)&7
  3569                           	
  3570  0379                     i1l4385:	
  3571  0379  087A               	movf	(_tmr01),w
  3572  037A  00F0               	movwf	(??_int_serve+0)+0
  3573  037B  01F1               	clrf	(??_int_serve+0)+0+1
  3574  037C  09F0               	comf	(??_int_serve+0)+0,f
  3575  037D  09F1               	comf	(??_int_serve+0)+1,f
  3576  037E  0AF0               	incf	(??_int_serve+0)+0,f
  3577  037F  1903               	skipnz
  3578  0380  0AF1               	incf	(??_int_serve+0)+1,f
  3579  0381  084A               	movf	(_n+1),w
  3580  0382  00F3               	movwf	(??_int_serve+2)+0+1
  3581  0383  0849               	movf	(_n),w
  3582  0384  00F2               	movwf	(??_int_serve+2)+0
  3583  0385  0872               	movf	(??_int_serve+2)+0,w
  3584  0386  00F3               	movwf	(??_int_serve+2)+1
  3585  0387  01F2               	clrf	(??_int_serve+2)+0
  3586  0388  087B               	movf	(_tmr02),w
  3587  0389  0772               	addwf	0+(??_int_serve+2)+0,w
  3588  038A  00F4               	movwf	(??_int_serve+4)+0
  3589  038B  0873               	movf	1+(??_int_serve+2)+0,w
  3590  038C  1803               	skipnc
  3591  038D  0A73               	incf	1+(??_int_serve+2)+0,w
  3592  038E  00F5               	movwf	((??_int_serve+4)+0)+1
  3593  038F  0870               	movf	0+(??_int_serve+0)+0,w
  3594  0390  0774               	addwf	0+(??_int_serve+4)+0,w
  3595  0391  00D3               	movwf	(_t_speed)
  3596  0392  0871               	movf	1+(??_int_serve+0)+0,w
  3597  0393  1803               	skipnc
  3598  0394  0A71               	incf	1+(??_int_serve+0)+0,w
  3599  0395  0775               	addwf	1+(??_int_serve+4)+0,w
  3600  0396  00D4               	movwf	1+(_t_speed)
  3601  0397  2B98               	goto	i1l4387
  3602                           	
  3603  0398                     i1l747:	
  3604                           	line	42
  3605                           	
  3606  0398                     i1l4387:	
  3607                           ;main.c: 42: INTF =0;
  3608  0398  108B               	bcf	(89/8),(89)&7
  3609  0399  2B9A               	goto	i1l748
  3610                           	line	43
  3611                           	
  3612  039A                     i1l743:	
  3613                           	line	44
  3614                           	
  3615  039A                     i1l748:	
  3616  039A  0879               	movf	(??_int_serve+9),w
  3617  039B  00FF               	movwf	btemp+1
  3618  039C  0878               	movf	(??_int_serve+8),w
  3619  039D  008A               	movwf	pclath
  3620  039E  0877               	movf	(??_int_serve+7),w
  3621  039F  0084               	movwf	fsr0
  3622  03A0  0E76               	swapf	(??_int_serve+6)^0FFFFFF80h,w
  3623  03A1  0083               	movwf	status
  3624  03A2  0EFE               	swapf	saved_w,f
  3625  03A3  0E7E               	swapf	saved_w,w
  3626  03A4  0009               	retfie
  3627                           	opt stack 0
  3628                           GLOBAL	__end_of_int_serve
  3629  03A5                     	__end_of_int_serve:
  3630 ;; =============== function _int_serve ends ============
  3631                           
  3632                           	signat	_int_serve,88
  3633                           psect	text355,local,class=CODE,delta=2
  3634                           global __ptext355
  3635  0000                     __ptext355:
  3636                           	global	btemp
  3637  007E                     	btemp set 07Eh
  3638                           
  3639                           	DABS	1,126,2	;btemp
  3640                           	global	wtemp0
  3641  007E                     	wtemp0 set btemp


HI-TECH Software PICC Macro Assembler V9.82 build 9453 
Symbol Table                                                                                   Tue Apr 15 22:40:14 2025

                       _a 0055                         _b 004B                         _c 004C  
                       _d 0056                         _e 004E                         _f 0050  
                       _m 0052                         _n 0049                         pc 0002  
          ___bmul@product 0022                        _RD 0C60                        _d1 004D  
                      _e1 004F                        _f1 0051                        _WR 0C61  
            ___awdiv@sign 0026                        fsr 0004       ___wmul@multiplicand 0022  
                     l730 064B                       l725 05F5                       l733 063D  
                     l726 0602                       l727 0602                       l751 0085  
                     l736 026D                       l752 0086                       l753 013C  
                     l754 013D                       l739 04F2                       l755 013E  
                     l756 013F                       l757 013F                       _GIE 005F  
                     _RA3 002B                       _RA4 002C                       _RA5 002D  
                     _RE0 0048                       _div 0142                       fsr0 0004  
                     indf 0000           __end_of_ENABLE1 063E                      l1372 05A9  
                    l1373 05B1                      l1374 05CA                      ?_div 0070  
                    l4401 0565                      l4411 0576                      l4403 056A  
                    l2820 03C3                      l4341 05ED                      l4405 056E  
                    l4421 0614                      l4413 0606                      l2821 0409  
                    l4501 0445                      l2822 03DB                      l4343 05F4  
                    l4407 056F                      l4423 061A                      l4415 060B  
                    l4431 0583                      l2823 03CF                      l4511 0479  
                    l4503 044E                      l2680 0589                      l2824 03E0  
                    l4345 05F5                      l4409 0570                      l4425 061C  
                    l4417 0610                      l2673 0607                      l2681 059E  
                    l4433 0590                      l4441 04FE                      l2825 03E1  
                    l4505 0460                      l4513 0481                      l4521 0280  
                    l4601 005A                      l2674 0610                      l2682 05A5  
                    l2754 04FE                      l2826 03FA                      l4347 05FB  
                    l4339 05E7                      l2675 061A                      l4419 0612  
                    l4435 059E                      l4427 057A                      l4451 053E  
                    l2755 051A                      l4443 0502                      l2827 0408  
                    l2819 03B5                      l4515 048A                      l2851 0481  
                    l4507 046E                      l4531 02A0                      l4523 0284  
                    l4611 0078                      l4603 0065                      l2676 061C  
                    l2756 0535                      l2828 0413                      l2852 043F  
                    l4437 05A5                      l4429 057F                      l2757 053E  
                    l4445 051A                      l2829 041A                      l4461 03BE  
                    l4453 03A5                      l4509 0470                      l2853 0431  
                    l4541 02C9                      l4533 02A8                      l4525 0288  
                    l4517 026E                      l4621 0082                      l4613 007B  
                    l4605 006B                      l1990 0543                      l2854 0444  
                    l4391 05CA                      l1991 0543                      l2679 057F  
                    l4447 0523                      l4439 04F3                      l4471 03D6  
                    l4463 03C3                      l4455 03AC                      l2855 0445  
                    l4543 02DB                      l4535 02AC                      l4551 02FC  
                    l4527 0293                      l4519 0275                      l4631 009C  
                    l4623 0083                      l4615 007D                      l4607 0072  
                    l1992 054A                      l2856 0470                      l2880 02C0  
                    l1993 0566                      l4393 054A                      l4449 0535  
                    l4481 03FA                      l4473 03DB                      l4465 03C5  
                    l4457 03B5                      l2857 0480                      l4553 0300  
                    l2881 02EB                      l4545 02E9                      l4537 02BA  
                    l4529 0298                      l4561 0643                      l4641 00D0  
                    l4633 00A9                      l4625 0086                      l4617 007E  
                    l4609 0075                      l1994 0578                      l2858 048A  
                    l2882 02FB                      l2874 0284                      l1995 0579  
                    l4395 0556                      l4491 041A                      l4483 0401  
                    l4475 03E1                      l4467 03CB                      l4459 03B9  
                    l2883 030C                      l4555 030C                      l4547 02EB  
                    l4539 02C0                      l2875 0298                      l4563 0648  
                    l4571 0142                      l4651 011C                      l4643 00D5  
                    l4635 00AE                      l4627 008B                      l4619 0081  
                    l1996 0579                      l2884 0315                      l2876 02FC  
                    l4389 05B1                      l4397 055E                      l1989 0542  
                    l4477 03F2                      l4469 03CF                      l4485 0409  
                    l4493 041B                      l4557 0315                      l4549 02F4  
                    l2877 02BA                      l4565 0630                      l4573 048B  
                    l4653 0121                      l4645 010B                      l4637 00BB  
                    l4629 0094                      l4581 0020                      l2878 02AC  
                    l4399 0561                      l4487 040D                      l4479 03F8  
                    l4495 042D                      l2879 02BF                      l4559 063E  
                    l4567 0635                      l4655 0129                      l4647 010F  
                    l4639 00C3                      l4591 0036                      l4583 0024  
                    l4575 0015                      l4489 0413                      l4497 0431  
                    l4569 063A                      l4657 012E                      l4649 0114  
                    l4593 003B                      l4585 0029                      l4577 0019  
                    l4499 043F                      l4659 0136                      l4595 003F  
                    l4587 002D                      l4579 001B                      l4597 0044  
                    l4589 0032                      l4599 004F                      _T0IE 005D  
                    _T0IF 005A                      u2350 05F3                      u2430 05B0  
                    u2351 05F2                      u2431 05AF                      u2360 0601  
                    u2440 0549                      u2520 059D                      u2600 03CB  
                    u2361 0600                      u2441 0548                      u2521 059C  
                    u2505 058A                      u2601 03CA                      u2450 0565  
                    u2530 0502                      u2451 0564                      u2515 0591  
                    u2531 0501                      u2460 0576                      u2620 03DF  
                    u2700 0443                      u2461 0575                      u2541 050B  
                    u2621 03DE                      u2701 0442                      u2470 060B  
                    u2542 0512                      u2471 060A                      u2543 0519  
                    u2615 03D0                      u2480 0619                      u2640 03F2  
                    u2720 0460                      u2481 0618                      u2641 03F1  
                    u2721 045F                      u2490 0583                      u2570 0534  
                    u2810 02DB                      u2491 0582                      u2571 0533  
                    u2555 051C                      u2635 03E2                      u2715 0447  
                    u2811 02DA                      u2660 0407                      u2580 03AC  
                    u2740 047F                      u2565 0524                      u2661 0406  
                    u2645 03EE                      u2581 03AB                      u2741 047E  
                    u2725 045C                      u2805 02C2                      u2670 040D  
                    u2590 03B9                      u2830 02FA                      u2750 0275  
                    u2655 03FB                      u2591 03B8                      u2735 0471  
                    u2831 02F9                      u2815 02D7                      u2751 0274  
                    u2680 042D                      u2840 0300                      u2760 0288  
                    u2681 042C                      u2825 02EC                      u2761 0287  
                    u2770 02A8                      u2850 0199                      u2771 02A7  
                    u2851 019A                      u2852 019F                      u2853 01A0  
                    _INTE 005C                      u2790 02BE                      _INTF 0059  
                    u2695 0433                      u2791 02BD                      u2785 02AE  
                    _TMR0 0001                      _WREN 0C62            ??_eeprom_write 0021  
                    _main 0015                      div@x 003B                      div@y 0040  
                    div@z 003F                      btemp 007E                      start 0012  
       ___bmul@multiplier 0023                     ??_div 002F           __end_of___aldiv 0316  
                   ?_main 0070           __end_of___awdiv 041B                     _EEADR 010D  
                   _DELAY 05E7                     _CARRY 0018           __end_of___lldiv 048B  
         ___awdiv@divisor 0020                     i1l742 0322                     i1l743 039A  
                   i1l744 0347                     i1l745 035C                     i1l746 036E  
                   i1l747 0398                     i1l748 039A           ___awdiv@counter 0025  
                   _PORTD 0008                     _TRISA 0085                     _TRISD 0088  
     ___lmul@multiplicand 0024                     _tmr01 007A                     _tmr02 007B  
                   _table 0058                     _speed 0057                     pclath 000A  
                   status 0003                     wtemp0 007E         ??_speed_calculate 0029  
            __end_of_main 0142                    DELAY@i 0020                 ??_ENABLE1 0022  
                  ??_main 0042                    ?_DELAY 0070                    _ADCON1 009F  
                  _EEDATA 010C                    _EECON1 018C                    _EECON2 018D  
        ___awdiv@dividend 0022                    _ENABLE 063E                    i1l4351 031A  
                  i1l4361 0344                    i1l4353 0320                    i1l4371 0365  
                  i1l4363 0347                    i1l4355 0322                    i1l4381 0374  
                  i1l4373 0367                    i1l4365 0359                    i1l4357 0326  
                  i1l4349 0316                    i1l4383 0378                    i1l4375 036B  
                  i1l4367 035C                    i1l4359 0336                    i1l4385 0379  
                  i1l4377 036C                    i1l4369 0360                    i1l4387 0398  
                  i1l4379 036E                    u240_20 0359                    u240_21 0358  
                  u240_25 0355                    u241_20 0365                    u241_21 0364  
                  u242_20 0374                    u242_21 0373                    u237_20 031A  
                  u237_21 0319                    u238_20 0326                    u238_21 0325  
                  u239_20 0336                    u239_21 0335                    u239_25 0332  
                  _TRISA0 0428                    _TRISB0 0430                    _TRISE0 0448  
    __size_of_eeprom_read 0025                    ___bmul 0603                    ___lmul 04F3  
               ??___aldiv 0028                    ___wmul 057A                 ??___awdiv 0024  
               ??___lldiv 0028          ___awdiv@quotient 0027      __end_of_eeprom_write 057A  
                  clrloop 0657                    saved_w 007E           eeprom_read@addr 0021  
           __end_of_DELAY 0603       ___bmul@multiplicand 0020            __pcstackCOMMON 0070  
            __pidataBANK0 064C                   ??_DELAY 0020         eeprom_write@value 0020  
                 ?_ENABLE 0070                __pbssBANK0 0043        __size_of_int_serve 008F  
              __pmaintext 0015                   ?___bmul 0020                   ?___lmul 0020  
                 ?___wmul 0020                __pintentry 0004            ___lmul@product 0029  
                 _ENABLE1 0630           __size_of_ENABLE 000E           _speed_calculate 048B  
              _count_temp 0047     __size_of_eeprom_write 003B                   ___aldiv 026E  
         __size_of___bmul 001A                   ___awdiv 03A5           __size_of___lmul 004C  
                 ___lldiv 041B           __size_of___wmul 002C              __size_of_div 012C  
        ___aldiv@dividend 0024                   _t_speed 0053         __end_of_int_serve 03A5  
    end_of_initialization 05E3                   init_ram 0621              _eeprom_write 053F  
         ___lldiv@divisor 0020           ___lldiv@counter 002D          ___aldiv@quotient 002B  
 __end_of_speed_calculate 04F3            __end_of_ENABLE 064C             ??_eeprom_read 0020  
          __end_of___bmul 061D            __end_of___lmul 053F            __end_of___wmul 05A6  
     start_initialization 05CB               __end_of_div 026E                  ??_ENABLE 0022  
                ??___bmul 0021                  ??___lmul 0028                  ??___wmul 0024  
     __end_of_eeprom_read 05CB               __pdataBANK0 0058                  ?_ENABLE1 0070  
             __pbssCOMMON 007A          ?_speed_calculate 0070             __pcstackBANK0 0020  
        eeprom_write@addr 0022                  ?___aldiv 0020          speed_calculate@z 002C  
                ?___awdiv 0020                 __ptext341 048B                 __ptext350 0603  
               __ptext342 0142                 __ptext351 053F                 __ptext343 0630  
               __ptext352 05A6                 __ptext344 063E                 __ptext353 05E7  
               __ptext345 026E                 __ptext354 0316                 __ptext346 041B  
               __ptext355 0000                 __ptext347 03A5                 __ptext348 04F3  
               __ptext349 057A                  ?___lldiv 0020            __size_of_DELAY 001C  
               _int_serve 0316           ___aldiv@divisor 0020         interrupt_function 0004  
         ___aldiv@counter 0029            ___wmul@product 0024               _eeprom_read 05A6  
       ___wmul@multiplier 0020          __size_of_ENABLE1 000E         ___lmul@multiplier 0020  
              ?_int_serve 0070                 init_fetch 061D          __size_of___aldiv 00A8  
        __size_of___awdiv 0076          __size_of___lldiv 0070                  _li_cheng 0043  
           __size_of_main 012D                  clear_ram 0656               ??_int_serve 0070  
                intlevel1 0000          ___lldiv@dividend 0024                _OPTION_REG 0081  
        ___lldiv@quotient 0029              ___aldiv@sign 002A  __size_of_speed_calculate 0068  
           ?_eeprom_write 0020              ?_eeprom_read 0070  
