

HI-TECH Software PIC LITE Macro Assembler V9.82 build 9453 
                                                                                               Tue May 27 23:37:28 2025

HI-TECH Software Omniscient Code Generator (Lite mode) build 9453
     1  0000                     opt subtitle "HI-TECH Software Omniscient Code Generator (Lite mode) build 9453"
     2                           
     3                           opt pagewidth 120
     4                           
     5                           	opt lm
     6                           
     7                           	processor	16F877A
     8                           clrc	macro
     9                           	bcf	3,0
    10  0000                     	endm
    11                           clrz	macro
    12                           	bcf	3,2
    13  0000                     	endm
    14                           setc	macro
    15                           	bsf	3,0
    16  0000                     	endm
    17                           setz	macro
    18                           	bsf	3,2
    19  0000                     	endm
    20                           skipc	macro
    21                           	btfss	3,0
    22  0000                     	endm
    23                           skipz	macro
    24                           	btfss	3,2
    25  0000                     	endm
    26                           skipnc	macro
    27                           	btfsc	3,0
    28  0000                     	endm
    29                           skipnz	macro
    30                           	btfsc	3,2
    31  0000                     	endm
    32  0000                     indf	equ	0
    33  0000                     indf0	equ	0
    34  0002                     pc	equ	2
    35  0002                     pcl	equ	2
    36  0003                     status	equ	3
    37  0004                     fsr	equ	4
    38  0004                     fsr0	equ	4
    39  0001                     c	equ	1
    40  0000                     z	equ	0
    41  000A                     pclath	equ	10
    42                           # 8 "E:\MPLAB_IDE\JY62\main.c"
    43                           	psect config,class=CONFIG,delta=2 ;#
    44                           # 8 "E:\MPLAB_IDE\JY62\main.c"
    45  2007  FF29               	dw 0xFF29 ;#
    46                           	FNCALL	_main,_Beep_Init
    47                           	FNCALL	_main,_LCD_Init
    48                           	FNCALL	_main,_LCD_ShowString
    49                           	FNCALL	_main,_LCD_Clear
    50                           	FNCALL	_main,_KEY_Init
    51                           	FNCALL	_main,_Uart_Init
    52                           	FNCALL	_main,_JY62_ShowData
    53                           	FNCALL	_JY62_ShowData,_LCD_ShowString
    54                           	FNCALL	_JY62_ShowData,_JY62_InfiniteYaw
    55                           	FNCALL	_JY62_ShowData,___fttol
    56                           	FNCALL	_JY62_ShowData,_sprintf
    57                           	FNCALL	_sprintf,_isdigit
    58                           	FNCALL	_sprintf,___wmul
    59                           	FNCALL	_sprintf,___ftge
    60                           	FNCALL	_sprintf,___ftneg
    61                           	FNCALL	_sprintf,___awdiv
    62                           	FNCALL	_sprintf,_scale
    63                           	FNCALL	_sprintf,___ftmul
    64                           	FNCALL	_sprintf,_fround
    65                           	FNCALL	_sprintf,___ftadd
    66                           	FNCALL	_sprintf,___fttol
    67                           	FNCALL	_sprintf,__div_to_l_
    68                           	FNCALL	_sprintf,__tdiv_to_l_
    69                           	FNCALL	_sprintf,___lltoft
    70                           	FNCALL	_sprintf,___ftsub
    71                           	FNCALL	_sprintf,___lldiv
    72                           	FNCALL	_sprintf,___llmod
    73                           	FNCALL	___ftsub,___ftadd
    74                           	FNCALL	_scale,___awmod
    75                           	FNCALL	_scale,___bmul
    76                           	FNCALL	_scale,___awdiv
    77                           	FNCALL	_scale,___ftmul
    78                           	FNCALL	_fround,___awmod
    79                           	FNCALL	_fround,___bmul
    80                           	FNCALL	_fround,___awdiv
    81                           	FNCALL	_fround,___ftmul
    82                           	FNCALL	_JY62_InfiniteYaw,___fttol
    83                           	FNCALL	_JY62_InfiniteYaw,___awmod
    84                           	FNCALL	_JY62_InfiniteYaw,___awtoft
    85                           	FNCALL	_LCD_ShowString,_ENABLE
    86                           	FNCALL	_LCD_ShowString,_ENABLE1
    87                           	FNCALL	_LCD_ShowString,_DELAY
    88                           	FNCALL	_LCD_Clear,_ENABLE
    89                           	FNCALL	_LCD_Clear,_DELAY
    90                           	FNCALL	_LCD_Init,_DELAY
    91                           	FNCALL	_LCD_Init,_ENABLE
    92                           	FNCALL	___lltoft,___ftpack
    93                           	FNCALL	___awtoft,___ftpack
    94                           	FNCALL	___ftmul,___ftpack
    95                           	FNCALL	___ftadd,___ftpack
    96                           	FNCALL	_ENABLE1,_DELAY
    97                           	FNCALL	_ENABLE,_DELAY
    98                           	FNROOT	_main
    99                           	FNCALL	_uart_service,_JY62_ReceiveData
   100                           	FNCALL	_JY62_ReceiveData,i1___awtoft
   101                           	FNCALL	_JY62_ReceiveData,___ftdiv
   102                           	FNCALL	_JY62_ReceiveData,i1___ftmul
   103                           	FNCALL	i1___awtoft,i1___ftpack
   104                           	FNCALL	i1___ftmul,i1___ftpack
   105                           	FNCALL	___ftdiv,i1___ftpack
   106                           	FNCALL	intlevel1,_uart_service
   107                           	global	intlevel1
   108                           	FNROOT	intlevel1
   109                           	global	_TABLE
   110                           psect	idataBANK0,class=CODE,space=0,delta=2
   111                           global __pidataBANK0
   112  19CC                     __pidataBANK0:
   113                           	file	"E:\MPLAB_IDE\JY62\KEY.c"
   114                           	line	4
   115                           
   116                           ;initializer for _TABLE
   117  19CC  3430               	retlw	030h
   118  19CD  3431               	retlw	031h
   119  19CE  3432               	retlw	032h
   120  19CF  3433               	retlw	033h
   121  19D0  3434               	retlw	034h
   122  19D1  3435               	retlw	035h
   123  19D2  3436               	retlw	036h
   124  19D3  3437               	retlw	037h
   125  19D4  3438               	retlw	038h
   126  19D5  3439               	retlw	039h
   127  19D6  3441               	retlw	041h
   128  19D7  3442               	retlw	042h
   129  19D8  3443               	retlw	043h
   130  19D9  3444               	retlw	044h
   131  19DA  3445               	retlw	045h
   132  19DB  3446               	retlw	046h
   133                           	global	_dpowers
   134                           psect	strings,class=STRING,delta=2
   135                           global __pstrings
   136  1000                     __pstrings:
   137                           ;	global	stringdir,stringtab,__stringbase
   138  1000                     stringtab:
   139                           ;	String table - string pointers are 1 byte each
   140  1000  1BFF               	btfsc	(btemp+1),7
   141  1001  280A               	ljmp	stringcode
   142  1002  1383               	bcf	status,7
   143  1003  187F               	btfsc	(btemp+1),0
   144  1004  1783               	bsf	status,7
   145  1005  0800               	movf	indf,w
   146  1006  0A84               	incf fsr
   147  1007  1903               skipnz
   148  1008  0AFF               incf btemp+1
   149  1009  0008               	return
   150  100A                     stringcode:stringdir:
      + 100A                     stringdir:	
   151  100A  3010               movlw high(stringdir)
   152  100B  008A               movwf pclath
   153  100C  0804               movf fsr,w
   154  100D  0A84               incf fsr
   155  100E  0782               	addwf pc
   156  100F                     __stringbase:
   157  100F  3400               	retlw	0
   158                           psect	strings
   159                           	file	"C:\Program Files (x86)\HI-TECH Software\PICC\9.82\lib\doprnt.c"
   160                           	line	350
   161  1010                     _dpowers:
   162  1010  3401               	retlw	01h
   163  1011  3400               	retlw	0
   164  1012  3400               	retlw	0
   165  1013  3400               	retlw	0
   166                           
   167  1014  340A               	retlw	0Ah
   168  1015  3400               	retlw	0
   169  1016  3400               	retlw	0
   170  1017  3400               	retlw	0
   171                           
   172  1018  3464               	retlw	064h
   173  1019  3400               	retlw	0
   174  101A  3400               	retlw	0
   175  101B  3400               	retlw	0
   176                           
   177  101C  34E8               	retlw	0E8h
   178  101D  3403               	retlw	03h
   179  101E  3400               	retlw	0
   180  101F  3400               	retlw	0
   181                           
   182  1020  3410               	retlw	010h
   183  1021  3427               	retlw	027h
   184  1022  3400               	retlw	0
   185  1023  3400               	retlw	0
   186                           
   187  1024  34A0               	retlw	0A0h
   188  1025  3486               	retlw	086h
   189  1026  3401               	retlw	01h
   190  1027  3400               	retlw	0
   191                           
   192  1028  3440               	retlw	040h
   193  1029  3442               	retlw	042h
   194  102A  340F               	retlw	0Fh
   195  102B  3400               	retlw	0
   196                           
   197  102C  3480               	retlw	080h
   198  102D  3496               	retlw	096h
   199  102E  3498               	retlw	098h
   200  102F  3400               	retlw	0
   201                           
   202  1030  3400               	retlw	0
   203  1031  34E1               	retlw	0E1h
   204  1032  34F5               	retlw	0F5h
   205  1033  3405               	retlw	05h
   206                           
   207  1034  3400               	retlw	0
   208  1035  34CA               	retlw	0CAh
   209  1036  349A               	retlw	09Ah
   210  1037  343B               	retlw	03Bh
   211                           
   212                           	global	__npowers_
   213                           psect	strings
   214                           	file	"C:\Program Files (x86)\HI-TECH Software\PICC\9.82\sources\powers.c"
   215                           	line	39
   216  1038                     __npowers_:
   217  1038  3400               	retlw	0x0
   218  1039  3480               	retlw	0x80
   219  103A  343F               	retlw	0x3f
   220                           
   221  103B  34CD               	retlw	0xcd
   222  103C  34CC               	retlw	0xcc
   223  103D  343D               	retlw	0x3d
   224                           
   225  103E  34D7               	retlw	0xd7
   226  103F  3423               	retlw	0x23
   227  1040  343C               	retlw	0x3c
   228                           
   229  1041  3412               	retlw	0x12
   230  1042  3483               	retlw	0x83
   231  1043  343A               	retlw	0x3a
   232                           
   233  1044  34B7               	retlw	0xb7
   234  1045  34D1               	retlw	0xd1
   235  1046  3438               	retlw	0x38
   236                           
   237  1047  34C6               	retlw	0xc6
   238  1048  3427               	retlw	0x27
   239  1049  3437               	retlw	0x37
   240                           
   241  104A  3438               	retlw	0x38
   242  104B  3486               	retlw	0x86
   243  104C  3435               	retlw	0x35
   244                           
   245  104D  34C0               	retlw	0xc0
   246  104E  34D6               	retlw	0xd6
   247  104F  3433               	retlw	0x33
   248                           
   249  1050  34CC               	retlw	0xcc
   250  1051  342B               	retlw	0x2b
   251  1052  3432               	retlw	0x32
   252                           
   253  1053  3470               	retlw	0x70
   254  1054  3489               	retlw	0x89
   255  1055  3430               	retlw	0x30
   256                           
   257  1056  34E7               	retlw	0xe7
   258  1057  34DB               	retlw	0xdb
   259  1058  342E               	retlw	0x2e
   260                           
   261  1059  34E5               	retlw	0xe5
   262  105A  343C               	retlw	0x3c
   263  105B  341E               	retlw	0x1e
   264                           
   265  105C  3442               	retlw	0x42
   266  105D  34A2               	retlw	0xa2
   267  105E  340D               	retlw	0xd
   268                           
   269                           	global	__powers_
   270                           psect	strings
   271                           	file	"C:\Program Files (x86)\HI-TECH Software\PICC\9.82\sources\powers.c"
   272                           	line	7
   273  105F                     __powers_:
   274  105F  3400               	retlw	0x0
   275  1060  3480               	retlw	0x80
   276  1061  343F               	retlw	0x3f
   277                           
   278  1062  3400               	retlw	0x0
   279  1063  3420               	retlw	0x20
   280  1064  3441               	retlw	0x41
   281                           
   282  1065  3400               	retlw	0x0
   283  1066  34C8               	retlw	0xc8
   284  1067  3442               	retlw	0x42
   285                           
   286  1068  3400               	retlw	0x0
   287  1069  347A               	retlw	0x7a
   288  106A  3444               	retlw	0x44
   289                           
   290  106B  3440               	retlw	0x40
   291  106C  341C               	retlw	0x1c
   292  106D  3446               	retlw	0x46
   293                           
   294  106E  3450               	retlw	0x50
   295  106F  34C3               	retlw	0xc3
   296  1070  3447               	retlw	0x47
   297                           
   298  1071  3424               	retlw	0x24
   299  1072  3474               	retlw	0x74
   300  1073  3449               	retlw	0x49
   301                           
   302  1074  3497               	retlw	0x97
   303  1075  3418               	retlw	0x18
   304  1076  344B               	retlw	0x4b
   305                           
   306  1077  34BC               	retlw	0xbc
   307  1078  34BE               	retlw	0xbe
   308  1079  344C               	retlw	0x4c
   309                           
   310  107A  346B               	retlw	0x6b
   311  107B  346E               	retlw	0x6e
   312  107C  344E               	retlw	0x4e
   313                           
   314  107D  3403               	retlw	0x3
   315  107E  3415               	retlw	0x15
   316  107F  3450               	retlw	0x50
   317                           
   318  1080  3479               	retlw	0x79
   319  1081  34AD               	retlw	0xad
   320  1082  3460               	retlw	0x60
   321                           
   322  1083  34F3               	retlw	0xf3
   323  1084  3449               	retlw	0x49
   324  1085  3471               	retlw	0x71
   325                           
   326                           	global	_dpowers
   327                           	global	__npowers_
   328                           	global	__powers_
   329                           	global	_RxBuffer
   330                           	global	_RxIndex
   331                           	global	_RxState
   332                           	global	_preres
   333                           	global	_result
   334                           	global	_Pitch
   335                           	global	_Roll
   336                           	global	_Yaw
   337                           	global	_PORTB
   338  0006                     _PORTB	set	6
   339                           	global	_PORTD
   340  0008                     _PORTD	set	8
   341                           	global	_RCREG
   342  001A                     _RCREG	set	26
   343                           	global	_RCSTA
   344  0018                     _RCSTA	set	24
   345                           	global	_CARRY
   346  0018                     _CARRY	set	24
   347                           	global	_CREN
   348  00C4                     _CREN	set	196
   349                           	global	_GIE
   350  005F                     _GIE	set	95
   351                           	global	_PEIE
   352  005E                     _PEIE	set	94
   353                           	global	_RA3
   354  002B                     _RA3	set	43
   355                           	global	_RA4
   356  002C                     _RA4	set	44
   357                           	global	_RA5
   358  002D                     _RA5	set	45
   359                           	global	_RCIF
   360  0065                     _RCIF	set	101
   361                           	global	_RE0
   362  0048                     _RE0	set	72
   363                           	global	_SPEN
   364  00C7                     _SPEN	set	199
   365                           	global	_ADCON1
   366  009F                     _ADCON1	set	159
   367                           	global	_SPBRG
   368  0099                     _SPBRG	set	153
   369                           	global	_TRISA
   370  0085                     _TRISA	set	133
   371                           	global	_TRISB
   372  0086                     _TRISB	set	134
   373                           	global	_TRISC
   374  0087                     _TRISC	set	135
   375                           	global	_TRISD
   376  0088                     _TRISD	set	136
   377                           	global	_TRISE
   378  0089                     _TRISE	set	137
   379                           	global	_TXSTA
   380  0098                     _TXSTA	set	152
   381                           	global	_RCIE
   382  0465                     _RCIE	set	1125
   383                           	global	_SYNC
   384  04C4                     _SYNC	set	1220
   385                           	global	_nRBPU
   386  040F                     _nRBPU	set	1039
   387                           	global	_EEADR
   388  010D                     _EEADR	set	269
   389                           	global	_EEDATA
   390  010C                     _EEDATA	set	268
   391                           	global	_EECON1
   392  018C                     _EECON1	set	396
   393                           	global	_EECON2
   394  018D                     _EECON2	set	397
   395                           	global	_RD
   396  0C60                     _RD	set	3168
   397                           	global	_WR
   398  0C61                     _WR	set	3169
   399                           	global	_WREN
   400  0C62                     _WREN	set	3170
   401                           	
   402  1086                     STR_3:	
   403  1086  3448               	retlw	72	;'H'
   404  1087  3465               	retlw	101	;'e'
   405  1088  346C               	retlw	108	;'l'
   406  1089  346C               	retlw	108	;'l'
   407  108A  346F               	retlw	111	;'o'
   408  108B  3420               	retlw	32	;' '
   409  108C  3457               	retlw	87	;'W'
   410  108D  346F               	retlw	111	;'o'
   411  108E  3472               	retlw	114	;'r'
   412  108F  346C               	retlw	108	;'l'
   413  1090  3464               	retlw	100	;'d'
   414  1091  3421               	retlw	33	;'!'
   415  1092  340A               	retlw	10
   416  1093  3400               	retlw	0
   417                           psect	strings
   418                           	
   419  1094                     STR_4:	
   420  1094  3450               	retlw	80	;'P'
   421  1095  3469               	retlw	105	;'i'
   422  1096  3474               	retlw	116	;'t'
   423  1097  3463               	retlw	99	;'c'
   424  1098  3468               	retlw	104	;'h'
   425  1099  343A               	retlw	58	;':'
   426  109A  3400               	retlw	0
   427                           psect	strings
   428                           	
   429  109B                     STR_1:	
   430  109B  3425               	retlw	37	;'%'
   431  109C  3430               	retlw	48	;'0'
   432  109D  342E               	retlw	46	;'.'
   433  109E  3433               	retlw	51	;'3'
   434  109F  3466               	retlw	102	;'f'
   435  10A0  3400               	retlw	0
   436                           psect	strings
   437                           	
   438  10A1                     STR_5:	
   439  10A1  3459               	retlw	89	;'Y'
   440  10A2  3461               	retlw	97	;'a'
   441  10A3  3477               	retlw	119	;'w'
   442  10A4  343A               	retlw	58	;':'
   443  10A5  3400               	retlw	0
   444                           psect	strings
   445                           	
   446  10A6                     STR_2:	
   447  10A6  3431               	retlw	49	;'1'
   448  10A7  3430               	retlw	48	;'0'
   449  10A8  3430               	retlw	48	;'0'
   450  10A9  3431               	retlw	49	;'1'
   451  10AA  3400               	retlw	0
   452                           psect	strings
   453                           	
   454  10AB                     STR_6:	
   455  10AB  3425               	retlw	37	;'%'
   456  10AC  3433               	retlw	51	;'3'
   457  10AD  3464               	retlw	100	;'d'
   458  10AE  3400               	retlw	0
   459                           psect	strings
   460  10AB                     STR_7	equ	STR_6+0
   461                           	file	"JY62.as"
   462                           	line	#
   463                           psect cinit,class=CODE,delta=2
   464                           global start_initialization
   465  1A7B                     start_initialization:
   466                           
   467                           psect	bssBANK0,class=BANK0,space=1
   468                           global __pbssBANK0
   469  005D                     __pbssBANK0:
   470  005D                     _RxBuffer:
   471  005D                            ds      11
   472                           
   473  0068                     _RxIndex:
   474  0068                            ds      1
   475                           
   476  0069                     _RxState:
   477  0069                            ds      1
   478                           
   479  006A                     _preres:
   480  006A                            ds      1
   481                           
   482  006B                     _result:
   483  006B                            ds      1
   484                           
   485                           psect	dataBANK0,class=BANK0,space=1
   486                           global __pdataBANK0
   487  004D                     __pdataBANK0:
   488                           	file	"E:\MPLAB_IDE\JY62\KEY.c"
   489                           	line	4
   490  004D                     _TABLE:
   491  004D                            ds      16
   492                           
   493                           psect	bssBANK3,class=BANK3,space=1
   494                           global __pbssBANK3
   495  01CB                     __pbssBANK3:
   496  01CB                     _Pitch:
   497  01CB                            ds      3
   498                           
   499  01CE                     _Roll:
   500  01CE                            ds      3
   501                           
   502  01D1                     _Yaw:
   503  01D1                            ds      3
   504                           
   505                           psect clrtext,class=CODE,delta=2
   506                           global clear_ram
   507                           ;	Called with FSR containing the base address, and
   508                           ;	W with the last address+1
   509  198B                     clear_ram:
   510  198B  0064               	clrwdt			;clear the watchdog before getting into this loop
   511  198C                     clrloop:
   512  198C  0180               	clrf	indf		;clear RAM location pointed to by FSR
   513  198D  0A84               	incf	fsr,f		;increment pointer
   514  198E  0604               	xorwf	fsr,w		;XOR with final address
   515  198F  1903               	btfsc	status,2	;have we reached the end yet?
   516  1990  3400               	retlw	0		;all done for this memory range, return
   517  1991  0604               	xorwf	fsr,w		;XOR again to restore value
   518  1992  298C               	goto	clrloop		;do the next byte
   519                           
   520                           ; Clear objects allocated to BANK0
   521                           psect cinit,class=CODE,delta=2
   522  1A7B  1383               	bcf	status, 7	;select IRP bank0
   523  1A7C  305D               	movlw	low(__pbssBANK0)
   524  1A7D  0084               	movwf	fsr
   525  1A7E  306C               	movlw	low((__pbssBANK0)+0Fh)
   526  1A7F  160A  158A  218B   	fcall	clear_ram
              160A  158A         
   527                           ; Clear objects allocated to BANK3
   528                           psect cinit,class=CODE,delta=2
   529  1A84  1783               	bsf	status, 7	;select IRP bank2
   530  1A85  30CB               	movlw	low(__pbssBANK3)
   531  1A86  0084               	movwf	fsr
   532  1A87  30D4               	movlw	low((__pbssBANK3)+09h)
   533  1A88  160A  158A  218B   	fcall	clear_ram
              160A  158A         
   534                           global btemp
   535                           psect inittext,class=CODE,delta=2
   536                           global init_fetch,btemp
   537                           ;	Called with low address in FSR and high address in W
   538  19DC                     init_fetch:
   539  19DC  087E               	movf btemp,w
   540  19DD  008A               	movwf pclath
   541  19DE  087F               	movf btemp+1,w
   542  19DF  0082               	movwf pc
   543                           global init_ram
   544                           ;Called with:
   545                           ;	high address of idata address in btemp 
   546                           ;	low address of idata address in btemp+1 
   547                           ;	low address of data in FSR
   548                           ;	high address + 1 of data in btemp-1
   549  19E0                     init_ram:
   550  19E0  160A  158A  21DC   	fcall init_fetch
              160A  158A         
   551  19E5  0080               	movwf indf,f
   552  19E6  0A84               	incf fsr,f
   553  19E7  0804               	movf fsr,w
   554  19E8  067D               	xorwf btemp-1,w
   555  19E9  1903               	btfsc status,2
   556  19EA  3400               	retlw 0
   557  19EB  0AFF               	incf btemp+1,f
   558  19EC  1903               	btfsc status,2
   559  19ED  0AFE               	incf btemp,f
   560  19EE  29E0               	goto init_ram
   561                           ; Initialize objects allocated to BANK0
   562                           psect cinit,class=CODE,delta=2
   563                           global init_ram, __pidataBANK0
   564  1A8D  1383               	bcf	status, 7	;select IRP bank0
   565  1A8E  305D               	movlw low(__pdataBANK0+16)
   566  1A8F  00FD               	movwf btemp-1,f
   567  1A90  3019               	movlw high(__pidataBANK0)
   568  1A91  00FE               	movwf btemp,f
   569  1A92  30CC               	movlw low(__pidataBANK0)
   570  1A93  00FF               	movwf btemp+1,f
   571  1A94  304D               	movlw low(__pdataBANK0)
   572  1A95  0084               	movwf fsr,f
   573  1A96  160A  158A  21E0   	fcall init_ram
              160A  158A         
   574                           psect cinit,class=CODE,delta=2
   575                           global end_of_initialization
   576                           
   577                           ;End of C runtime variable initialization code
   578                           
   579  1A9B                     end_of_initialization:
   580  1A9B  0183               clrf status
   581  1A9C  160A  158A  2B95   ljmp _main	;jump to C main() function
   582                           psect	cstackBANK3,class=BANK3,space=1
   583                           global __pcstackBANK3
   584  0190                     __pcstackBANK3:
   585                           	global	?_sprintf
   586  0190                     ?_sprintf:	; 2 bytes @ 0x0
   587                           	global	sprintf@f
   588  0190                     sprintf@f:	; 1 bytes @ 0x0
   589  0190                     	ds	4
   590                           	global	??_sprintf
   591  0194                     ??_sprintf:	; 0 bytes @ 0x4
   592  0194                     	ds	6
   593                           	global	_sprintf$5503
   594  019A                     _sprintf$5503:	; 4 bytes @ 0xA
   595  019A                     	ds	4
   596                           	global	sprintf@ap
   597  019E                     sprintf@ap:	; 1 bytes @ 0xE
   598  019E                     	ds	1
   599                           	global	sprintf@integ
   600  019F                     sprintf@integ:	; 3 bytes @ 0xF
   601  019F                     	ds	3
   602                           	global	sprintf@_val
   603  01A2                     sprintf@_val:	; 4 bytes @ 0x12
   604  01A2                     	ds	4
   605                           	global	sprintf@flag
   606  01A6                     sprintf@flag:	; 2 bytes @ 0x16
   607  01A6                     	ds	2
   608                           	global	sprintf@exp
   609  01A8                     sprintf@exp:	; 2 bytes @ 0x18
   610  01A8                     	ds	2
   611                           	global	sprintf@width
   612  01AA                     sprintf@width:	; 2 bytes @ 0x1A
   613  01AA                     	ds	2
   614                           	global	sprintf@fval
   615  01AC                     sprintf@fval:	; 3 bytes @ 0x1C
   616  01AC                     	ds	3
   617                           	global	sprintf@prec
   618  01AF                     sprintf@prec:	; 2 bytes @ 0x1F
   619  01AF                     	ds	2
   620                           	global	sprintf@sp
   621  01B1                     sprintf@sp:	; 1 bytes @ 0x21
   622  01B1                     	ds	1
   623                           	global	sprintf@c
   624  01B2                     sprintf@c:	; 1 bytes @ 0x22
   625  01B2                     	ds	1
   626                           	global	?_JY62_ShowData
   627  01B3                     ?_JY62_ShowData:	; 0 bytes @ 0x23
   628                           	global	JY62_ShowData@roll
   629  01B3                     JY62_ShowData@roll:	; 3 bytes @ 0x23
   630  01B3                     	ds	3
   631                           	global	JY62_ShowData@pitch
   632  01B6                     JY62_ShowData@pitch:	; 3 bytes @ 0x26
   633  01B6                     	ds	3
   634                           	global	JY62_ShowData@yaw
   635  01B9                     JY62_ShowData@yaw:	; 3 bytes @ 0x29
   636  01B9                     	ds	3
   637                           	global	JY62_ShowData@str
   638  01BC                     JY62_ShowData@str:	; 11 bytes @ 0x2C
   639  01BC                     	ds	11
   640                           	global	JY62_ShowData@infinite_yaw
   641  01C7                     JY62_ShowData@infinite_yaw:	; 2 bytes @ 0x37
   642  01C7                     	ds	2
   643                           	global	_JY62_ShowData$6334
   644  01C9                     _JY62_ShowData$6334:	; 2 bytes @ 0x39
   645  01C9                     	ds	2
   646                           psect	cstackBANK1,class=BANK1,space=1
   647                           global __pcstackBANK1
   648  00A0                     __pcstackBANK1:
   649                           	global	??_Beep_Init
   650  00A0                     ??_Beep_Init:	; 0 bytes @ 0x0
   651                           	global	??_Uart_Init
   652  00A0                     ??_Uart_Init:	; 0 bytes @ 0x0
   653                           	global	??_isdigit
   654  00A0                     ??_isdigit:	; 0 bytes @ 0x0
   655                           	global	??_DELAY
   656  00A0                     ??_DELAY:	; 0 bytes @ 0x0
   657                           	global	??_KEY_Init
   658  00A0                     ??_KEY_Init:	; 0 bytes @ 0x0
   659                           	global	?___ftge
   660  00A0                     ?___ftge:	; 1 bit 
   661                           	global	?___wmul
   662  00A0                     ?___wmul:	; 2 bytes @ 0x0
   663                           	global	?___awmod
   664  00A0                     ?___awmod:	; 2 bytes @ 0x0
   665                           	global	?___ftpack
   666  00A0                     ?___ftpack:	; 3 bytes @ 0x0
   667                           	global	?___ftneg
   668  00A0                     ?___ftneg:	; 3 bytes @ 0x0
   669                           	global	?__tdiv_to_l_
   670  00A0                     ?__tdiv_to_l_:	; 4 bytes @ 0x0
   671                           	global	?__div_to_l_
   672  00A0                     ?__div_to_l_:	; 4 bytes @ 0x0
   673                           	global	?___lldiv
   674  00A0                     ?___lldiv:	; 4 bytes @ 0x0
   675                           	global	_isdigit$5858
   676  00A0                     _isdigit$5858:	; 1 bytes @ 0x0
   677                           	global	DELAY@i
   678  00A0                     DELAY@i:	; 2 bytes @ 0x0
   679                           	global	___wmul@multiplier
   680  00A0                     ___wmul@multiplier:	; 2 bytes @ 0x0
   681                           	global	___awmod@divisor
   682  00A0                     ___awmod@divisor:	; 2 bytes @ 0x0
   683                           	global	___ftneg@f1
   684  00A0                     ___ftneg@f1:	; 3 bytes @ 0x0
   685                           	global	___ftge@ff1
   686  00A0                     ___ftge@ff1:	; 3 bytes @ 0x0
   687                           	global	__tdiv_to_l_@f1
   688  00A0                     __tdiv_to_l_@f1:	; 3 bytes @ 0x0
   689                           	global	__div_to_l_@f1
   690  00A0                     __div_to_l_@f1:	; 3 bytes @ 0x0
   691                           	global	___ftpack@arg
   692  00A0                     ___ftpack@arg:	; 3 bytes @ 0x0
   693                           	global	___lldiv@divisor
   694  00A0                     ___lldiv@divisor:	; 4 bytes @ 0x0
   695  00A0                     	ds	1
   696                           	global	isdigit@c
   697  00A1                     isdigit@c:	; 1 bytes @ 0x1
   698  00A1                     	ds	1
   699                           	global	??_ENABLE
   700  00A2                     ??_ENABLE:	; 0 bytes @ 0x2
   701                           	global	??_ENABLE1
   702  00A2                     ??_ENABLE1:	; 0 bytes @ 0x2
   703                           	global	??_LCD_Init
   704  00A2                     ??_LCD_Init:	; 0 bytes @ 0x2
   705                           	global	??_LCD_Clear
   706  00A2                     ??_LCD_Clear:	; 0 bytes @ 0x2
   707                           	global	?_LCD_ShowString
   708  00A2                     ?_LCD_ShowString:	; 0 bytes @ 0x2
   709                           	global	LCD_ShowString@str
   710  00A2                     LCD_ShowString@str:	; 2 bytes @ 0x2
   711                           	global	___wmul@multiplicand
   712  00A2                     ___wmul@multiplicand:	; 2 bytes @ 0x2
   713                           	global	___awmod@dividend
   714  00A2                     ___awmod@dividend:	; 2 bytes @ 0x2
   715  00A2                     	ds	1
   716                           	global	??___ftneg
   717  00A3                     ??___ftneg:	; 0 bytes @ 0x3
   718                           	global	___ftpack@exp
   719  00A3                     ___ftpack@exp:	; 1 bytes @ 0x3
   720                           	global	___ftge@ff2
   721  00A3                     ___ftge@ff2:	; 3 bytes @ 0x3
   722                           	global	__tdiv_to_l_@f2
   723  00A3                     __tdiv_to_l_@f2:	; 3 bytes @ 0x3
   724                           	global	__div_to_l_@f2
   725  00A3                     __div_to_l_@f2:	; 3 bytes @ 0x3
   726  00A3                     	ds	1
   727                           	global	??___wmul
   728  00A4                     ??___wmul:	; 0 bytes @ 0x4
   729                           	global	??___awmod
   730  00A4                     ??___awmod:	; 0 bytes @ 0x4
   731                           	global	LCD_ShowString@row
   732  00A4                     LCD_ShowString@row:	; 1 bytes @ 0x4
   733                           	global	___ftpack@sign
   734  00A4                     ___ftpack@sign:	; 1 bytes @ 0x4
   735                           	global	___wmul@product
   736  00A4                     ___wmul@product:	; 2 bytes @ 0x4
   737                           	global	___lldiv@dividend
   738  00A4                     ___lldiv@dividend:	; 4 bytes @ 0x4
   739  00A4                     	ds	1
   740                           	global	??___ftpack
   741  00A5                     ??___ftpack:	; 0 bytes @ 0x5
   742                           	global	LCD_ShowString@col
   743  00A5                     LCD_ShowString@col:	; 1 bytes @ 0x5
   744                           	global	___awmod@counter
   745  00A5                     ___awmod@counter:	; 1 bytes @ 0x5
   746  00A5                     	ds	1
   747                           	global	??__tdiv_to_l_
   748  00A6                     ??__tdiv_to_l_:	; 0 bytes @ 0x6
   749                           	global	??__div_to_l_
   750  00A6                     ??__div_to_l_:	; 0 bytes @ 0x6
   751                           	global	??_LCD_ShowString
   752  00A6                     ??_LCD_ShowString:	; 0 bytes @ 0x6
   753                           	global	??___ftge
   754  00A6                     ??___ftge:	; 0 bytes @ 0x6
   755                           	global	___awmod@sign
   756  00A6                     ___awmod@sign:	; 1 bytes @ 0x6
   757  00A6                     	ds	1
   758                           	global	?___awdiv
   759  00A7                     ?___awdiv:	; 2 bytes @ 0x7
   760                           	global	LCD_ShowString@address
   761  00A7                     LCD_ShowString@address:	; 1 bytes @ 0x7
   762                           	global	___awdiv@divisor
   763  00A7                     ___awdiv@divisor:	; 2 bytes @ 0x7
   764  00A7                     	ds	1
   765                           	global	??___lldiv
   766  00A8                     ??___lldiv:	; 0 bytes @ 0x8
   767                           	global	?___lltoft
   768  00A8                     ?___lltoft:	; 3 bytes @ 0x8
   769                           	global	___lltoft@c
   770  00A8                     ___lltoft@c:	; 4 bytes @ 0x8
   771  00A8                     	ds	1
   772                           	global	___awdiv@dividend
   773  00A9                     ___awdiv@dividend:	; 2 bytes @ 0x9
   774                           	global	___lldiv@quotient
   775  00A9                     ___lldiv@quotient:	; 4 bytes @ 0x9
   776  00A9                     	ds	1
   777                           	global	__tdiv_to_l_@quot
   778  00AA                     __tdiv_to_l_@quot:	; 4 bytes @ 0xA
   779  00AA                     	ds	1
   780                           	global	??___awdiv
   781  00AB                     ??___awdiv:	; 0 bytes @ 0xB
   782  00AB                     	ds	1
   783                           	global	??___lltoft
   784  00AC                     ??___lltoft:	; 0 bytes @ 0xC
   785                           	global	___awdiv@counter
   786  00AC                     ___awdiv@counter:	; 1 bytes @ 0xC
   787  00AC                     	ds	1
   788                           	global	___awdiv@sign
   789  00AD                     ___awdiv@sign:	; 1 bytes @ 0xD
   790                           	global	___lldiv@counter
   791  00AD                     ___lldiv@counter:	; 1 bytes @ 0xD
   792                           	global	___lltoft@exp
   793  00AD                     ___lltoft@exp:	; 1 bytes @ 0xD
   794  00AD                     	ds	1
   795                           	global	?___llmod
   796  00AE                     ?___llmod:	; 4 bytes @ 0xE
   797                           	global	__tdiv_to_l_@cntr
   798  00AE                     __tdiv_to_l_@cntr:	; 1 bytes @ 0xE
   799                           	global	___awdiv@quotient
   800  00AE                     ___awdiv@quotient:	; 2 bytes @ 0xE
   801                           	global	___llmod@divisor
   802  00AE                     ___llmod@divisor:	; 4 bytes @ 0xE
   803                           	global	__div_to_l_@quot
   804  00AE                     __div_to_l_@quot:	; 4 bytes @ 0xE
   805  00AE                     	ds	1
   806                           	global	__tdiv_to_l_@exp1
   807  00AF                     __tdiv_to_l_@exp1:	; 1 bytes @ 0xF
   808  00AF                     	ds	1
   809                           	global	?___bmul
   810  00B0                     ?___bmul:	; 1 bytes @ 0x10
   811                           	global	___bmul@multiplicand
   812  00B0                     ___bmul@multiplicand:	; 1 bytes @ 0x10
   813  00B0                     	ds	1
   814                           	global	??___bmul
   815  00B1                     ??___bmul:	; 0 bytes @ 0x11
   816  00B1                     	ds	1
   817                           	global	___bmul@product
   818  00B2                     ___bmul@product:	; 1 bytes @ 0x12
   819                           	global	__div_to_l_@cntr
   820  00B2                     __div_to_l_@cntr:	; 1 bytes @ 0x12
   821                           	global	___llmod@dividend
   822  00B2                     ___llmod@dividend:	; 4 bytes @ 0x12
   823  00B2                     	ds	1
   824                           	global	___bmul@multiplier
   825  00B3                     ___bmul@multiplier:	; 1 bytes @ 0x13
   826                           	global	__div_to_l_@exp1
   827  00B3                     __div_to_l_@exp1:	; 1 bytes @ 0x13
   828  00B3                     	ds	1
   829                           	global	?___fttol
   830  00B4                     ?___fttol:	; 4 bytes @ 0x14
   831                           	global	___fttol@f1
   832  00B4                     ___fttol@f1:	; 3 bytes @ 0x14
   833  00B4                     	ds	2
   834                           	global	??___llmod
   835  00B6                     ??___llmod:	; 0 bytes @ 0x16
   836  00B6                     	ds	1
   837                           	global	___llmod@counter
   838  00B7                     ___llmod@counter:	; 1 bytes @ 0x17
   839  00B7                     	ds	1
   840                           	global	??___fttol
   841  00B8                     ??___fttol:	; 0 bytes @ 0x18
   842  00B8                     	ds	4
   843                           	global	___fttol@sign1
   844  00BC                     ___fttol@sign1:	; 1 bytes @ 0x1C
   845  00BC                     	ds	1
   846                           	global	___fttol@lval
   847  00BD                     ___fttol@lval:	; 4 bytes @ 0x1D
   848  00BD                     	ds	4
   849                           	global	___fttol@exp1
   850  00C1                     ___fttol@exp1:	; 1 bytes @ 0x21
   851  00C1                     	ds	1
   852                           	global	?___ftmul
   853  00C2                     ?___ftmul:	; 3 bytes @ 0x22
   854                           	global	?___awtoft
   855  00C2                     ?___awtoft:	; 3 bytes @ 0x22
   856                           	global	___awtoft@c
   857  00C2                     ___awtoft@c:	; 2 bytes @ 0x22
   858                           	global	___ftmul@f1
   859  00C2                     ___ftmul@f1:	; 3 bytes @ 0x22
   860  00C2                     	ds	3
   861                           	global	??___awtoft
   862  00C5                     ??___awtoft:	; 0 bytes @ 0x25
   863                           	global	___ftmul@f2
   864  00C5                     ___ftmul@f2:	; 3 bytes @ 0x25
   865  00C5                     	ds	2
   866                           	global	___awtoft@sign
   867  00C7                     ___awtoft@sign:	; 1 bytes @ 0x27
   868  00C7                     	ds	1
   869                           	global	??___ftmul
   870  00C8                     ??___ftmul:	; 0 bytes @ 0x28
   871                           	global	?_JY62_InfiniteYaw
   872  00C8                     ?_JY62_InfiniteYaw:	; 3 bytes @ 0x28
   873                           	global	JY62_InfiniteYaw@yaw
   874  00C8                     JY62_InfiniteYaw@yaw:	; 3 bytes @ 0x28
   875  00C8                     	ds	3
   876                           	global	??_JY62_InfiniteYaw
   877  00CB                     ??_JY62_InfiniteYaw:	; 0 bytes @ 0x2B
   878  00CB                     	ds	1
   879                           	global	___ftmul@exp
   880  00CC                     ___ftmul@exp:	; 1 bytes @ 0x2C
   881  00CC                     	ds	1
   882                           	global	___ftmul@f3_as_product
   883  00CD                     ___ftmul@f3_as_product:	; 3 bytes @ 0x2D
   884  00CD                     	ds	2
   885                           	global	JY62_InfiniteYaw@new_yaw
   886  00CF                     JY62_InfiniteYaw@new_yaw:	; 3 bytes @ 0x2F
   887  00CF                     	ds	1
   888                           	global	___ftmul@cntr
   889  00D0                     ___ftmul@cntr:	; 1 bytes @ 0x30
   890  00D0                     	ds	1
   891                           	global	___ftmul@sign
   892  00D1                     ___ftmul@sign:	; 1 bytes @ 0x31
   893  00D1                     	ds	1
   894                           	global	?_scale
   895  00D2                     ?_scale:	; 3 bytes @ 0x32
   896                           	global	?___ftadd
   897  00D2                     ?___ftadd:	; 3 bytes @ 0x32
   898                           	global	___ftadd@f1
   899  00D2                     ___ftadd@f1:	; 3 bytes @ 0x32
   900  00D2                     	ds	3
   901                           	global	??_scale
   902  00D5                     ??_scale:	; 0 bytes @ 0x35
   903                           	global	___ftadd@f2
   904  00D5                     ___ftadd@f2:	; 3 bytes @ 0x35
   905  00D5                     	ds	2
   906                           	global	_scale$6337
   907  00D7                     _scale$6337:	; 3 bytes @ 0x37
   908  00D7                     	ds	1
   909                           	global	??___ftadd
   910  00D8                     ??___ftadd:	; 0 bytes @ 0x38
   911  00D8                     	ds	2
   912                           	global	scale@scl
   913  00DA                     scale@scl:	; 1 bytes @ 0x3A
   914  00DA                     	ds	2
   915                           	global	___ftadd@sign
   916  00DC                     ___ftadd@sign:	; 1 bytes @ 0x3C
   917  00DC                     	ds	1
   918                           	global	___ftadd@exp2
   919  00DD                     ___ftadd@exp2:	; 1 bytes @ 0x3D
   920  00DD                     	ds	1
   921                           	global	___ftadd@exp1
   922  00DE                     ___ftadd@exp1:	; 1 bytes @ 0x3E
   923  00DE                     	ds	1
   924                           	global	?_fround
   925  00DF                     ?_fround:	; 3 bytes @ 0x3F
   926                           	global	?___ftsub
   927  00DF                     ?___ftsub:	; 3 bytes @ 0x3F
   928                           	global	___ftsub@f2
   929  00DF                     ___ftsub@f2:	; 3 bytes @ 0x3F
   930  00DF                     	ds	3
   931                           	global	??_fround
   932  00E2                     ??_fround:	; 0 bytes @ 0x42
   933                           	global	___ftsub@f1
   934  00E2                     ___ftsub@f1:	; 3 bytes @ 0x42
   935  00E2                     	ds	3
   936                           	global	??___ftsub
   937  00E5                     ??___ftsub:	; 0 bytes @ 0x45
   938  00E5                     	ds	3
   939                           	global	_fround$6336
   940  00E8                     _fround$6336:	; 3 bytes @ 0x48
   941  00E8                     	ds	3
   942                           	global	_fround$6335
   943  00EB                     _fround$6335:	; 3 bytes @ 0x4B
   944  00EB                     	ds	3
   945                           	global	fround@prec
   946  00EE                     fround@prec:	; 1 bytes @ 0x4E
   947  00EE                     	ds	1
   948                           	global	??_JY62_ShowData
   949  00EF                     ??_JY62_ShowData:	; 0 bytes @ 0x4F
   950  00EF                     	ds	1
   951                           	global	??_main
   952  00F0                     ??_main:	; 0 bytes @ 0x50
   953                           psect	cstackCOMMON,class=COMMON,space=1
   954                           global __pcstackCOMMON
   955  0070                     __pcstackCOMMON:
   956                           	global	?_Beep_Init
   957  0070                     ?_Beep_Init:	; 0 bytes @ 0x0
   958                           	global	?_Uart_Init
   959  0070                     ?_Uart_Init:	; 0 bytes @ 0x0
   960                           	global	?_JY62_ReceiveData
   961  0070                     ?_JY62_ReceiveData:	; 0 bytes @ 0x0
   962                           	global	?_isdigit
   963  0070                     ?_isdigit:	; 1 bit 
   964                           	global	?_DELAY
   965  0070                     ?_DELAY:	; 0 bytes @ 0x0
   966                           	global	?_ENABLE
   967  0070                     ?_ENABLE:	; 0 bytes @ 0x0
   968                           	global	?_ENABLE1
   969  0070                     ?_ENABLE1:	; 0 bytes @ 0x0
   970                           	global	?_LCD_Init
   971  0070                     ?_LCD_Init:	; 0 bytes @ 0x0
   972                           	global	?_LCD_Clear
   973  0070                     ?_LCD_Clear:	; 0 bytes @ 0x0
   974                           	global	?_KEY_Init
   975  0070                     ?_KEY_Init:	; 0 bytes @ 0x0
   976                           	global	?_main
   977  0070                     ?_main:	; 0 bytes @ 0x0
   978                           	global	?_uart_service
   979  0070                     ?_uart_service:	; 0 bytes @ 0x0
   980                           	global	?i1___ftpack
   981  0070                     ?i1___ftpack:	; 3 bytes @ 0x0
   982                           	global	i1___ftpack@arg
   983  0070                     i1___ftpack@arg:	; 3 bytes @ 0x0
   984  0070                     	ds	3
   985                           	global	i1___ftpack@exp
   986  0073                     i1___ftpack@exp:	; 1 bytes @ 0x3
   987  0073                     	ds	1
   988                           	global	i1___ftpack@sign
   989  0074                     i1___ftpack@sign:	; 1 bytes @ 0x4
   990  0074                     	ds	1
   991                           	global	??i1___ftpack
   992  0075                     ??i1___ftpack:	; 0 bytes @ 0x5
   993  0075                     	ds	3
   994                           	global	?i1___awtoft
   995  0078                     ?i1___awtoft:	; 3 bytes @ 0x8
   996                           	global	i1___awtoft@c
   997  0078                     i1___awtoft@c:	; 2 bytes @ 0x8
   998  0078                     	ds	3
   999                           	global	??i1___awtoft
  1000  007B                     ??i1___awtoft:	; 0 bytes @ 0xB
  1001  007B                     	ds	2
  1002                           	global	i1___awtoft@sign
  1003  007D                     i1___awtoft@sign:	; 1 bytes @ 0xD
  1004  007D                     	ds	1
  1005                           psect	cstackBANK0,class=BANK0,space=1
  1006                           global __pcstackBANK0
  1007  0020                     __pcstackBANK0:
  1008                           	global	?___ftdiv
  1009  0020                     ?___ftdiv:	; 3 bytes @ 0x0
  1010                           	global	___ftdiv@f2
  1011  0020                     ___ftdiv@f2:	; 3 bytes @ 0x0
  1012  0020                     	ds	3
  1013                           	global	___ftdiv@f1
  1014  0023                     ___ftdiv@f1:	; 3 bytes @ 0x3
  1015  0023                     	ds	3
  1016                           	global	??___ftdiv
  1017  0026                     ??___ftdiv:	; 0 bytes @ 0x6
  1018  0026                     	ds	4
  1019                           	global	___ftdiv@cntr
  1020  002A                     ___ftdiv@cntr:	; 1 bytes @ 0xA
  1021  002A                     	ds	1
  1022                           	global	___ftdiv@f3
  1023  002B                     ___ftdiv@f3:	; 3 bytes @ 0xB
  1024  002B                     	ds	3
  1025                           	global	___ftdiv@exp
  1026  002E                     ___ftdiv@exp:	; 1 bytes @ 0xE
  1027  002E                     	ds	1
  1028                           	global	___ftdiv@sign
  1029  002F                     ___ftdiv@sign:	; 1 bytes @ 0xF
  1030  002F                     	ds	1
  1031                           	global	?i1___ftmul
  1032  0030                     ?i1___ftmul:	; 3 bytes @ 0x10
  1033                           	global	i1___ftmul@f1
  1034  0030                     i1___ftmul@f1:	; 3 bytes @ 0x10
  1035  0030                     	ds	3
  1036                           	global	i1___ftmul@f2
  1037  0033                     i1___ftmul@f2:	; 3 bytes @ 0x13
  1038  0033                     	ds	3
  1039                           	global	??i1___ftmul
  1040  0036                     ??i1___ftmul:	; 0 bytes @ 0x16
  1041  0036                     	ds	4
  1042                           	global	i1___ftmul@exp
  1043  003A                     i1___ftmul@exp:	; 1 bytes @ 0x1A
  1044  003A                     	ds	1
  1045                           	global	i1___ftmul@f3_as_product
  1046  003B                     i1___ftmul@f3_as_product:	; 3 bytes @ 0x1B
  1047  003B                     	ds	3
  1048                           	global	i1___ftmul@cntr
  1049  003E                     i1___ftmul@cntr:	; 1 bytes @ 0x1E
  1050  003E                     	ds	1
  1051                           	global	i1___ftmul@sign
  1052  003F                     i1___ftmul@sign:	; 1 bytes @ 0x1F
  1053  003F                     	ds	1
  1054                           	global	??_JY62_ReceiveData
  1055  0040                     ??_JY62_ReceiveData:	; 0 bytes @ 0x20
  1056  0040                     	ds	4
  1057                           	global	JY62_ReceiveData@sum
  1058  0044                     JY62_ReceiveData@sum:	; 1 bytes @ 0x24
  1059  0044                     	ds	1
  1060                           	global	JY62_ReceiveData@i
  1061  0045                     JY62_ReceiveData@i:	; 1 bytes @ 0x25
  1062  0045                     	ds	1
  1063                           	global	JY62_ReceiveData@RxData
  1064  0046                     JY62_ReceiveData@RxData:	; 1 bytes @ 0x26
  1065  0046                     	ds	1
  1066                           	global	??_uart_service
  1067  0047                     ??_uart_service:	; 0 bytes @ 0x27
  1068  0047                     	ds	5
  1069                           	global	uart_service@RxData
  1070  004C                     uart_service@RxData:	; 1 bytes @ 0x2C
  1071  004C                     	ds	1
  1072 ;;Data sizes: Strings 41, constant 118, data 16, bss 24, persistent 0 stack 0
  1073 ;;Auto spaces:   Size  Autos    Used
  1074 ;; COMMON          14     14      14
  1075 ;; BANK0           80     45      76
  1076 ;; BANK1           80     80      80
  1077 ;; BANK3           96     59      68
  1078 ;; BANK2           96      0       0
  1079                           
  1080 ;;
  1081 ;; Pointer list with targets:
  1082                           
  1083 ;; ?i1___ftpack	float  size(1) Largest target is 0
  1084 ;;
  1085 ;; ?i1___awtoft	float  size(1) Largest target is 0
  1086 ;;
  1087 ;; ?i1___ftmul	float  size(1) Largest target is 0
  1088 ;;
  1089 ;; ?___ftpack	float  size(1) Largest target is 0
  1090 ;;
  1091 ;; ?___lldiv	unsigned long  size(1) Largest target is 0
  1092 ;;
  1093 ;; ?___llmod	unsigned long  size(1) Largest target is 0
  1094 ;;
  1095 ;; ?___ftsub	float  size(1) Largest target is 0
  1096 ;;
  1097 ;; ?___lltoft	float  size(1) Largest target is 0
  1098 ;;
  1099 ;; ?__tdiv_to_l_	unsigned long  size(1) Largest target is 0
  1100 ;;
  1101 ;; ?__div_to_l_	unsigned long  size(1) Largest target is 0
  1102 ;;
  1103 ;; ?___ftadd	float  size(1) Largest target is 0
  1104 ;;
  1105 ;; ?___ftneg	float  size(1) Largest target is 0
  1106 ;;
  1107 ;; ?_scale	float  size(1) Largest target is 0
  1108 ;;
  1109 ;; ?___awdiv	int  size(1) Largest target is 0
  1110 ;;
  1111 ;; ?_fround	int  size(1) Largest target is 0
  1112 ;;
  1113 ;; ?___wmul	unsigned int  size(1) Largest target is 0
  1114 ;;
  1115 ;; ?_JY62_InfiniteYaw	float  size(1) Largest target is 0
  1116 ;;
  1117 ;; ?___fttol	long  size(1) Largest target is 0
  1118 ;;
  1119 ;; ?___awmod	int  size(1) Largest target is 0
  1120 ;;
  1121 ;; ?___ftdiv	float  size(1) Largest target is 0
  1122 ;;
  1123 ;; ?___awtoft	float  size(1) Largest target is 0
  1124 ;;
  1125 ;; ?___ftmul	float  size(1) Largest target is 0
  1126 ;;
  1127 ;; sprintf@f	PTR const unsigned char  size(1) Largest target is 6
  1128 ;;		 -> STR_7(CODE[4]), STR_6(CODE[4]), STR_1(CODE[6]), 
  1129 ;;
  1130 ;; sprintf@sp	PTR unsigned char  size(1) Largest target is 11
  1131 ;;		 -> JY62_ShowData@str(BANK3[11]), floatToStr@charbuf(COMMON[10]), 
  1132 ;;
  1133 ;; ?_sprintf	int  size(1) Largest target is 0
  1134 ;;
  1135 ;; sprintf@ap	PTR void [1] size(1) Largest target is 2
  1136 ;;		 -> ?_sprintf(BANK3[2]), 
  1137 ;;
  1138 ;; S5492$_cp	PTR const unsigned char  size(1) Largest target is 0
  1139 ;;
  1140 ;; _val._str._cp	PTR const unsigned char  size(1) Largest target is 0
  1141 ;;
  1142 ;; LCD_ShowString@str	PTR unsigned char  size(2) Largest target is 14
  1143 ;;		 -> JY62_ShowData@str(BANK3[11]), STR_5(CODE[5]), STR_4(CODE[7]), STR_3(CODE[14]), 
  1144 ;;		 -> STR_2(CODE[5]), floatToStr@charbuf(COMMON[10]), 
  1145 ;;
  1146                           
  1147                           
  1148 ;;
  1149 ;; Critical Paths under _main in COMMON
  1150 ;;
  1151 ;;   None.
  1152 ;;
  1153 ;; Critical Paths under _uart_service in COMMON
  1154 ;;
  1155 ;;   _JY62_ReceiveData->i1___awtoft
  1156 ;;   i1___awtoft->i1___ftpack
  1157 ;;   i1___ftmul->i1___awtoft
  1158 ;;   ___ftdiv->i1___awtoft
  1159 ;;
  1160 ;; Critical Paths under _main in BANK0
  1161 ;;
  1162 ;;   None.
  1163 ;;
  1164 ;; Critical Paths under _uart_service in BANK0
  1165 ;;
  1166 ;;   _uart_service->_JY62_ReceiveData
  1167 ;;   _JY62_ReceiveData->i1___ftmul
  1168 ;;   i1___ftmul->___ftdiv
  1169 ;;
  1170 ;; Critical Paths under _main in BANK1
  1171 ;;
  1172 ;;   _main->_JY62_ShowData
  1173 ;;   _sprintf->_fround
  1174 ;;   ___ftsub->___ftadd
  1175 ;;   _scale->___ftmul
  1176 ;;   _fround->___ftadd
  1177 ;;   _JY62_InfiniteYaw->___awtoft
  1178 ;;   _LCD_ShowString->_DELAY
  1179 ;;   _LCD_Clear->_DELAY
  1180 ;;   _LCD_Init->_DELAY
  1181 ;;   ___lltoft->___ftpack
  1182 ;;   ___awtoft->___fttol
  1183 ;;   ___ftmul->___fttol
  1184 ;;   ___ftadd->___ftmul
  1185 ;;   _ENABLE1->_DELAY
  1186 ;;   _ENABLE->_DELAY
  1187 ;;   ___llmod->___lldiv
  1188 ;;   ___awdiv->___awmod
  1189 ;;   ___fttol->___bmul
  1190 ;;   ___bmul->___awdiv
  1191 ;;
  1192 ;; Critical Paths under _uart_service in BANK1
  1193 ;;
  1194 ;;   None.
  1195 ;;
  1196 ;; Critical Paths under _main in BANK3
  1197 ;;
  1198 ;;   _main->_JY62_ShowData
  1199 ;;   _JY62_ShowData->_sprintf
  1200 ;;
  1201 ;; Critical Paths under _uart_service in BANK3
  1202 ;;
  1203 ;;   None.
  1204 ;;
  1205 ;; Critical Paths under _main in BANK2
  1206 ;;
  1207 ;;   None.
  1208 ;;
  1209 ;; Critical Paths under _uart_service in BANK2
  1210 ;;
  1211 ;;   None.
  1212                           
  1213 ;;
  1214 ;;Main: autosize = 0, tempsize = 0, incstack = 0, save=0
  1215 ;;
  1216                           
  1217 ;;
  1218 ;;Call Graph Tables:
  1219 ;;
  1220 ;; ---------------------------------------------------------------------------------
  1221 ;; (Depth) Function   	        Calls       Base Space   Used Autos Params    Refs
  1222 ;; ---------------------------------------------------------------------------------
  1223 ;; (0) _main                                                 0     0      0   12998
  1224 ;;                          _Beep_Init
  1225 ;;                           _LCD_Init
  1226 ;;                     _LCD_ShowString
  1227 ;;                          _LCD_Clear
  1228 ;;                           _KEY_Init
  1229 ;;                          _Uart_Init
  1230 ;;                      _JY62_ShowData
  1231 ;; ---------------------------------------------------------------------------------
  1232 ;; (1) _JY62_ShowData                                       25    16      9   12541
  1233 ;;                                             79 BANK1      1     1      0
  1234 ;;                                             35 BANK3     24    15      9
  1235 ;;                     _LCD_ShowString
  1236 ;;                   _JY62_InfiniteYaw
  1237 ;;                            ___fttol
  1238 ;;                            _sprintf
  1239 ;; ---------------------------------------------------------------------------------
  1240 ;; (2) _sprintf                                             39    35      4   10913
  1241 ;;                                              0 BANK3     35    31      4
  1242 ;;                            _isdigit
  1243 ;;                             ___wmul
  1244 ;;                             ___ftge
  1245 ;;                            ___ftneg
  1246 ;;                            ___awdiv
  1247 ;;                              _scale
  1248 ;;                            ___ftmul
  1249 ;;                             _fround
  1250 ;;                            ___ftadd
  1251 ;;                            ___fttol
  1252 ;;                         __div_to_l_
  1253 ;;                        __tdiv_to_l_
  1254 ;;                           ___lltoft
  1255 ;;                            ___ftsub
  1256 ;;                            ___lldiv
  1257 ;;                            ___llmod
  1258 ;; ---------------------------------------------------------------------------------
  1259 ;; (3) ___ftsub                                              6     0      6    1094
  1260 ;;                                             63 BANK1      6     0      6
  1261 ;;                            ___ftadd
  1262 ;;                           ___lltoft (ARG)
  1263 ;; ---------------------------------------------------------------------------------
  1264 ;; (3) _scale                                               12     9      3    1688
  1265 ;;                                             50 BANK1      9     6      3
  1266 ;;                            ___awmod
  1267 ;;                             ___bmul
  1268 ;;                            ___awdiv
  1269 ;;                            ___ftmul
  1270 ;;                            ___fttol (ARG)
  1271 ;; ---------------------------------------------------------------------------------
  1272 ;; (3) _fround                                              19    16      3    1490
  1273 ;;                                             63 BANK1     16    13      3
  1274 ;;                            ___awmod
  1275 ;;                             ___bmul
  1276 ;;                            ___awdiv
  1277 ;;                            ___ftmul
  1278 ;;                            ___ftadd (ARG)
  1279 ;; ---------------------------------------------------------------------------------
  1280 ;; (2) _JY62_InfiniteYaw                                    10     7      3     893
  1281 ;;                                             40 BANK1     10     7      3
  1282 ;;                            ___fttol
  1283 ;;                            ___awmod
  1284 ;;                           ___awtoft
  1285 ;; ---------------------------------------------------------------------------------
  1286 ;; (2) _LCD_ShowString                                       6     2      4     273
  1287 ;;                                              2 BANK1      6     2      4
  1288 ;;                             _ENABLE
  1289 ;;                            _ENABLE1
  1290 ;;                              _DELAY
  1291 ;; ---------------------------------------------------------------------------------
  1292 ;; (1) _LCD_Clear                                            0     0      0      92
  1293 ;;                             _ENABLE
  1294 ;;                              _DELAY
  1295 ;; ---------------------------------------------------------------------------------
  1296 ;; (1) _LCD_Init                                             0     0      0      92
  1297 ;;                              _DELAY
  1298 ;;                             _ENABLE
  1299 ;; ---------------------------------------------------------------------------------
  1300 ;; (3) ___lltoft                                             6     2      4     278
  1301 ;;                                              8 BANK1      6     2      4
  1302 ;;                           ___ftpack
  1303 ;; ---------------------------------------------------------------------------------
  1304 ;; (3) ___awtoft                                             6     3      3     300
  1305 ;;                                             34 BANK1      6     3      3
  1306 ;;                           ___ftpack
  1307 ;;                            ___awmod (ARG)
  1308 ;;                            ___fttol (ARG)
  1309 ;; ---------------------------------------------------------------------------------
  1310 ;; (4) ___ftmul                                             16    10      6     535
  1311 ;;                                             34 BANK1     16    10      6
  1312 ;;                           ___ftpack
  1313 ;;                            ___fttol (ARG)
  1314 ;;                             ___bmul (ARG)
  1315 ;;                            ___awdiv (ARG)
  1316 ;;                            ___awmod (ARG)
  1317 ;; ---------------------------------------------------------------------------------
  1318 ;; (4) ___ftadd                                             13     7      6    1049
  1319 ;;                                             50 BANK1     13     7      6
  1320 ;;                           ___ftpack
  1321 ;;                            ___awmod (ARG)
  1322 ;;                             ___bmul (ARG)
  1323 ;;                            ___awdiv (ARG)
  1324 ;;                            ___ftmul (ARG)
  1325 ;; ---------------------------------------------------------------------------------
  1326 ;; (3) _ENABLE1                                              0     0      0      46
  1327 ;;                              _DELAY
  1328 ;; ---------------------------------------------------------------------------------
  1329 ;; (3) _ENABLE                                               0     0      0      46
  1330 ;;                              _DELAY
  1331 ;; ---------------------------------------------------------------------------------
  1332 ;; (4) ___awmod                                              7     3      4     296
  1333 ;;                                              0 BANK1      7     3      4
  1334 ;; ---------------------------------------------------------------------------------
  1335 ;; (3) ___lldiv                                             14     6      8     162
  1336 ;;                                              0 BANK1     14     6      8
  1337 ;; ---------------------------------------------------------------------------------
  1338 ;; (3) ___ftge                                              12     6      6     136
  1339 ;;                                              0 BANK1     12     6      6
  1340 ;; ---------------------------------------------------------------------------------
  1341 ;; (3) ___ftneg                                              3     0      3      45
  1342 ;;                                              0 BANK1      3     0      3
  1343 ;; ---------------------------------------------------------------------------------
  1344 ;; (3) ___llmod                                             10     2      8     159
  1345 ;;                                             14 BANK1     10     2      8
  1346 ;;                            ___lldiv (ARG)
  1347 ;; ---------------------------------------------------------------------------------
  1348 ;; (4) ___awdiv                                              9     5      4     300
  1349 ;;                                              7 BANK1      9     5      4
  1350 ;;                            ___awmod (ARG)
  1351 ;; ---------------------------------------------------------------------------------
  1352 ;; (3) ___fttol                                             14    10      4     252
  1353 ;;                                             20 BANK1     14    10      4
  1354 ;;                           ___ftpack (ARG)
  1355 ;;                            ___awmod (ARG)
  1356 ;;                             ___bmul (ARG)
  1357 ;;                            ___awdiv (ARG)
  1358 ;; ---------------------------------------------------------------------------------
  1359 ;; (5) ___ftpack                                             8     3      5     209
  1360 ;;                                              0 BANK1      8     3      5
  1361 ;; ---------------------------------------------------------------------------------
  1362 ;; (3) ___wmul                                               6     2      4      92
  1363 ;;                                              0 BANK1      6     2      4
  1364 ;; ---------------------------------------------------------------------------------
  1365 ;; (4) ___bmul                                               4     3      1      68
  1366 ;;                                             16 BANK1      4     3      1
  1367 ;;                            ___awmod (ARG)
  1368 ;;                            ___awdiv (ARG)
  1369 ;; ---------------------------------------------------------------------------------
  1370 ;; (3) __div_to_l_                                          20    14      6     446
  1371 ;;                                              0 BANK1     20    14      6
  1372 ;; ---------------------------------------------------------------------------------
  1373 ;; (3) __tdiv_to_l_                                         16    10      6     303
  1374 ;;                                              0 BANK1     16    10      6
  1375 ;; ---------------------------------------------------------------------------------
  1376 ;; (3) _isdigit                                              2     2      0      68
  1377 ;;                                              0 BANK1      2     2      0
  1378 ;; ---------------------------------------------------------------------------------
  1379 ;; (1) _Uart_Init                                            0     0      0       0
  1380 ;; ---------------------------------------------------------------------------------
  1381 ;; (1) _Beep_Init                                            0     0      0       0
  1382 ;; ---------------------------------------------------------------------------------
  1383 ;; (1) _KEY_Init                                             0     0      0       0
  1384 ;; ---------------------------------------------------------------------------------
  1385 ;; (3) _DELAY                                                2     2      0      46
  1386 ;;                                              0 BANK1      2     2      0
  1387 ;; ---------------------------------------------------------------------------------
  1388 ;; Estimated maximum stack depth 5
  1389 ;; ---------------------------------------------------------------------------------
  1390 ;; (Depth) Function   	        Calls       Base Space   Used Autos Params    Refs
  1391 ;; ---------------------------------------------------------------------------------
  1392 ;; (6) _uart_service                                         6     6      0    3920
  1393 ;;                                             39 BANK0      6     6      0
  1394 ;;                   _JY62_ReceiveData
  1395 ;; ---------------------------------------------------------------------------------
  1396 ;; (7) _JY62_ReceiveData                                     7     7      0    3897
  1397 ;;                                             32 BANK0      7     7      0
  1398 ;;                         i1___awtoft
  1399 ;;                            ___ftdiv
  1400 ;;                          i1___ftmul
  1401 ;; ---------------------------------------------------------------------------------
  1402 ;; (8) i1___awtoft                                           6     3      3     977
  1403 ;;                                              8 COMMON     6     3      3
  1404 ;;                         i1___ftpack
  1405 ;; ---------------------------------------------------------------------------------
  1406 ;; (8) i1___ftmul                                           16    10      6    1737
  1407 ;;                                             16 BANK0     16    10      6
  1408 ;;                         i1___ftpack
  1409 ;;                            ___ftdiv (ARG)
  1410 ;;                         i1___awtoft (ARG)
  1411 ;; ---------------------------------------------------------------------------------
  1412 ;; (8) ___ftdiv                                             16    10      6     959
  1413 ;;                                              0 BANK0     16    10      6
  1414 ;;                         i1___ftpack
  1415 ;;                         i1___awtoft (ARG)
  1416 ;; ---------------------------------------------------------------------------------
  1417 ;; (9) i1___ftpack                                           8     3      5     679
  1418 ;;                                              0 COMMON     8     3      5
  1419 ;; ---------------------------------------------------------------------------------
  1420 ;; Estimated maximum stack depth 9
  1421 ;; ---------------------------------------------------------------------------------
  1422                           
  1423 ;; Call Graph Graphs:
  1424                           
  1425 ;; _main (ROOT)
  1426 ;;   _Beep_Init
  1427 ;;   _LCD_Init
  1428 ;;     _DELAY
  1429 ;;     _ENABLE
  1430 ;;       _DELAY
  1431 ;;   _LCD_ShowString
  1432 ;;     _ENABLE
  1433 ;;       _DELAY
  1434 ;;     _ENABLE1
  1435 ;;       _DELAY
  1436 ;;     _DELAY
  1437 ;;   _LCD_Clear
  1438 ;;     _ENABLE
  1439 ;;       _DELAY
  1440 ;;     _DELAY
  1441 ;;   _KEY_Init
  1442 ;;   _Uart_Init
  1443 ;;   _JY62_ShowData
  1444 ;;     _LCD_ShowString
  1445 ;;       _ENABLE
  1446 ;;         _DELAY
  1447 ;;       _ENABLE1
  1448 ;;         _DELAY
  1449 ;;       _DELAY
  1450 ;;     _JY62_InfiniteYaw
  1451 ;;       ___fttol
  1452 ;;         ___ftpack (ARG)
  1453 ;;         ___awmod (ARG)
  1454 ;;         ___bmul (ARG)
  1455 ;;           ___awmod (ARG)
  1456 ;;           ___awdiv (ARG)
  1457 ;;             ___awmod (ARG)
  1458 ;;         ___awdiv (ARG)
  1459 ;;           ___awmod (ARG)
  1460 ;;       ___awmod
  1461 ;;       ___awtoft
  1462 ;;         ___ftpack
  1463 ;;         ___awmod (ARG)
  1464 ;;         ___fttol (ARG)
  1465 ;;           ___ftpack (ARG)
  1466 ;;           ___awmod (ARG)
  1467 ;;           ___bmul (ARG)
  1468 ;;             ___awmod (ARG)
  1469 ;;             ___awdiv (ARG)
  1470 ;;               ___awmod (ARG)
  1471 ;;           ___awdiv (ARG)
  1472 ;;             ___awmod (ARG)
  1473 ;;     ___fttol
  1474 ;;       ___ftpack (ARG)
  1475 ;;       ___awmod (ARG)
  1476 ;;       ___bmul (ARG)
  1477 ;;         ___awmod (ARG)
  1478 ;;         ___awdiv (ARG)
  1479 ;;           ___awmod (ARG)
  1480 ;;       ___awdiv (ARG)
  1481 ;;         ___awmod (ARG)
  1482 ;;     _sprintf
  1483 ;;       _isdigit
  1484 ;;       ___wmul
  1485 ;;       ___ftge
  1486 ;;       ___ftneg
  1487 ;;       ___awdiv
  1488 ;;         ___awmod (ARG)
  1489 ;;       _scale
  1490 ;;         ___awmod
  1491 ;;         ___bmul
  1492 ;;           ___awmod (ARG)
  1493 ;;           ___awdiv (ARG)
  1494 ;;             ___awmod (ARG)
  1495 ;;         ___awdiv
  1496 ;;           ___awmod (ARG)
  1497 ;;         ___ftmul
  1498 ;;           ___ftpack
  1499 ;;           ___fttol (ARG)
  1500 ;;             ___ftpack (ARG)
  1501 ;;             ___awmod (ARG)
  1502 ;;             ___bmul (ARG)
  1503 ;;               ___awmod (ARG)
  1504 ;;               ___awdiv (ARG)
  1505 ;;                 ___awmod (ARG)
  1506 ;;             ___awdiv (ARG)
  1507 ;;               ___awmod (ARG)
  1508 ;;           ___bmul (ARG)
  1509 ;;             ___awmod (ARG)
  1510 ;;             ___awdiv (ARG)
  1511 ;;               ___awmod (ARG)
  1512 ;;           ___awdiv (ARG)
  1513 ;;             ___awmod (ARG)
  1514 ;;           ___awmod (ARG)
  1515 ;;         ___fttol (ARG)
  1516 ;;           ___ftpack (ARG)
  1517 ;;           ___awmod (ARG)
  1518 ;;           ___bmul (ARG)
  1519 ;;             ___awmod (ARG)
  1520 ;;             ___awdiv (ARG)
  1521 ;;               ___awmod (ARG)
  1522 ;;           ___awdiv (ARG)
  1523 ;;             ___awmod (ARG)
  1524 ;;       ___ftmul
  1525 ;;         ___ftpack
  1526 ;;         ___fttol (ARG)
  1527 ;;           ___ftpack (ARG)
  1528 ;;           ___awmod (ARG)
  1529 ;;           ___bmul (ARG)
  1530 ;;             ___awmod (ARG)
  1531 ;;             ___awdiv (ARG)
  1532 ;;               ___awmod (ARG)
  1533 ;;           ___awdiv (ARG)
  1534 ;;             ___awmod (ARG)
  1535 ;;         ___bmul (ARG)
  1536 ;;           ___awmod (ARG)
  1537 ;;           ___awdiv (ARG)
  1538 ;;             ___awmod (ARG)
  1539 ;;         ___awdiv (ARG)
  1540 ;;           ___awmod (ARG)
  1541 ;;         ___awmod (ARG)
  1542 ;;       _fround
  1543 ;;         ___awmod
  1544 ;;         ___bmul
  1545 ;;           ___awmod (ARG)
  1546 ;;           ___awdiv (ARG)
  1547 ;;             ___awmod (ARG)
  1548 ;;         ___awdiv
  1549 ;;           ___awmod (ARG)
  1550 ;;         ___ftmul
  1551 ;;           ___ftpack
  1552 ;;           ___fttol (ARG)
  1553 ;;             ___ftpack (ARG)
  1554 ;;             ___awmod (ARG)
  1555 ;;             ___bmul (ARG)
  1556 ;;               ___awmod (ARG)
  1557 ;;               ___awdiv (ARG)
  1558 ;;                 ___awmod (ARG)
  1559 ;;             ___awdiv (ARG)
  1560 ;;               ___awmod (ARG)
  1561 ;;           ___bmul (ARG)
  1562 ;;             ___awmod (ARG)
  1563 ;;             ___awdiv (ARG)
  1564 ;;               ___awmod (ARG)
  1565 ;;           ___awdiv (ARG)
  1566 ;;             ___awmod (ARG)
  1567 ;;           ___awmod (ARG)
  1568 ;;         ___ftadd (ARG)
  1569 ;;           ___ftpack
  1570 ;;           ___awmod (ARG)
  1571 ;;           ___bmul (ARG)
  1572 ;;             ___awmod (ARG)
  1573 ;;             ___awdiv (ARG)
  1574 ;;               ___awmod (ARG)
  1575 ;;           ___awdiv (ARG)
  1576 ;;             ___awmod (ARG)
  1577 ;;           ___ftmul (ARG)
  1578 ;;             ___ftpack
  1579 ;;             ___fttol (ARG)
  1580 ;;               ___ftpack (ARG)
  1581 ;;               ___awmod (ARG)
  1582 ;;               ___bmul (ARG)
  1583 ;;                 ___awmod (ARG)
  1584 ;;                 ___awdiv (ARG)
  1585 ;;                   ___awmod (ARG)
  1586 ;;               ___awdiv (ARG)
  1587 ;;                 ___awmod (ARG)
  1588 ;;             ___bmul (ARG)
  1589 ;;               ___awmod (ARG)
  1590 ;;               ___awdiv (ARG)
  1591 ;;                 ___awmod (ARG)
  1592 ;;             ___awdiv (ARG)
  1593 ;;               ___awmod (ARG)
  1594 ;;             ___awmod (ARG)
  1595 ;;       ___ftadd
  1596 ;;         ___ftpack
  1597 ;;         ___awmod (ARG)
  1598 ;;         ___bmul (ARG)
  1599 ;;           ___awmod (ARG)
  1600 ;;           ___awdiv (ARG)
  1601 ;;             ___awmod (ARG)
  1602 ;;         ___awdiv (ARG)
  1603 ;;           ___awmod (ARG)
  1604 ;;         ___ftmul (ARG)
  1605 ;;           ___ftpack
  1606 ;;           ___fttol (ARG)
  1607 ;;             ___ftpack (ARG)
  1608 ;;             ___awmod (ARG)
  1609 ;;             ___bmul (ARG)
  1610 ;;               ___awmod (ARG)
  1611 ;;               ___awdiv (ARG)
  1612 ;;                 ___awmod (ARG)
  1613 ;;             ___awdiv (ARG)
  1614 ;;               ___awmod (ARG)
  1615 ;;           ___bmul (ARG)
  1616 ;;             ___awmod (ARG)
  1617 ;;             ___awdiv (ARG)
  1618 ;;               ___awmod (ARG)
  1619 ;;           ___awdiv (ARG)
  1620 ;;             ___awmod (ARG)
  1621 ;;           ___awmod (ARG)
  1622 ;;       ___fttol
  1623 ;;         ___ftpack (ARG)
  1624 ;;         ___awmod (ARG)
  1625 ;;         ___bmul (ARG)
  1626 ;;           ___awmod (ARG)
  1627 ;;           ___awdiv (ARG)
  1628 ;;             ___awmod (ARG)
  1629 ;;         ___awdiv (ARG)
  1630 ;;           ___awmod (ARG)
  1631 ;;       __div_to_l_
  1632 ;;       __tdiv_to_l_
  1633 ;;       ___lltoft
  1634 ;;         ___ftpack
  1635 ;;       ___ftsub
  1636 ;;         ___ftadd
  1637 ;;           ___ftpack
  1638 ;;           ___awmod (ARG)
  1639 ;;           ___bmul (ARG)
  1640 ;;             ___awmod (ARG)
  1641 ;;             ___awdiv (ARG)
  1642 ;;               ___awmod (ARG)
  1643 ;;           ___awdiv (ARG)
  1644 ;;             ___awmod (ARG)
  1645 ;;           ___ftmul (ARG)
  1646 ;;             ___ftpack
  1647 ;;             ___fttol (ARG)
  1648 ;;               ___ftpack (ARG)
  1649 ;;               ___awmod (ARG)
  1650 ;;               ___bmul (ARG)
  1651 ;;                 ___awmod (ARG)
  1652 ;;                 ___awdiv (ARG)
  1653 ;;                   ___awmod (ARG)
  1654 ;;               ___awdiv (ARG)
  1655 ;;                 ___awmod (ARG)
  1656 ;;             ___bmul (ARG)
  1657 ;;               ___awmod (ARG)
  1658 ;;               ___awdiv (ARG)
  1659 ;;                 ___awmod (ARG)
  1660 ;;             ___awdiv (ARG)
  1661 ;;               ___awmod (ARG)
  1662 ;;             ___awmod (ARG)
  1663 ;;         ___lltoft (ARG)
  1664 ;;           ___ftpack
  1665 ;;       ___lldiv
  1666 ;;       ___llmod
  1667 ;;         ___lldiv (ARG)
  1668 ;;
  1669 ;; _uart_service (ROOT)
  1670 ;;   _JY62_ReceiveData
  1671 ;;     i1___awtoft
  1672 ;;       i1___ftpack
  1673 ;;     ___ftdiv
  1674 ;;       i1___ftpack
  1675 ;;       i1___awtoft (ARG)
  1676 ;;         i1___ftpack
  1677 ;;     i1___ftmul
  1678 ;;       i1___ftpack
  1679 ;;       ___ftdiv (ARG)
  1680 ;;         i1___ftpack
  1681 ;;         i1___awtoft (ARG)
  1682 ;;           i1___ftpack
  1683 ;;       i1___awtoft (ARG)
  1684 ;;         i1___ftpack
  1685 ;;
  1686                           
  1687 ;; Address spaces:
  1688                           
  1689 ;;Name               Size   Autos  Total    Cost      Usage
  1690 ;;BANK3               60     3B      44       9       70.8%
  1691 ;;BITBANK3            60      0       0       8        0.0%
  1692 ;;SFR3                 0      0       0       4        0.0%
  1693 ;;BITSFR3              0      0       0       4        0.0%
  1694 ;;BANK2               60      0       0      11        0.0%
  1695 ;;BITBANK2            60      0       0      10        0.0%
  1696 ;;SFR2                 0      0       0       5        0.0%
  1697 ;;BITSFR2              0      0       0       5        0.0%
  1698 ;;SFR1                 0      0       0       2        0.0%
  1699 ;;BITSFR1              0      0       0       2        0.0%
  1700 ;;BANK1               50     50      50       7      100.0%
  1701 ;;BITBANK1            50      0       0       6        0.0%
  1702 ;;CODE                 0      0       0       0        0.0%
  1703 ;;DATA                 0      0      FB      12        0.0%
  1704 ;;ABS                  0      0      EE       3        0.0%
  1705 ;;NULL                 0      0       0       0        0.0%
  1706 ;;STACK                0      0       D       2        0.0%
  1707 ;;BANK0               50     2D      4C       5       95.0%
  1708 ;;BITBANK0            50      0       0       4        0.0%
  1709 ;;SFR0                 0      0       0       1        0.0%
  1710 ;;BITSFR0              0      0       0       1        0.0%
  1711 ;;COMMON               E      E       E       1      100.0%
  1712 ;;BITCOMMON            E      0       0       0        0.0%
  1713 ;;EEDATA             100      0       0       0        0.0%
  1714                           
  1715                           	global	_main
  1716                           psect	maintext,global,class=CODE,delta=2
  1717                           global __pmaintext
  1718  1B95                     __pmaintext:
  1719                           
  1720 ;; *************** function _main *****************
  1721 ;; Defined at:
  1722 ;;		line 11 in file "E:\MPLAB_IDE\JY62\main.c"
  1723 ;; Parameters:    Size  Location     Type
  1724 ;;		None
  1725 ;; Auto vars:     Size  Location     Type
  1726 ;;		None
  1727 ;; Return value:  Size  Location     Type
  1728 ;;		None               void
  1729 ;; Registers used:
  1730 ;;		wreg, fsr0l, fsr0h, status,2, status,0, btemp+1, pclath, cstack
  1731 ;; Tracked objects:
  1732 ;;		On entry : 17F/0
  1733 ;;		On exit  : 0/0
  1734 ;;		Unchanged: 0/0
  1735 ;; Data sizes:     COMMON   BANK0   BANK1   BANK3   BANK2
  1736 ;;      Params:         0       0       0       0       0
  1737 ;;      Locals:         0       0       0       0       0
  1738 ;;      Temps:          0       0       0       0       0
  1739 ;;      Totals:         0       0       0       0       0
  1740 ;;Total ram usage:        0 bytes
  1741 ;; Hardware stack levels required when called:    9
  1742 ;; This function calls:
  1743 ;;		_Beep_Init
  1744 ;;		_LCD_Init
  1745 ;;		_LCD_ShowString
  1746 ;;		_LCD_Clear
  1747 ;;		_KEY_Init
  1748 ;;		_Uart_Init
  1749 ;;		_JY62_ShowData
  1750 ;; This function is called by:
  1751 ;;		Startup code after reset
  1752 ;; This function uses a non-reentrant model
  1753 ;;
  1754                           psect	maintext
  1755                           	file	"E:\MPLAB_IDE\JY62\main.c"
  1756                           	line	11
  1757                           	global	__size_of_main
  1758  0059                     	__size_of_main	equ	__end_of_main-_main
  1759                           	
  1760  1B95                     _main:	
  1761 ;; hardware stack exceeded
  1762                           	opt	stack 0
  1763                           ; Regs used in _main: [wreg-fsr0h+status,2+status,0+btemp+1+pclath+cstack]
  1764                           	line	12
  1765                           	
  1766  1B95                     l10138:	
  1767                           ;main.c: 12: Beep_Init();
  1768  1B95  160A  158A  2184   	fcall	_Beep_Init
              160A  158A         
  1769                           	line	13
  1770                           	
  1771  1B9A                     l10140:	
  1772                           ;main.c: 13: LCD_Init();
  1773  1B9A  160A  158A  2355   	fcall	_LCD_Init
              160A  158A         
  1774                           	line	14
  1775                           	
  1776  1B9F                     l10142:	
  1777                           ;main.c: 14: LCD_ShowString("1001", 0, 0);
  1778  1B9F  3097               	movlw	low((STR_2-__stringbase))
  1779  1BA0  1683               	bsf	status, 5	;RP0=1, select bank1
  1780  1BA1  1303               	bcf	status, 6	;RP1=0, select bank1
  1781  1BA2  00A2               	movwf	(?_LCD_ShowString)^080h
  1782  1BA3  3080               	movlw	80h
  1783  1BA4  00A3               	movwf	(?_LCD_ShowString+1)^080h
  1784  1BA5  01A4               	clrf	0+(?_LCD_ShowString)^080h+02h
  1785  1BA6  01A5               	clrf	0+(?_LCD_ShowString)^080h+03h
  1786  1BA7  160A  158A  23EE   	fcall	_LCD_ShowString
              160A  158A         
  1787                           	line	15
  1788                           	
  1789  1BAC                     l10144:	
  1790                           ;main.c: 15: LCD_ShowString("Hello World!\n", 1, 0);
  1791  1BAC  3077               	movlw	low((STR_3-__stringbase))
  1792  1BAD  1683               	bsf	status, 5	;RP0=1, select bank1
  1793  1BAE  1303               	bcf	status, 6	;RP1=0, select bank1
  1794  1BAF  00A2               	movwf	(?_LCD_ShowString)^080h
  1795  1BB0  3080               	movlw	80h
  1796  1BB1  00A3               	movwf	(?_LCD_ShowString+1)^080h
  1797  1BB2  01A4               	clrf	0+(?_LCD_ShowString)^080h+02h
  1798  1BB3  1403               	bsf	status,0
  1799  1BB4  0DA4               	rlf	0+(?_LCD_ShowString)^080h+02h,f
  1800  1BB5  01A5               	clrf	0+(?_LCD_ShowString)^080h+03h
  1801  1BB6  160A  158A  23EE   	fcall	_LCD_ShowString
              160A  158A         
  1802                           	line	16
  1803                           	
  1804  1BBB                     l10146:	
  1805                           ;main.c: 16: LCD_Clear();
  1806  1BBB  160A  158A  21BD   	fcall	_LCD_Clear
              160A  158A         
  1807                           	line	17
  1808                           	
  1809  1BC0                     l10148:	
  1810                           ;main.c: 17: KEY_Init();
  1811  1BC0  160A  158A  217E   	fcall	_KEY_Init
              160A  158A         
  1812                           	line	18
  1813                           	
  1814  1BC5                     l10150:	
  1815                           ;main.c: 18: Uart_Init();
  1816  1BC5  160A  158A  21EF   	fcall	_Uart_Init
              160A  158A         
  1817                           	line	20
  1818                           	
  1819  1BCA                     l10152:	
  1820                           ;main.c: 20: LCD_Init();
  1821  1BCA  160A  158A  2355   	fcall	_LCD_Init
              160A  158A         
  1822  1BCF  2BD0               	goto	l10154
  1823                           	line	21
  1824                           ;main.c: 21: while(1) {
  1825                           	
  1826  1BD0                     l2162:	
  1827                           	line	23
  1828                           	
  1829  1BD0                     l10154:	
  1830                           ;main.c: 23: JY62_ShowData(Roll,Pitch,Yaw);
  1831  1BD0  1683               	bsf	status, 5	;RP0=1, select bank3
  1832  1BD1  1703               	bsf	status, 6	;RP1=1, select bank3
  1833  1BD2  084E               	movf	(_Roll)^0180h,w
  1834  1BD3  00B3               	movwf	(?_JY62_ShowData)^0180h
  1835  1BD4  084F               	movf	(_Roll+1)^0180h,w
  1836  1BD5  00B4               	movwf	(?_JY62_ShowData+1)^0180h
  1837  1BD6  0850               	movf	(_Roll+2)^0180h,w
  1838  1BD7  00B5               	movwf	(?_JY62_ShowData+2)^0180h
  1839  1BD8  084B               	movf	(_Pitch)^0180h,w
  1840  1BD9  00B6               	movwf	0+(?_JY62_ShowData)^0180h+03h
  1841  1BDA  084C               	movf	(_Pitch+1)^0180h,w
  1842  1BDB  00B7               	movwf	1+(?_JY62_ShowData)^0180h+03h
  1843  1BDC  084D               	movf	(_Pitch+2)^0180h,w
  1844  1BDD  00B8               	movwf	2+(?_JY62_ShowData)^0180h+03h
  1845  1BDE  0851               	movf	(_Yaw)^0180h,w
  1846  1BDF  00B9               	movwf	0+(?_JY62_ShowData)^0180h+06h
  1847  1BE0  0852               	movf	(_Yaw+1)^0180h,w
  1848  1BE1  00BA               	movwf	1+(?_JY62_ShowData)^0180h+06h
  1849  1BE2  0853               	movf	(_Yaw+2)^0180h,w
  1850  1BE3  00BB               	movwf	2+(?_JY62_ShowData)^0180h+06h
  1851  1BE4  160A  118A  20FE   	fcall	_JY62_ShowData
              160A  158A         
  1852  1BE9  2BD0               	goto	l10154
  1853                           	line	25
  1854                           	
  1855  1BEA                     l2163:	
  1856                           	line	21
  1857  1BEA  2BD0               	goto	l10154
  1858                           	
  1859  1BEB                     l2164:	
  1860                           	line	26
  1861                           	
  1862  1BEB                     l2165:	
  1863                           	global	start
  1864  1BEB  120A  118A  2812   	ljmp	start
  1865                           	opt stack 0
  1866                           GLOBAL	__end_of_main
  1867  1BEE                     	__end_of_main:
  1868 ;; =============== function _main ends ============
  1869                           
  1870                           	signat	_main,88
  1871                           	global	_JY62_ShowData
  1872                           psect	text930,local,class=CODE,delta=2
  1873                           global __ptext930
  1874  10FE                     __ptext930:
  1875                           
  1876 ;; *************** function _JY62_ShowData *****************
  1877 ;; Defined at:
  1878 ;;		line 105 in file "E:\MPLAB_IDE\JY62\JY62.c"
  1879 ;; Parameters:    Size  Location     Type
  1880 ;;  roll            3   35[BANK3 ] float 
  1881 ;;  pitch           3   38[BANK3 ] float 
  1882 ;;  yaw             3   41[BANK3 ] float 
  1883 ;; Auto vars:     Size  Location     Type
  1884 ;;  str            11   44[BANK3 ] unsigned char [11]
  1885 ;;  infinite_yaw    2   55[BANK3 ] unsigned int 
  1886 ;; Return value:  Size  Location     Type
  1887 ;;		None               void
  1888 ;; Registers used:
  1889 ;;		wreg, fsr0l, fsr0h, status,2, status,0, btemp+1, pclath, cstack
  1890 ;; Tracked objects:
  1891 ;;		On entry : 0/0
  1892 ;;		On exit  : 0/0
  1893 ;;		Unchanged: 0/0
  1894 ;; Data sizes:     COMMON   BANK0   BANK1   BANK3   BANK2
  1895 ;;      Params:         0       0       0       9       0
  1896 ;;      Locals:         0       0       0      15       0
  1897 ;;      Temps:          0       0       1       0       0
  1898 ;;      Totals:         0       0       1      24       0
  1899 ;;Total ram usage:       25 bytes
  1900 ;; Hardware stack levels used:    1
  1901 ;; Hardware stack levels required when called:    8
  1902 ;; This function calls:
  1903 ;;		_LCD_ShowString
  1904 ;;		_JY62_InfiniteYaw
  1905 ;;		___fttol
  1906 ;;		_sprintf
  1907 ;; This function is called by:
  1908 ;;		_main
  1909 ;; This function uses a non-reentrant model
  1910 ;;
  1911                           psect	text930
  1912                           	file	"E:\MPLAB_IDE\JY62\JY62.c"
  1913                           	line	105
  1914                           	global	__size_of_JY62_ShowData
  1915  00BE                     	__size_of_JY62_ShowData	equ	__end_of_JY62_ShowData-_JY62_ShowData
  1916                           	
  1917  10FE                     _JY62_ShowData:	
  1918 ;; hardware stack exceeded
  1919                           	opt	stack 0
  1920                           ; Regs used in _JY62_ShowData: [wreg-fsr0h+status,2+status,0+btemp+1+pclath+cstack]
  1921                           	line	109
  1922                           	
  1923  10FE                     l10128:	
  1924                           ;JY62.c: 106: unsigned char str[11];
  1925                           ;JY62.c: 109: LCD_ShowString("Pitch:", 0, 0);
  1926  10FE  3085               	movlw	low((STR_4-__stringbase))
  1927  10FF  1683               	bsf	status, 5	;RP0=1, select bank1
  1928  1100  1303               	bcf	status, 6	;RP1=0, select bank1
  1929  1101  00A2               	movwf	(?_LCD_ShowString)^080h
  1930  1102  3080               	movlw	80h
  1931  1103  00A3               	movwf	(?_LCD_ShowString+1)^080h
  1932  1104  01A4               	clrf	0+(?_LCD_ShowString)^080h+02h
  1933  1105  01A5               	clrf	0+(?_LCD_ShowString)^080h+03h
  1934  1106  160A  158A  23EE   	fcall	_LCD_ShowString
              160A  118A         
  1935                           	line	110
  1936                           ;JY62.c: 110: LCD_ShowString("Yaw:", 1, 0);
  1937  110B  3092               	movlw	low((STR_5-__stringbase))
  1938  110C  1683               	bsf	status, 5	;RP0=1, select bank1
  1939  110D  1303               	bcf	status, 6	;RP1=0, select bank1
  1940  110E  00A2               	movwf	(?_LCD_ShowString)^080h
  1941  110F  3080               	movlw	80h
  1942  1110  00A3               	movwf	(?_LCD_ShowString+1)^080h
  1943  1111  01A4               	clrf	0+(?_LCD_ShowString)^080h+02h
  1944  1112  1403               	bsf	status,0
  1945  1113  0DA4               	rlf	0+(?_LCD_ShowString)^080h+02h,f
  1946  1114  01A5               	clrf	0+(?_LCD_ShowString)^080h+03h
  1947  1115  160A  158A  23EE   	fcall	_LCD_ShowString
              160A  118A         
  1948                           	line	112
  1949                           	
  1950  111A                     l10130:	
  1951                           ;JY62.c: 112: uint16_t infinite_yaw = JY62_InfiniteYaw(yaw);
  1952  111A  1683               	bsf	status, 5	;RP0=1, select bank3
  1953  111B  1703               	bsf	status, 6	;RP1=1, select bank3
  1954  111C  0839               	movf	(JY62_ShowData@yaw)^0180h,w
  1955  111D  1683               	bsf	status, 5	;RP0=1, select bank1
  1956  111E  1303               	bcf	status, 6	;RP1=0, select bank1
  1957  111F  00C8               	movwf	(?_JY62_InfiniteYaw)^080h
  1958  1120  1683               	bsf	status, 5	;RP0=1, select bank3
  1959  1121  1703               	bsf	status, 6	;RP1=1, select bank3
  1960  1122  083A               	movf	(JY62_ShowData@yaw+1)^0180h,w
  1961  1123  1683               	bsf	status, 5	;RP0=1, select bank1
  1962  1124  1303               	bcf	status, 6	;RP1=0, select bank1
  1963  1125  00C9               	movwf	(?_JY62_InfiniteYaw+1)^080h
  1964  1126  1683               	bsf	status, 5	;RP0=1, select bank3
  1965  1127  1703               	bsf	status, 6	;RP1=1, select bank3
  1966  1128  083B               	movf	(JY62_ShowData@yaw+2)^0180h,w
  1967  1129  1683               	bsf	status, 5	;RP0=1, select bank1
  1968  112A  1303               	bcf	status, 6	;RP1=0, select bank1
  1969  112B  00CA               	movwf	(?_JY62_InfiniteYaw+2)^080h
  1970  112C  160A  118A  20B1   	fcall	_JY62_InfiniteYaw
              160A  118A         
  1971  1131  1683               	bsf	status, 5	;RP0=1, select bank1
  1972  1132  1303               	bcf	status, 6	;RP1=0, select bank1
  1973  1133  0848               	movf	(0+(?_JY62_InfiniteYaw))^080h,w
  1974  1134  00B4               	movwf	(?___fttol)^080h
  1975  1135  0849               	movf	(1+(?_JY62_InfiniteYaw))^080h,w
  1976  1136  00B5               	movwf	(?___fttol+1)^080h
  1977  1137  084A               	movf	(2+(?_JY62_InfiniteYaw))^080h,w
  1978  1138  00B6               	movwf	(?___fttol+2)^080h
  1979  1139  160A  158A  275A   	fcall	___fttol
              160A  118A         
  1980  113E  1683               	bsf	status, 5	;RP0=1, select bank1
  1981  113F  1303               	bcf	status, 6	;RP1=0, select bank1
  1982  1140  0835               	movf	1+(((0+(?___fttol))^080h)),w
  1983  1141  1683               	bsf	status, 5	;RP0=1, select bank3
  1984  1142  1703               	bsf	status, 6	;RP1=1, select bank3
  1985  1143  01C8               	clrf	(JY62_ShowData@infinite_yaw+1)^0180h
  1986  1144  07C8               	addwf	(JY62_ShowData@infinite_yaw+1)^0180h
  1987  1145  1683               	bsf	status, 5	;RP0=1, select bank1
  1988  1146  1303               	bcf	status, 6	;RP1=0, select bank1
  1989  1147  0834               	movf	0+(((0+(?___fttol))^080h)),w
  1990  1148  1683               	bsf	status, 5	;RP0=1, select bank3
  1991  1149  1703               	bsf	status, 6	;RP1=1, select bank3
  1992  114A  01C7               	clrf	(JY62_ShowData@infinite_yaw)^0180h
  1993  114B  07C7               	addwf	(JY62_ShowData@infinite_yaw)^0180h
  1994                           
  1995                           	line	113
  1996                           	
  1997  114C                     l10132:	
  1998                           ;JY62.c: 113: sprintf(str, "%3d",infinite_yaw);
  1999  114C  309C               	movlw	((STR_6-__stringbase))&0ffh
  2000  114D  1683               	bsf	status, 5	;RP0=1, select bank1
  2001  114E  1303               	bcf	status, 6	;RP1=0, select bank1
  2002  114F  00EF               	movwf	(??_JY62_ShowData+0)^080h+0
  2003  1150  086F               	movf	(??_JY62_ShowData+0)^080h+0,w
  2004  1151  1683               	bsf	status, 5	;RP0=1, select bank3
  2005  1152  1703               	bsf	status, 6	;RP1=1, select bank3
  2006  1153  0090               	movwf	(?_sprintf)^0180h
  2007  1154  0848               	movf	(JY62_ShowData@infinite_yaw+1)^0180h,w
  2008  1155  0192               	clrf	1+(?_sprintf)^0180h+01h
  2009  1156  0792               	addwf	1+(?_sprintf)^0180h+01h
  2010  1157  0847               	movf	(JY62_ShowData@infinite_yaw)^0180h,w
  2011  1158  0191               	clrf	0+(?_sprintf)^0180h+01h
  2012  1159  0791               	addwf	0+(?_sprintf)^0180h+01h
  2013                           
  2014  115A  30BC               	movlw	(JY62_ShowData@str)&0ffh
  2015  115B  120A  118A  26E3   	fcall	_sprintf
              160A  118A         
  2016                           	line	114
  2017                           	
  2018  1160                     l10134:	
  2019                           ;JY62.c: 114: LCD_ShowString(str, 1, 4);
  2020  1160  30BC               	movlw	(JY62_ShowData@str&0ffh)
  2021  1161  1683               	bsf	status, 5	;RP0=1, select bank1
  2022  1162  1303               	bcf	status, 6	;RP1=0, select bank1
  2023  1163  00A2               	movwf	(?_LCD_ShowString)^080h
  2024  1164  3001               	movlw	(0x3/2)
  2025  1165  00A3               	movwf	(?_LCD_ShowString+1)^080h
  2026  1166  01A4               	clrf	0+(?_LCD_ShowString)^080h+02h
  2027  1167  1403               	bsf	status,0
  2028  1168  0DA4               	rlf	0+(?_LCD_ShowString)^080h+02h,f
  2029  1169  3004               	movlw	(04h)
  2030  116A  00EF               	movwf	(??_JY62_ShowData+0)^080h+0
  2031  116B  086F               	movf	(??_JY62_ShowData+0)^080h+0,w
  2032  116C  00A5               	movwf	0+(?_LCD_ShowString)^080h+03h
  2033  116D  160A  158A  23EE   	fcall	_LCD_ShowString
              160A  118A         
  2034                           	line	116
  2035                           	
  2036  1172                     l10136:	
  2037                           ;JY62.c: 116: sprintf(str, "%3d",(uint16_t)pitch);
  2038  1172  1683               	bsf	status, 5	;RP0=1, select bank3
  2039  1173  1703               	bsf	status, 6	;RP1=1, select bank3
  2040  1174  0836               	movf	(JY62_ShowData@pitch)^0180h,w
  2041  1175  1683               	bsf	status, 5	;RP0=1, select bank1
  2042  1176  1303               	bcf	status, 6	;RP1=0, select bank1
  2043  1177  00B4               	movwf	(?___fttol)^080h
  2044  1178  1683               	bsf	status, 5	;RP0=1, select bank3
  2045  1179  1703               	bsf	status, 6	;RP1=1, select bank3
  2046  117A  0837               	movf	(JY62_ShowData@pitch+1)^0180h,w
  2047  117B  1683               	bsf	status, 5	;RP0=1, select bank1
  2048  117C  1303               	bcf	status, 6	;RP1=0, select bank1
  2049  117D  00B5               	movwf	(?___fttol+1)^080h
  2050  117E  1683               	bsf	status, 5	;RP0=1, select bank3
  2051  117F  1703               	bsf	status, 6	;RP1=1, select bank3
  2052  1180  0838               	movf	(JY62_ShowData@pitch+2)^0180h,w
  2053  1181  1683               	bsf	status, 5	;RP0=1, select bank1
  2054  1182  1303               	bcf	status, 6	;RP1=0, select bank1
  2055  1183  00B6               	movwf	(?___fttol+2)^080h
  2056  1184  160A  158A  275A   	fcall	___fttol
              160A  118A         
  2057  1189  1683               	bsf	status, 5	;RP0=1, select bank1
  2058  118A  1303               	bcf	status, 6	;RP1=0, select bank1
  2059  118B  0835               	movf	1+(((0+(?___fttol))^080h)),w
  2060  118C  1683               	bsf	status, 5	;RP0=1, select bank3
  2061  118D  1703               	bsf	status, 6	;RP1=1, select bank3
  2062  118E  01CA               	clrf	(_JY62_ShowData$6334+1)^0180h
  2063  118F  07CA               	addwf	(_JY62_ShowData$6334+1)^0180h
  2064  1190  1683               	bsf	status, 5	;RP0=1, select bank1
  2065  1191  1303               	bcf	status, 6	;RP1=0, select bank1
  2066  1192  0834               	movf	0+(((0+(?___fttol))^080h)),w
  2067  1193  1683               	bsf	status, 5	;RP0=1, select bank3
  2068  1194  1703               	bsf	status, 6	;RP1=1, select bank3
  2069  1195  01C9               	clrf	(_JY62_ShowData$6334)^0180h
  2070  1196  07C9               	addwf	(_JY62_ShowData$6334)^0180h
  2071                           
  2072                           ;JY62.c: 116: sprintf(str, "%3d",(uint16_t)pitch);
  2073  1197  309C               	movlw	((STR_7-__stringbase))&0ffh
  2074  1198  1683               	bsf	status, 5	;RP0=1, select bank1
  2075  1199  1303               	bcf	status, 6	;RP1=0, select bank1
  2076  119A  00EF               	movwf	(??_JY62_ShowData+0)^080h+0
  2077  119B  086F               	movf	(??_JY62_ShowData+0)^080h+0,w
  2078  119C  1683               	bsf	status, 5	;RP0=1, select bank3
  2079  119D  1703               	bsf	status, 6	;RP1=1, select bank3
  2080  119E  0090               	movwf	(?_sprintf)^0180h
  2081  119F  084A               	movf	(_JY62_ShowData$6334+1)^0180h,w
  2082  11A0  0192               	clrf	1+(?_sprintf)^0180h+01h
  2083  11A1  0792               	addwf	1+(?_sprintf)^0180h+01h
  2084  11A2  0849               	movf	(_JY62_ShowData$6334)^0180h,w
  2085  11A3  0191               	clrf	0+(?_sprintf)^0180h+01h
  2086  11A4  0791               	addwf	0+(?_sprintf)^0180h+01h
  2087                           
  2088  11A5  30BC               	movlw	(JY62_ShowData@str)&0ffh
  2089  11A6  120A  118A  26E3   	fcall	_sprintf
              160A  118A         
  2090                           	line	117
  2091                           ;JY62.c: 117: LCD_ShowString(str, 0, 6);
  2092  11AB  30BC               	movlw	(JY62_ShowData@str&0ffh)
  2093  11AC  1683               	bsf	status, 5	;RP0=1, select bank1
  2094  11AD  1303               	bcf	status, 6	;RP1=0, select bank1
  2095  11AE  00A2               	movwf	(?_LCD_ShowString)^080h
  2096  11AF  3001               	movlw	(0x3/2)
  2097  11B0  00A3               	movwf	(?_LCD_ShowString+1)^080h
  2098  11B1  01A4               	clrf	0+(?_LCD_ShowString)^080h+02h
  2099  11B2  3006               	movlw	(06h)
  2100  11B3  00EF               	movwf	(??_JY62_ShowData+0)^080h+0
  2101  11B4  086F               	movf	(??_JY62_ShowData+0)^080h+0,w
  2102  11B5  00A5               	movwf	0+(?_LCD_ShowString)^080h+03h
  2103  11B6  160A  158A  23EE   	fcall	_LCD_ShowString
              160A  118A         
  2104                           	line	121
  2105                           	
  2106  11BB                     l2892:	
  2107  11BB  0008               	return
  2108                           	opt stack 0
  2109                           GLOBAL	__end_of_JY62_ShowData
  2110  11BC                     	__end_of_JY62_ShowData:
  2111 ;; =============== function _JY62_ShowData ends ============
  2112                           
  2113                           	signat	_JY62_ShowData,12408
  2114                           	global	_sprintf
  2115                           psect	text931,local,class=CODE,delta=2
  2116                           global __ptext931
  2117  06E3                     __ptext931:
  2118                           
  2119 ;; *************** function _sprintf *****************
  2120 ;; Defined at:
  2121 ;;		line 488 in file "C:\Program Files (x86)\HI-TECH Software\PICC\9.82\lib\doprnt.c"
  2122 ;; Parameters:    Size  Location     Type
  2123 ;;  sp              1    wreg     PTR unsigned char 
  2124 ;;		 -> JY62_ShowData@str(11), floatToStr@charbuf(10), 
  2125 ;;  f               1    0[BANK3 ] PTR const unsigned char 
  2126 ;;		 -> STR_7(4), STR_6(4), STR_1(6), 
  2127 ;; Auto vars:     Size  Location     Type
  2128 ;;  sp              1   33[BANK3 ] PTR unsigned char 
  2129 ;;		 -> JY62_ShowData@str(11), floatToStr@charbuf(10), 
  2130 ;;  _val            4   18[BANK3 ] struct .
  2131 ;;  fval            3   28[BANK3 ] struct .
  2132 ;;  integ           3   15[BANK3 ] struct .
  2133 ;;  ival            3    0        struct .
  2134 ;;  prec            2   31[BANK3 ] int 
  2135 ;;  width           2   26[BANK3 ] int 
  2136 ;;  exp             2   24[BANK3 ] int 
  2137 ;;  flag            2   22[BANK3 ] unsigned short 
  2138 ;;  c               1   34[BANK3 ] char 
  2139 ;;  ap              1   14[BANK3 ] PTR void [1]
  2140 ;;		 -> ?_sprintf(2), 
  2141 ;;  d               1    0        unsigned char 
  2142 ;; Return value:  Size  Location     Type
  2143 ;;                  2    0[BANK3 ] int 
  2144 ;; Registers used:
  2145 ;;		wreg, fsr0l, fsr0h, status,2, status,0, btemp+1, pclath, cstack
  2146 ;; Tracked objects:
  2147 ;;		On entry : 0/0
  2148 ;;		On exit  : 0/0
  2149 ;;		Unchanged: 0/0
  2150 ;; Data sizes:     COMMON   BANK0   BANK1   BANK3   BANK2
  2151 ;;      Params:         0       0       0       4       0
  2152 ;;      Locals:         0       0       0      25       0
  2153 ;;      Temps:          0       0       0       6       0
  2154 ;;      Totals:         0       0       0      35       0
  2155 ;;Total ram usage:       35 bytes
  2156 ;; Hardware stack levels used:    1
  2157 ;; Hardware stack levels required when called:    7
  2158 ;; This function calls:
  2159 ;;		_isdigit
  2160 ;;		___wmul
  2161 ;;		___ftge
  2162 ;;		___ftneg
  2163 ;;		___awdiv
  2164 ;;		_scale
  2165 ;;		___ftmul
  2166 ;;		_fround
  2167 ;;		___ftadd
  2168 ;;		___fttol
  2169 ;;		__div_to_l_
  2170 ;;		__tdiv_to_l_
  2171 ;;		___lltoft
  2172 ;;		___ftsub
  2173 ;;		___lldiv
  2174 ;;		___llmod
  2175 ;; This function is called by:
  2176 ;;		_JY62_ShowData
  2177 ;;		_floatToStr
  2178 ;; This function uses a non-reentrant model
  2179 ;;
  2180                           psect	text931
  2181                           	file	"C:\Program Files (x86)\HI-TECH Software\PICC\9.82\sources\doprnt.c"
  2182                           	line	488
  2183                           	global	__size_of_sprintf
  2184  0000                     	__size_of_sprintf	equ	__end_of_sprintf-_sprintf
  2185                           	
  2186  06E3                     _sprintf:	
  2187 ;; hardware stack exceeded
  2188                           	opt	stack 0
  2189                           ; Regs used in _sprintf: [wreg-fsr0h+status,2+status,0+btemp+1+pclath+cstack]
  2190                           ;sprintf@sp stored from wreg
  2191                           	line	537
  2192  06E3  1683               	bsf	status, 5	;RP0=1, select bank3
  2193  06E4  1703               	bsf	status, 6	;RP1=1, select bank3
  2194  06E5  00B1               	movwf	(sprintf@sp)^0180h
  2195                           	
  2196  06E6                     l9814:	
  2197  06E6  3091               	movlw	(?_sprintf+01h)&0ffh
  2198  06E7  0094               	movwf	(??_sprintf+0)^0180h+0
  2199  06E8  0814               	movf	(??_sprintf+0)^0180h+0,w
  2200  06E9  009E               	movwf	(sprintf@ap)^0180h
  2201                           	line	540
  2202  06EA  120A  118A  2EC7   	goto	l10122
  2203                           	
  2204  06ED                     l4298:	
  2205                           	line	542
  2206                           	
  2207  06ED                     l9816:	
  2208  06ED  0832               	movf	(sprintf@c)^0180h,w
  2209  06EE  3A25               	xorlw	025h
  2210  06EF  1903               	skipnz
  2211  06F0  2EF2               	goto	u5931
  2212  06F1  2EF3               	goto	u5930
  2213  06F2                     u5931:
  2214  06F2  2EFF               	goto	l9822
  2215  06F3                     u5930:
  2216                           	line	545
  2217                           	
  2218  06F3                     l9818:	
  2219  06F3  0832               	movf	(sprintf@c)^0180h,w
  2220  06F4  0094               	movwf	(??_sprintf+0)^0180h+0
  2221  06F5  0831               	movf	(sprintf@sp)^0180h,w
  2222  06F6  0084               	movwf	fsr0
  2223  06F7  0814               	movf	(??_sprintf+0)^0180h+0,w
  2224  06F8  1783               	bsf	status, 7	;select IRP bank2
  2225  06F9  0080               	movwf	indf
  2226                           	
  2227  06FA                     l9820:	
  2228  06FA  3001               	movlw	(01h)
  2229  06FB  0094               	movwf	(??_sprintf+0)^0180h+0
  2230  06FC  0814               	movf	(??_sprintf+0)^0180h+0,w
  2231  06FD  07B1               	addwf	(sprintf@sp)^0180h,f
  2232                           	line	546
  2233  06FE  2EEA               	goto	l10122
  2234                           	line	547
  2235                           	
  2236  06FF                     l4299:	
  2237                           	line	550
  2238                           	
  2239  06FF                     l9822:	
  2240  06FF  01AA               	clrf	(sprintf@width)^0180h
  2241  0700  01AB               	clrf	(sprintf@width+1)^0180h
  2242                           	line	552
  2243  0701  01A6               	clrf	(sprintf@flag)^0180h
  2244  0702  01A7               	clrf	(sprintf@flag+1)^0180h
  2245  0703  2F0C               	goto	l9828
  2246                           	line	554
  2247                           	
  2248  0704                     l4300:	
  2249                           	line	555
  2250  0704  2F0C               	goto	l9828
  2251                           	line	583
  2252                           	
  2253  0705                     l4302:	
  2254                           	line	584
  2255  0705  1526               	bsf	(sprintf@flag)^0180h+(2/8),(2)&7
  2256                           	line	585
  2257                           	
  2258  0706                     l9824:	
  2259  0706  3001               	movlw	(01h)
  2260  0707  0094               	movwf	(??_sprintf+0)^0180h+0
  2261  0708  0814               	movf	(??_sprintf+0)^0180h+0,w
  2262  0709  0790               	addwf	(sprintf@f)^0180h,f
  2263                           	line	586
  2264  070A  2F0C               	goto	l9828
  2265                           	line	588
  2266                           	
  2267  070B                     l9826:	
  2268  070B  2F19               	goto	l9830
  2269                           	line	555
  2270                           	
  2271  070C                     l4301:	
  2272                           	
  2273  070C                     l9828:	
  2274  070C  0810               	movf	(sprintf@f)^0180h,w
  2275  070D  0084               	movwf	fsr0
  2276  070E  160A  118A  200A   	fcall	stringdir
              120A  118A         
  2277                           	; Switch size 1, requested type "space"
  2278                           ; Number of cases is 1, Range of values is 48 to 48
  2279                           ; switch strategies available:
  2280                           ; Name         Instructions Cycles
  2281                           ; simple_byte            4     3 (average)
  2282                           ; direct_byte           14    11 (fixed)
  2283                           ; jumptable            263     9 (fixed)
  2284                           ;	Chosen strategy is simple_byte
  2285                           
  2286                           	opt asmopt_off
  2287  0713  3A30               	xorlw	48^0	; case 48
  2288  0714  1903               	skipnz
  2289  0715  2F05               	goto	l4302
  2290  0716  2F19               	goto	l9830
  2291                           	opt asmopt_on
  2292                           
  2293                           	line	588
  2294                           	
  2295  0717                     l4304:	
  2296                           	line	589
  2297  0717  2F19               	goto	l9830
  2298                           	line	590
  2299                           	
  2300  0718                     l4303:	
  2301  0718  2F0C               	goto	l9828
  2302                           	
  2303  0719                     l4305:	
  2304                           	line	601
  2305                           	
  2306  0719                     l9830:	
  2307  0719  0810               	movf	(sprintf@f)^0180h,w
  2308  071A  0084               	movwf	fsr0
  2309  071B  160A  118A  200A   	fcall	stringdir
              120A  118A         
  2310  0720  120A  118A  27E8   	fcall	_isdigit
              120A  118A         
  2311  0725  1C03               	btfss	status,0
  2312  0726  2F28               	goto	u5941
  2313  0727  2F29               	goto	u5940
  2314  0728                     u5941:
  2315  0728  2F7B               	goto	l9840
  2316  0729                     u5940:
  2317                           	line	602
  2318                           	
  2319  0729                     l9832:	
  2320  0729  1683               	bsf	status, 5	;RP0=1, select bank3
  2321  072A  1703               	bsf	status, 6	;RP1=1, select bank3
  2322  072B  01AA               	clrf	(sprintf@width)^0180h
  2323  072C  01AB               	clrf	(sprintf@width+1)^0180h
  2324  072D  2F2E               	goto	l9834
  2325                           	line	603
  2326                           	
  2327  072E                     l4307:	
  2328                           	line	604
  2329                           	
  2330  072E                     l9834:	
  2331  072E  1683               	bsf	status, 5	;RP0=1, select bank3
  2332  072F  1703               	bsf	status, 6	;RP1=1, select bank3
  2333  0730  082B               	movf	(sprintf@width+1)^0180h,w
  2334  0731  1683               	bsf	status, 5	;RP0=1, select bank1
  2335  0732  1303               	bcf	status, 6	;RP1=0, select bank1
  2336  0733  01A1               	clrf	(?___wmul+1)^080h
  2337  0734  07A1               	addwf	(?___wmul+1)^080h
  2338  0735  1683               	bsf	status, 5	;RP0=1, select bank3
  2339  0736  1703               	bsf	status, 6	;RP1=1, select bank3
  2340  0737  082A               	movf	(sprintf@width)^0180h,w
  2341  0738  1683               	bsf	status, 5	;RP0=1, select bank1
  2342  0739  1303               	bcf	status, 6	;RP1=0, select bank1
  2343  073A  01A0               	clrf	(?___wmul)^080h
  2344  073B  07A0               	addwf	(?___wmul)^080h
  2345                           
  2346  073C  300A               	movlw	low(0Ah)
  2347  073D  00A2               	movwf	0+(?___wmul)^080h+02h
  2348  073E  3000               	movlw	high(0Ah)
  2349  073F  00A3               	movwf	(0+(?___wmul)^080h+02h)+1
  2350  0740  160A  158A  22C7   	fcall	___wmul
              120A  118A         
  2351  0745  1683               	bsf	status, 5	;RP0=1, select bank3
  2352  0746  1703               	bsf	status, 6	;RP1=1, select bank3
  2353  0747  0810               	movf	(sprintf@f)^0180h,w
  2354  0748  0084               	movwf	fsr0
  2355  0749  160A  118A  200A   	fcall	stringdir
              120A  118A         
  2356  074E  1683               	bsf	status, 5	;RP0=1, select bank1
  2357  074F  1303               	bcf	status, 6	;RP1=0, select bank1
  2358  0750  0720               	addwf	(0+(?___wmul))^080h,w
  2359  0751  1683               	bsf	status, 5	;RP0=1, select bank3
  2360  0752  1703               	bsf	status, 6	;RP1=1, select bank3
  2361  0753  0094               	movwf	(??_sprintf+0)^0180h+0
  2362  0754  3000               	movlw	0
  2363  0755  1803               	skipnc
  2364  0756  3001               	movlw	1
  2365  0757  1683               	bsf	status, 5	;RP0=1, select bank1
  2366  0758  1303               	bcf	status, 6	;RP1=0, select bank1
  2367  0759  0721               	addwf	(1+(?___wmul))^080h,w
  2368  075A  1683               	bsf	status, 5	;RP0=1, select bank3
  2369  075B  1703               	bsf	status, 6	;RP1=1, select bank3
  2370  075C  0095               	movwf	1+(??_sprintf+0)^0180h+0
  2371  075D  0814               	movf	0+(??_sprintf+0)^0180h+0,w
  2372  075E  3ED0               	addlw	low(0FFD0h)
  2373  075F  00AA               	movwf	(sprintf@width)^0180h
  2374  0760  0815               	movf	1+(??_sprintf+0)^0180h+0,w
  2375  0761  1803               	skipnc
  2376  0762  3E01               	addlw	1
  2377  0763  3EFF               	addlw	high(0FFD0h)
  2378  0764  00AB               	movwf	1+(sprintf@width)^0180h
  2379                           	
  2380  0765                     l9836:	
  2381  0765  3001               	movlw	(01h)
  2382  0766  0094               	movwf	(??_sprintf+0)^0180h+0
  2383  0767  0814               	movf	(??_sprintf+0)^0180h+0,w
  2384  0768  0790               	addwf	(sprintf@f)^0180h,f
  2385                           	line	605
  2386                           	
  2387  0769                     l9838:	
  2388  0769  0810               	movf	(sprintf@f)^0180h,w
  2389  076A  0084               	movwf	fsr0
  2390  076B  160A  118A  200A   	fcall	stringdir
              120A  118A         
  2391  0770  120A  118A  27E8   	fcall	_isdigit
              120A  118A         
  2392  0775  1803               	btfsc	status,0
  2393  0776  2F78               	goto	u5951
  2394  0777  2F79               	goto	u5950
  2395  0778                     u5951:
  2396  0778  2F2E               	goto	l9834
  2397  0779                     u5950:
  2398  0779  2F7B               	goto	l9840
  2399                           	
  2400  077A                     l4308:	
  2401  077A  2F7B               	goto	l9840
  2402                           	line	611
  2403                           	
  2404  077B                     l4306:	
  2405                           	line	614
  2406                           	
  2407  077B                     l9840:	
  2408  077B  1683               	bsf	status, 5	;RP0=1, select bank3
  2409  077C  1703               	bsf	status, 6	;RP1=1, select bank3
  2410  077D  0810               	movf	(sprintf@f)^0180h,w
  2411  077E  0084               	movwf	fsr0
  2412  077F  160A  118A  200A   	fcall	stringdir
              120A  118A         
  2413  0784  3A2E               	xorlw	02Eh
  2414  0785  1D03               	skipz
  2415  0786  2F88               	goto	u5961
  2416  0787  2F89               	goto	u5960
  2417  0788                     u5961:
  2418  0788  2FE1               	goto	l9854
  2419  0789                     u5960:
  2420                           	line	615
  2421                           	
  2422  0789                     l9842:	
  2423  0789  1727               	bsf	(sprintf@flag)^0180h+(14/8),(14)&7
  2424                           	line	616
  2425                           	
  2426  078A                     l9844:	
  2427  078A  3001               	movlw	(01h)
  2428  078B  0094               	movwf	(??_sprintf+0)^0180h+0
  2429  078C  0814               	movf	(??_sprintf+0)^0180h+0,w
  2430  078D  0790               	addwf	(sprintf@f)^0180h,f
  2431                           	line	624
  2432                           	
  2433  078E                     l9846:	
  2434  078E  01AF               	clrf	(sprintf@prec)^0180h
  2435  078F  01B0               	clrf	(sprintf@prec+1)^0180h
  2436                           	line	625
  2437  0790  2FCD               	goto	l9852
  2438                           	
  2439  0791                     l4311:	
  2440                           	line	626
  2441                           	
  2442  0791                     l9848:	
  2443  0791  1683               	bsf	status, 5	;RP0=1, select bank3
  2444  0792  1703               	bsf	status, 6	;RP1=1, select bank3
  2445  0793  0830               	movf	(sprintf@prec+1)^0180h,w
  2446  0794  1683               	bsf	status, 5	;RP0=1, select bank1
  2447  0795  1303               	bcf	status, 6	;RP1=0, select bank1
  2448  0796  01A1               	clrf	(?___wmul+1)^080h
  2449  0797  07A1               	addwf	(?___wmul+1)^080h
  2450  0798  1683               	bsf	status, 5	;RP0=1, select bank3
  2451  0799  1703               	bsf	status, 6	;RP1=1, select bank3
  2452  079A  082F               	movf	(sprintf@prec)^0180h,w
  2453  079B  1683               	bsf	status, 5	;RP0=1, select bank1
  2454  079C  1303               	bcf	status, 6	;RP1=0, select bank1
  2455  079D  01A0               	clrf	(?___wmul)^080h
  2456  079E  07A0               	addwf	(?___wmul)^080h
  2457                           
  2458  079F  300A               	movlw	low(0Ah)
  2459  07A0  00A2               	movwf	0+(?___wmul)^080h+02h
  2460  07A1  3000               	movlw	high(0Ah)
  2461  07A2  00A3               	movwf	(0+(?___wmul)^080h+02h)+1
  2462  07A3  160A  158A  22C7   	fcall	___wmul
              120A  118A         
  2463  07A8  1683               	bsf	status, 5	;RP0=1, select bank3
  2464  07A9  1703               	bsf	status, 6	;RP1=1, select bank3
  2465  07AA  0810               	movf	(sprintf@f)^0180h,w
  2466  07AB  0084               	movwf	fsr0
  2467  07AC  160A  118A  200A   	fcall	stringdir
              120A  118A         
  2468  07B1  1683               	bsf	status, 5	;RP0=1, select bank1
  2469  07B2  1303               	bcf	status, 6	;RP1=0, select bank1
  2470  07B3  0720               	addwf	(0+(?___wmul))^080h,w
  2471  07B4  1683               	bsf	status, 5	;RP0=1, select bank3
  2472  07B5  1703               	bsf	status, 6	;RP1=1, select bank3
  2473  07B6  0094               	movwf	(??_sprintf+0)^0180h+0
  2474  07B7  3000               	movlw	0
  2475  07B8  1803               	skipnc
  2476  07B9  3001               	movlw	1
  2477  07BA  1683               	bsf	status, 5	;RP0=1, select bank1
  2478  07BB  1303               	bcf	status, 6	;RP1=0, select bank1
  2479  07BC  0721               	addwf	(1+(?___wmul))^080h,w
  2480  07BD  1683               	bsf	status, 5	;RP0=1, select bank3
  2481  07BE  1703               	bsf	status, 6	;RP1=1, select bank3
  2482  07BF  0095               	movwf	1+(??_sprintf+0)^0180h+0
  2483  07C0  0814               	movf	0+(??_sprintf+0)^0180h+0,w
  2484  07C1  3ED0               	addlw	low(0FFD0h)
  2485  07C2  00AF               	movwf	(sprintf@prec)^0180h
  2486  07C3  0815               	movf	1+(??_sprintf+0)^0180h+0,w
  2487  07C4  1803               	skipnc
  2488  07C5  3E01               	addlw	1
  2489  07C6  3EFF               	addlw	high(0FFD0h)
  2490  07C7  00B0               	movwf	1+(sprintf@prec)^0180h
  2491                           	
  2492  07C8                     l9850:	
  2493  07C8  3001               	movlw	(01h)
  2494  07C9  0094               	movwf	(??_sprintf+0)^0180h+0
  2495  07CA  0814               	movf	(??_sprintf+0)^0180h+0,w
  2496  07CB  0790               	addwf	(sprintf@f)^0180h,f
  2497  07CC  2FCD               	goto	l9852
  2498                           	
  2499  07CD                     l4310:	
  2500                           	line	625
  2501                           	
  2502  07CD                     l9852:	
  2503  07CD  0810               	movf	(sprintf@f)^0180h,w
  2504  07CE  0084               	movwf	fsr0
  2505  07CF  160A  118A  200A   	fcall	stringdir
              120A  118A         
  2506  07D4  120A  118A  27E8   	fcall	_isdigit
              120A  118A         
  2507  07D9  1803               	btfsc	status,0
  2508  07DA  2FDC               	goto	u5971
  2509  07DB  2FDD               	goto	u5970
  2510  07DC                     u5971:
  2511  07DC  2F91               	goto	l9848
  2512  07DD                     u5970:
  2513  07DD  120A  158A  2B0B   	goto	l9860
  2514                           	
  2515  07E0                     l4312:	
  2516                           	line	628
  2517  07E0  2FDD               	goto	l9860
  2518                           	
  2519  07E1                     l4309:	
  2520                           	line	629
  2521                           	
  2522  07E1                     l9854:	
  2523  07E1  1683               	bsf	status, 5	;RP0=1, select bank3
  2524  07E2  1703               	bsf	status, 6	;RP1=1, select bank3
  2525  07E3  01AF               	clrf	(sprintf@prec)^0180h
  2526  07E4  01B0               	clrf	(sprintf@prec+1)^0180h
  2527                           	line	631
  2528                           	
  2529  07E5                     l9856:	
  2530  07E5  1627               	bsf	(sprintf@flag)^0180h+(12/8),(12)&7
  2531  07E6  2FDD               	goto	l9860
  2532                           	line	633
  2533                           	
  2534  07E7                     l4313:	
  2535                           	line	638
  2536  07E7  2FDD               	goto	l9860
  2537                           	line	640
  2538                           	
  2539  0B00                     l4315:	
  2540                           	line	641
  2541  0B00  120A  118A  2EDD   	goto	l10124
  2542                           	line	665
  2543                           	
  2544  0B03                     l4317:	
  2545                           	line	666
  2546  0B03  1527               	bsf	(sprintf@flag)^0180h+(10/8),(10)&7
  2547                           	line	667
  2548  0B04  2B25               	goto	l9862
  2549                           	line	700
  2550                           	
  2551  0B05                     l4319:	
  2552  0B05  2B25               	goto	l9862
  2553                           	line	701
  2554                           	
  2555  0B06                     l4320:	
  2556                           	line	702
  2557  0B06  2B25               	goto	l9862
  2558                           	line	805
  2559                           	
  2560  0B07                     l4321:	
  2561                           	line	816
  2562  0B07  120A  118A  2EC7   	goto	l10122
  2563                           	line	825
  2564                           	
  2565  0B0A                     l9858:	
  2566  0B0A  2B25               	goto	l9862
  2567                           	line	638
  2568                           	
  2569  0B0B                     l4314:	
  2570                           	
  2571  0B0B                     l9860:	
  2572  0B0B  3001               	movlw	01h
  2573  0B0C  1683               	bsf	status, 5	;RP0=1, select bank3
  2574  0B0D  1703               	bsf	status, 6	;RP1=1, select bank3
  2575  0B0E  0790               	addwf	(sprintf@f)^0180h,f
  2576  0B0F  30FF               	movlw	-01h
  2577  0B10  0710               	addwf	(sprintf@f)^0180h,w
  2578  0B11  0084               	movwf	fsr0
  2579  0B12  160A  118A  200A   	fcall	stringdir
              120A  158A         
  2580  0B17  00B2               	movwf	(sprintf@c)^0180h
  2581                           	; Switch size 1, requested type "space"
  2582                           ; Number of cases is 4, Range of values is 0 to 105
  2583                           ; switch strategies available:
  2584                           ; Name         Instructions Cycles
  2585                           ; simple_byte           13     7 (average)
  2586                           ; jumptable            260     6 (fixed)
  2587                           ; rangetable           110     6 (fixed)
  2588                           ; spacedrange          218     9 (fixed)
  2589                           ; locatedrange         106     3 (fixed)
  2590                           ;	Chosen strategy is simple_byte
  2591                           
  2592                           	opt asmopt_off
  2593  0B18  3A00               	xorlw	0^0	; case 0
  2594  0B19  1903               	skipnz
  2595  0B1A  2B00               	goto	l10124
  2596  0B1B  3A64               	xorlw	100^0	; case 100
  2597  0B1C  1903               	skipnz
  2598  0B1D  2B25               	goto	l9862
  2599  0B1E  3A02               	xorlw	102^100	; case 102
  2600  0B1F  1903               	skipnz
  2601  0B20  2B03               	goto	l4317
  2602  0B21  3A0F               	xorlw	105^102	; case 105
  2603  0B22  1903               	skipnz
  2604  0B23  2B25               	goto	l9862
  2605  0B24  2B07               	goto	l10122
  2606                           	opt asmopt_on
  2607                           
  2608                           	line	825
  2609                           	
  2610  0B25                     l4318:	
  2611                           	line	828
  2612                           	
  2613  0B25                     l9862:	
  2614  0B25  3000               	movlw	low(0700h)
  2615  0B26  0526               	andwf	(sprintf@flag)^0180h,w
  2616  0B27  0094               	movwf	(??_sprintf+0)^0180h+0
  2617  0B28  3007               	movlw	high(0700h)
  2618  0B29  0527               	andwf	(sprintf@flag+1)^0180h,w
  2619  0B2A  0095               	movwf	1+(??_sprintf+0)^0180h+0
  2620  0B2B  0815               	movf	1+(??_sprintf+0)^0180h+0,w
  2621  0B2C  0414               	iorwf	0+(??_sprintf+0)^0180h+0,w
  2622  0B2D  1903               	skipnz
  2623  0B2E  2B30               	goto	u5981
  2624  0B2F  2B33               	goto	u5980
  2625  0B30                     u5981:
  2626  0B30  120A  118A  2CA5   	goto	l10026
  2627  0B33                     u5980:
  2628                           	line	830
  2629                           	
  2630  0B33                     l9864:	
  2631  0B33  1E27               	btfss	(sprintf@flag+1)^0180h,(12)&7
  2632  0B34  2B36               	goto	u5991
  2633  0B35  2B37               	goto	u5990
  2634  0B36                     u5991:
  2635  0B36  2B3C               	goto	l9868
  2636  0B37                     u5990:
  2637                           	line	832
  2638                           	
  2639  0B37                     l9866:	
  2640  0B37  3006               	movlw	low(06h)
  2641  0B38  00AF               	movwf	(sprintf@prec)^0180h
  2642  0B39  3000               	movlw	high(06h)
  2643  0B3A  00B0               	movwf	((sprintf@prec)^0180h)+1
  2644  0B3B  2B3C               	goto	l9868
  2645                           	
  2646  0B3C                     l4323:	
  2647                           	line	833
  2648                           	
  2649  0B3C                     l9868:	
  2650  0B3C  081E               	movf	(sprintf@ap)^0180h,w
  2651  0B3D  0084               	movwf	fsr0
  2652  0B3E  1783               	bsf	status, 7	;select IRP bank2
  2653  0B3F  0800               	movf	indf,w
  2654  0B40  00AC               	movwf	(sprintf@fval)^0180h
  2655  0B41  0A84               	incf	fsr0,f
  2656  0B42  0800               	movf	indf,w
  2657  0B43  00AD               	movwf	(sprintf@fval+1)^0180h
  2658  0B44  0A84               	incf	fsr0,f
  2659  0B45  0800               	movf	indf,w
  2660  0B46  00AE               	movwf	(sprintf@fval+2)^0180h
  2661                           	
  2662  0B47                     l9870:	
  2663  0B47  3003               	movlw	(03h)
  2664  0B48  0094               	movwf	(??_sprintf+0)^0180h+0
  2665  0B49  0814               	movf	(??_sprintf+0)^0180h+0,w
  2666  0B4A  079E               	addwf	(sprintf@ap)^0180h,f
  2667                           	line	834
  2668                           	
  2669  0B4B                     l9872:	
  2670  0B4B  082C               	movf	(sprintf@fval)^0180h,w
  2671  0B4C  1683               	bsf	status, 5	;RP0=1, select bank1
  2672  0B4D  1303               	bcf	status, 6	;RP1=0, select bank1
  2673  0B4E  00A0               	movwf	(?___ftge)^080h
  2674  0B4F  1683               	bsf	status, 5	;RP0=1, select bank3
  2675  0B50  1703               	bsf	status, 6	;RP1=1, select bank3
  2676  0B51  082D               	movf	(sprintf@fval+1)^0180h,w
  2677  0B52  1683               	bsf	status, 5	;RP0=1, select bank1
  2678  0B53  1303               	bcf	status, 6	;RP1=0, select bank1
  2679  0B54  00A1               	movwf	(?___ftge+1)^080h
  2680  0B55  1683               	bsf	status, 5	;RP0=1, select bank3
  2681  0B56  1703               	bsf	status, 6	;RP1=1, select bank3
  2682  0B57  082E               	movf	(sprintf@fval+2)^0180h,w
  2683  0B58  1683               	bsf	status, 5	;RP0=1, select bank1
  2684  0B59  1303               	bcf	status, 6	;RP1=0, select bank1
  2685  0B5A  00A2               	movwf	(?___ftge+2)^080h
  2686  0B5B  3000               	movlw	0x0
  2687  0B5C  00A3               	movwf	0+(?___ftge)^080h+03h
  2688  0B5D  3000               	movlw	0x0
  2689  0B5E  00A4               	movwf	1+(?___ftge)^080h+03h
  2690  0B5F  3000               	movlw	0x0
  2691  0B60  00A5               	movwf	2+(?___ftge)^080h+03h
  2692  0B61  160A  158A  250E   	fcall	___ftge
              120A  158A         
  2693  0B66  1803               	btfsc	status,0
  2694  0B67  2B69               	goto	u6001
  2695  0B68  2B6A               	goto	u6000
  2696  0B69                     u6001:
  2697  0B69  2B98               	goto	l9878
  2698  0B6A                     u6000:
  2699                           	line	835
  2700                           	
  2701  0B6A                     l9874:	
  2702  0B6A  1683               	bsf	status, 5	;RP0=1, select bank3
  2703  0B6B  1703               	bsf	status, 6	;RP1=1, select bank3
  2704  0B6C  082C               	movf	(sprintf@fval)^0180h,w
  2705  0B6D  1683               	bsf	status, 5	;RP0=1, select bank1
  2706  0B6E  1303               	bcf	status, 6	;RP1=0, select bank1
  2707  0B6F  00A0               	movwf	(?___ftneg)^080h
  2708  0B70  1683               	bsf	status, 5	;RP0=1, select bank3
  2709  0B71  1703               	bsf	status, 6	;RP1=1, select bank3
  2710  0B72  082D               	movf	(sprintf@fval+1)^0180h,w
  2711  0B73  1683               	bsf	status, 5	;RP0=1, select bank1
  2712  0B74  1303               	bcf	status, 6	;RP1=0, select bank1
  2713  0B75  00A1               	movwf	(?___ftneg+1)^080h
  2714  0B76  1683               	bsf	status, 5	;RP0=1, select bank3
  2715  0B77  1703               	bsf	status, 6	;RP1=1, select bank3
  2716  0B78  082E               	movf	(sprintf@fval+2)^0180h,w
  2717  0B79  1683               	bsf	status, 5	;RP0=1, select bank1
  2718  0B7A  1303               	bcf	status, 6	;RP1=0, select bank1
  2719  0B7B  00A2               	movwf	(?___ftneg+2)^080h
  2720  0B7C  160A  158A  2193   	fcall	___ftneg
              120A  158A         
  2721  0B81  1683               	bsf	status, 5	;RP0=1, select bank1
  2722  0B82  1303               	bcf	status, 6	;RP1=0, select bank1
  2723  0B83  0820               	movf	(0+(?___ftneg))^080h,w
  2724  0B84  1683               	bsf	status, 5	;RP0=1, select bank3
  2725  0B85  1703               	bsf	status, 6	;RP1=1, select bank3
  2726  0B86  00AC               	movwf	(sprintf@fval)^0180h
  2727  0B87  1683               	bsf	status, 5	;RP0=1, select bank1
  2728  0B88  1303               	bcf	status, 6	;RP1=0, select bank1
  2729  0B89  0821               	movf	(1+(?___ftneg))^080h,w
  2730  0B8A  1683               	bsf	status, 5	;RP0=1, select bank3
  2731  0B8B  1703               	bsf	status, 6	;RP1=1, select bank3
  2732  0B8C  00AD               	movwf	(sprintf@fval+1)^0180h
  2733  0B8D  1683               	bsf	status, 5	;RP0=1, select bank1
  2734  0B8E  1303               	bcf	status, 6	;RP1=0, select bank1
  2735  0B8F  0822               	movf	(2+(?___ftneg))^080h,w
  2736  0B90  1683               	bsf	status, 5	;RP0=1, select bank3
  2737  0B91  1703               	bsf	status, 6	;RP1=1, select bank3
  2738  0B92  00AE               	movwf	(sprintf@fval+2)^0180h
  2739                           	line	836
  2740                           	
  2741  0B93                     l9876:	
  2742  0B93  3003               	movlw	low(03h)
  2743  0B94  04A6               	iorwf	(sprintf@flag)^0180h,f
  2744  0B95  3000               	movlw	high(03h)
  2745  0B96  04A7               	iorwf	(sprintf@flag+1)^0180h,f
  2746  0B97  2B98               	goto	l9878
  2747                           	line	837
  2748                           	
  2749  0B98                     l4324:	
  2750                           	line	838
  2751                           	
  2752  0B98                     l9878:	
  2753  0B98  1683               	bsf	status, 5	;RP0=1, select bank3
  2754  0B99  1703               	bsf	status, 6	;RP1=1, select bank3
  2755  0B9A  01A8               	clrf	(sprintf@exp)^0180h
  2756  0B9B  01A9               	clrf	(sprintf@exp+1)^0180h
  2757                           	line	839
  2758                           	
  2759  0B9C                     l9880:	
  2760  0B9C  082E               	movf	(sprintf@fval+2)^0180h,w
  2761  0B9D  042D               	iorwf	(sprintf@fval+1)^0180h,w
  2762  0B9E  042C               	iorwf	(sprintf@fval)^0180h,w
  2763  0B9F  1903               	skipnz
  2764  0BA0  2BA2               	goto	u6011
  2765  0BA1  2BA3               	goto	u6010
  2766  0BA2                     u6011:
  2767  0BA2  2CCD               	goto	l9906
  2768  0BA3                     u6010:
  2769                           	line	840
  2770                           	
  2771  0BA3                     l9882:	
  2772  0BA3  30AC               	movlw	low(sprintf@fval)
  2773  0BA4  0084               	movwf	fsr0
  2774  0BA5  1783               	bsf	status, 7	;select IRP bank3
  2775  0BA6  0800               	movf	indf,w
  2776  0BA7  0094               	movwf	(??_sprintf+0)^0180h+0+0
  2777  0BA8  0A84               	incf	fsr0,f
  2778  0BA9  0800               	movf	indf,w
  2779  0BAA  0095               	movwf	(??_sprintf+0)^0180h+0+1
  2780  0BAB  0A84               	incf	fsr0,f
  2781  0BAC  0800               	movf	indf,w
  2782  0BAD  0096               	movwf	(??_sprintf+0)^0180h+0+2
  2783  0BAE  0A84               	incf	fsr0,f
  2784  0BAF  0800               	movf	indf,w
  2785  0BB0  0097               	movwf	(??_sprintf+0)^0180h+0+3
  2786  0BB1  300F               	movlw	0Fh
  2787  0BB2                     u6025:
  2788  0BB2  1003               	clrc
  2789  0BB3  0C97               	rrf	(??_sprintf+0)^0180h+3,f
  2790  0BB4  0C96               	rrf	(??_sprintf+0)^0180h+2,f
  2791  0BB5  0C95               	rrf	(??_sprintf+0)^0180h+1,f
  2792  0BB6  0C94               	rrf	(??_sprintf+0)^0180h+0,f
  2793  0BB7                     u6020:
  2794  0BB7  3EFF               	addlw	-1
  2795  0BB8  1D03               	skipz
  2796  0BB9  2BB2               	goto	u6025
  2797  0BBA  30FF               	movlw	low(0FFh)
  2798  0BBB  0514               	andwf	0+(??_sprintf+0)^0180h+0,w
  2799  0BBC  0098               	movwf	(??_sprintf+4)^0180h+0
  2800  0BBD  3000               	movlw	high(0FFh)
  2801  0BBE  0515               	andwf	1+(??_sprintf+0)^0180h+0,w
  2802  0BBF  0099               	movwf	1+(??_sprintf+4)^0180h+0
  2803  0BC0  0818               	movf	0+(??_sprintf+4)^0180h+0,w
  2804  0BC1  3E82               	addlw	low(-126)
  2805  0BC2  00A8               	movwf	(sprintf@exp)^0180h
  2806  0BC3  0819               	movf	1+(??_sprintf+4)^0180h+0,w
  2807  0BC4  1803               	skipnc
  2808  0BC5  3E01               	addlw	1
  2809  0BC6  3EFF               	addlw	high(-126)
  2810  0BC7  00A9               	movwf	1+(sprintf@exp)^0180h
  2811                           	line	841
  2812                           	
  2813  0BC8                     l9884:	
  2814  0BC8  30FF               	movlw	low(-1)
  2815  0BC9  07A8               	addwf	(sprintf@exp)^0180h,f
  2816  0BCA  1803               	skipnc
  2817  0BCB  0AA9               	incf	(sprintf@exp+1)^0180h,f
  2818  0BCC  30FF               	movlw	high(-1)
  2819  0BCD  07A9               	addwf	(sprintf@exp+1)^0180h,f
  2820                           	line	842
  2821                           	
  2822  0BCE                     l9886:	
  2823  0BCE  3003               	movlw	low(03h)
  2824  0BCF  1683               	bsf	status, 5	;RP0=1, select bank1
  2825  0BD0  1303               	bcf	status, 6	;RP1=0, select bank1
  2826  0BD1  00A0               	movwf	(?___wmul)^080h
  2827  0BD2  3000               	movlw	high(03h)
  2828  0BD3  00A1               	movwf	((?___wmul)^080h)+1
  2829  0BD4  1683               	bsf	status, 5	;RP0=1, select bank3
  2830  0BD5  1703               	bsf	status, 6	;RP1=1, select bank3
  2831  0BD6  0829               	movf	(sprintf@exp+1)^0180h,w
  2832  0BD7  1683               	bsf	status, 5	;RP0=1, select bank1
  2833  0BD8  1303               	bcf	status, 6	;RP1=0, select bank1
  2834  0BD9  01A3               	clrf	1+(?___wmul)^080h+02h
  2835  0BDA  07A3               	addwf	1+(?___wmul)^080h+02h
  2836  0BDB  1683               	bsf	status, 5	;RP0=1, select bank3
  2837  0BDC  1703               	bsf	status, 6	;RP1=1, select bank3
  2838  0BDD  0828               	movf	(sprintf@exp)^0180h,w
  2839  0BDE  1683               	bsf	status, 5	;RP0=1, select bank1
  2840  0BDF  1303               	bcf	status, 6	;RP1=0, select bank1
  2841  0BE0  01A2               	clrf	0+(?___wmul)^080h+02h
  2842  0BE1  07A2               	addwf	0+(?___wmul)^080h+02h
  2843                           
  2844  0BE2  160A  158A  22C7   	fcall	___wmul
              120A  158A         
  2845  0BE7  1683               	bsf	status, 5	;RP0=1, select bank1
  2846  0BE8  1303               	bcf	status, 6	;RP1=0, select bank1
  2847  0BE9  0821               	movf	(1+(?___wmul))^080h,w
  2848  0BEA  1683               	bsf	status, 5	;RP0=1, select bank3
  2849  0BEB  1703               	bsf	status, 6	;RP1=1, select bank3
  2850  0BEC  01A9               	clrf	(sprintf@exp+1)^0180h
  2851  0BED  07A9               	addwf	(sprintf@exp+1)^0180h
  2852  0BEE  1683               	bsf	status, 5	;RP0=1, select bank1
  2853  0BEF  1303               	bcf	status, 6	;RP1=0, select bank1
  2854  0BF0  0820               	movf	(0+(?___wmul))^080h,w
  2855  0BF1  1683               	bsf	status, 5	;RP0=1, select bank3
  2856  0BF2  1703               	bsf	status, 6	;RP1=1, select bank3
  2857  0BF3  01A8               	clrf	(sprintf@exp)^0180h
  2858  0BF4  07A8               	addwf	(sprintf@exp)^0180h
  2859                           
  2860                           	line	843
  2861                           	
  2862  0BF5                     l9888:	
  2863  0BF5  300A               	movlw	low(0Ah)
  2864  0BF6  1683               	bsf	status, 5	;RP0=1, select bank1
  2865  0BF7  1303               	bcf	status, 6	;RP1=0, select bank1
  2866  0BF8  00A7               	movwf	(?___awdiv)^080h
  2867  0BF9  3000               	movlw	high(0Ah)
  2868  0BFA  00A8               	movwf	((?___awdiv)^080h)+1
  2869  0BFB  1683               	bsf	status, 5	;RP0=1, select bank3
  2870  0BFC  1703               	bsf	status, 6	;RP1=1, select bank3
  2871  0BFD  0829               	movf	(sprintf@exp+1)^0180h,w
  2872  0BFE  1683               	bsf	status, 5	;RP0=1, select bank1
  2873  0BFF  1303               	bcf	status, 6	;RP1=0, select bank1
  2874  0C00  01AA               	clrf	1+(?___awdiv)^080h+02h
  2875  0C01  07AA               	addwf	1+(?___awdiv)^080h+02h
  2876  0C02  1683               	bsf	status, 5	;RP0=1, select bank3
  2877  0C03  1703               	bsf	status, 6	;RP1=1, select bank3
  2878  0C04  0828               	movf	(sprintf@exp)^0180h,w
  2879  0C05  1683               	bsf	status, 5	;RP0=1, select bank1
  2880  0C06  1303               	bcf	status, 6	;RP1=0, select bank1
  2881  0C07  01A9               	clrf	0+(?___awdiv)^080h+02h
  2882  0C08  07A9               	addwf	0+(?___awdiv)^080h+02h
  2883                           
  2884  0C09  160A  158A  25EC   	fcall	___awdiv
              120A  158A         
  2885  0C0E  1683               	bsf	status, 5	;RP0=1, select bank1
  2886  0C0F  1303               	bcf	status, 6	;RP1=0, select bank1
  2887  0C10  0828               	movf	(1+(?___awdiv))^080h,w
  2888  0C11  1683               	bsf	status, 5	;RP0=1, select bank3
  2889  0C12  1703               	bsf	status, 6	;RP1=1, select bank3
  2890  0C13  01A9               	clrf	(sprintf@exp+1)^0180h
  2891  0C14  07A9               	addwf	(sprintf@exp+1)^0180h
  2892  0C15  1683               	bsf	status, 5	;RP0=1, select bank1
  2893  0C16  1303               	bcf	status, 6	;RP1=0, select bank1
  2894  0C17  0827               	movf	(0+(?___awdiv))^080h,w
  2895  0C18  1683               	bsf	status, 5	;RP0=1, select bank3
  2896  0C19  1703               	bsf	status, 6	;RP1=1, select bank3
  2897  0C1A  01A8               	clrf	(sprintf@exp)^0180h
  2898  0C1B  07A8               	addwf	(sprintf@exp)^0180h
  2899                           
  2900                           	line	844
  2901                           	
  2902  0C1C                     l9890:	
  2903  0C1C  1FA9               	btfss	(sprintf@exp+1)^0180h,7
  2904  0C1D  2C1F               	goto	u6031
  2905  0C1E  2C20               	goto	u6030
  2906  0C1F                     u6031:
  2907  0C1F  2C27               	goto	l9894
  2908  0C20                     u6030:
  2909                           	line	845
  2910                           	
  2911  0C20                     l9892:	
  2912  0C20  30FF               	movlw	low(-1)
  2913  0C21  07A8               	addwf	(sprintf@exp)^0180h,f
  2914  0C22  1803               	skipnc
  2915  0C23  0AA9               	incf	(sprintf@exp+1)^0180h,f
  2916  0C24  30FF               	movlw	high(-1)
  2917  0C25  07A9               	addwf	(sprintf@exp+1)^0180h,f
  2918  0C26  2C27               	goto	l9894
  2919                           	
  2920  0C27                     l4326:	
  2921                           	line	849
  2922                           	
  2923  0C27                     l9894:	
  2924  0C27  0328               	decf	(sprintf@exp)^0180h,w
  2925  0C28  3AFF               	xorlw	0ffh
  2926  0C29  120A  158A  2529   	fcall	_scale
              120A  158A         
  2927  0C2E  1683               	bsf	status, 5	;RP0=1, select bank1
  2928  0C2F  1303               	bcf	status, 6	;RP1=0, select bank1
  2929  0C30  0852               	movf	(0+(?_scale))^080h,w
  2930  0C31  1683               	bsf	status, 5	;RP0=1, select bank3
  2931  0C32  1703               	bsf	status, 6	;RP1=1, select bank3
  2932  0C33  009F               	movwf	(sprintf@integ)^0180h
  2933  0C34  1683               	bsf	status, 5	;RP0=1, select bank1
  2934  0C35  1303               	bcf	status, 6	;RP1=0, select bank1
  2935  0C36  0853               	movf	(1+(?_scale))^080h,w
  2936  0C37  1683               	bsf	status, 5	;RP0=1, select bank3
  2937  0C38  1703               	bsf	status, 6	;RP1=1, select bank3
  2938  0C39  00A0               	movwf	(sprintf@integ+1)^0180h
  2939  0C3A  1683               	bsf	status, 5	;RP0=1, select bank1
  2940  0C3B  1303               	bcf	status, 6	;RP1=0, select bank1
  2941  0C3C  0854               	movf	(2+(?_scale))^080h,w
  2942  0C3D  1683               	bsf	status, 5	;RP0=1, select bank3
  2943  0C3E  1703               	bsf	status, 6	;RP1=1, select bank3
  2944  0C3F  00A1               	movwf	(sprintf@integ+2)^0180h
  2945                           	line	850
  2946                           	
  2947  0C40                     l9896:	
  2948  0C40  082C               	movf	(sprintf@fval)^0180h,w
  2949  0C41  1683               	bsf	status, 5	;RP0=1, select bank1
  2950  0C42  1303               	bcf	status, 6	;RP1=0, select bank1
  2951  0C43  00C2               	movwf	(?___ftmul)^080h
  2952  0C44  1683               	bsf	status, 5	;RP0=1, select bank3
  2953  0C45  1703               	bsf	status, 6	;RP1=1, select bank3
  2954  0C46  082D               	movf	(sprintf@fval+1)^0180h,w
  2955  0C47  1683               	bsf	status, 5	;RP0=1, select bank1
  2956  0C48  1303               	bcf	status, 6	;RP1=0, select bank1
  2957  0C49  00C3               	movwf	(?___ftmul+1)^080h
  2958  0C4A  1683               	bsf	status, 5	;RP0=1, select bank3
  2959  0C4B  1703               	bsf	status, 6	;RP1=1, select bank3
  2960  0C4C  082E               	movf	(sprintf@fval+2)^0180h,w
  2961  0C4D  1683               	bsf	status, 5	;RP0=1, select bank1
  2962  0C4E  1303               	bcf	status, 6	;RP1=0, select bank1
  2963  0C4F  00C4               	movwf	(?___ftmul+2)^080h
  2964  0C50  1683               	bsf	status, 5	;RP0=1, select bank3
  2965  0C51  1703               	bsf	status, 6	;RP1=1, select bank3
  2966  0C52  081F               	movf	(sprintf@integ)^0180h,w
  2967  0C53  1683               	bsf	status, 5	;RP0=1, select bank1
  2968  0C54  1303               	bcf	status, 6	;RP1=0, select bank1
  2969  0C55  00C5               	movwf	0+(?___ftmul)^080h+03h
  2970  0C56  1683               	bsf	status, 5	;RP0=1, select bank3
  2971  0C57  1703               	bsf	status, 6	;RP1=1, select bank3
  2972  0C58  0820               	movf	(sprintf@integ+1)^0180h,w
  2973  0C59  1683               	bsf	status, 5	;RP0=1, select bank1
  2974  0C5A  1303               	bcf	status, 6	;RP1=0, select bank1
  2975  0C5B  00C6               	movwf	1+(?___ftmul)^080h+03h
  2976  0C5C  1683               	bsf	status, 5	;RP0=1, select bank3
  2977  0C5D  1703               	bsf	status, 6	;RP1=1, select bank3
  2978  0C5E  0821               	movf	(sprintf@integ+2)^0180h,w
  2979  0C5F  1683               	bsf	status, 5	;RP0=1, select bank1
  2980  0C60  1303               	bcf	status, 6	;RP1=0, select bank1
  2981  0C61  00C7               	movwf	2+(?___ftmul)^080h+03h
  2982  0C62  160A  118A  2454   	fcall	___ftmul
              120A  158A         
  2983  0C67  1683               	bsf	status, 5	;RP0=1, select bank1
  2984  0C68  1303               	bcf	status, 6	;RP1=0, select bank1
  2985  0C69  0842               	movf	(0+(?___ftmul))^080h,w
  2986  0C6A  1683               	bsf	status, 5	;RP0=1, select bank3
  2987  0C6B  1703               	bsf	status, 6	;RP1=1, select bank3
  2988  0C6C  009F               	movwf	(sprintf@integ)^0180h
  2989  0C6D  1683               	bsf	status, 5	;RP0=1, select bank1
  2990  0C6E  1303               	bcf	status, 6	;RP1=0, select bank1
  2991  0C6F  0843               	movf	(1+(?___ftmul))^080h,w
  2992  0C70  1683               	bsf	status, 5	;RP0=1, select bank3
  2993  0C71  1703               	bsf	status, 6	;RP1=1, select bank3
  2994  0C72  00A0               	movwf	(sprintf@integ+1)^0180h
  2995  0C73  1683               	bsf	status, 5	;RP0=1, select bank1
  2996  0C74  1303               	bcf	status, 6	;RP1=0, select bank1
  2997  0C75  0844               	movf	(2+(?___ftmul))^080h,w
  2998  0C76  1683               	bsf	status, 5	;RP0=1, select bank3
  2999  0C77  1703               	bsf	status, 6	;RP1=1, select bank3
  3000  0C78  00A1               	movwf	(sprintf@integ+2)^0180h
  3001                           	line	851
  3002                           	
  3003  0C79                     l9898:	
  3004  0C79  081F               	movf	(sprintf@integ)^0180h,w
  3005  0C7A  1683               	bsf	status, 5	;RP0=1, select bank1
  3006  0C7B  1303               	bcf	status, 6	;RP1=0, select bank1
  3007  0C7C  00A0               	movwf	(?___ftge)^080h
  3008  0C7D  1683               	bsf	status, 5	;RP0=1, select bank3
  3009  0C7E  1703               	bsf	status, 6	;RP1=1, select bank3
  3010  0C7F  0820               	movf	(sprintf@integ+1)^0180h,w
  3011  0C80  1683               	bsf	status, 5	;RP0=1, select bank1
  3012  0C81  1303               	bcf	status, 6	;RP1=0, select bank1
  3013  0C82  00A1               	movwf	(?___ftge+1)^080h
  3014  0C83  1683               	bsf	status, 5	;RP0=1, select bank3
  3015  0C84  1703               	bsf	status, 6	;RP1=1, select bank3
  3016  0C85  0821               	movf	(sprintf@integ+2)^0180h,w
  3017  0C86  1683               	bsf	status, 5	;RP0=1, select bank1
  3018  0C87  1303               	bcf	status, 6	;RP1=0, select bank1
  3019  0C88  00A2               	movwf	(?___ftge+2)^080h
  3020  0C89  3000               	movlw	0x0
  3021  0C8A  00A3               	movwf	0+(?___ftge)^080h+03h
  3022  0C8B  3080               	movlw	0x80
  3023  0C8C  00A4               	movwf	1+(?___ftge)^080h+03h
  3024  0C8D  303F               	movlw	0x3f
  3025  0C8E  00A5               	movwf	2+(?___ftge)^080h+03h
  3026  0C8F  160A  158A  250E   	fcall	___ftge
              120A  158A         
  3027  0C94  1803               	btfsc	status,0
  3028  0C95  2C97               	goto	u6041
  3029  0C96  2C98               	goto	u6040
  3030  0C97                     u6041:
  3031  0C97  2CA1               	goto	l9902
  3032  0C98                     u6040:
  3033                           	line	852
  3034                           	
  3035  0C98                     l9900:	
  3036  0C98  30FF               	movlw	low(-1)
  3037  0C99  1683               	bsf	status, 5	;RP0=1, select bank3
  3038  0C9A  1703               	bsf	status, 6	;RP1=1, select bank3
  3039  0C9B  07A8               	addwf	(sprintf@exp)^0180h,f
  3040  0C9C  1803               	skipnc
  3041  0C9D  0AA9               	incf	(sprintf@exp+1)^0180h,f
  3042  0C9E  30FF               	movlw	high(-1)
  3043  0C9F  07A9               	addwf	(sprintf@exp+1)^0180h,f
  3044  0CA0  2CCD               	goto	l9906
  3045                           	line	853
  3046                           	
  3047  0CA1                     l4327:	
  3048                           	
  3049  0CA1                     l9902:	
  3050  0CA1  1683               	bsf	status, 5	;RP0=1, select bank3
  3051  0CA2  1703               	bsf	status, 6	;RP1=1, select bank3
  3052  0CA3  081F               	movf	(sprintf@integ)^0180h,w
  3053  0CA4  1683               	bsf	status, 5	;RP0=1, select bank1
  3054  0CA5  1303               	bcf	status, 6	;RP1=0, select bank1
  3055  0CA6  00A0               	movwf	(?___ftge)^080h
  3056  0CA7  1683               	bsf	status, 5	;RP0=1, select bank3
  3057  0CA8  1703               	bsf	status, 6	;RP1=1, select bank3
  3058  0CA9  0820               	movf	(sprintf@integ+1)^0180h,w
  3059  0CAA  1683               	bsf	status, 5	;RP0=1, select bank1
  3060  0CAB  1303               	bcf	status, 6	;RP1=0, select bank1
  3061  0CAC  00A1               	movwf	(?___ftge+1)^080h
  3062  0CAD  1683               	bsf	status, 5	;RP0=1, select bank3
  3063  0CAE  1703               	bsf	status, 6	;RP1=1, select bank3
  3064  0CAF  0821               	movf	(sprintf@integ+2)^0180h,w
  3065  0CB0  1683               	bsf	status, 5	;RP0=1, select bank1
  3066  0CB1  1303               	bcf	status, 6	;RP1=0, select bank1
  3067  0CB2  00A2               	movwf	(?___ftge+2)^080h
  3068  0CB3  3000               	movlw	0x0
  3069  0CB4  00A3               	movwf	0+(?___ftge)^080h+03h
  3070  0CB5  3020               	movlw	0x20
  3071  0CB6  00A4               	movwf	1+(?___ftge)^080h+03h
  3072  0CB7  3041               	movlw	0x41
  3073  0CB8  00A5               	movwf	2+(?___ftge)^080h+03h
  3074  0CB9  160A  158A  250E   	fcall	___ftge
              120A  158A         
  3075  0CBE  1C03               	btfss	status,0
  3076  0CBF  2CC1               	goto	u6051
  3077  0CC0  2CC2               	goto	u6050
  3078  0CC1                     u6051:
  3079  0CC1  2CCD               	goto	l9906
  3080  0CC2                     u6050:
  3081                           	line	854
  3082                           	
  3083  0CC2                     l9904:	
  3084  0CC2  3001               	movlw	low(01h)
  3085  0CC3  1683               	bsf	status, 5	;RP0=1, select bank3
  3086  0CC4  1703               	bsf	status, 6	;RP1=1, select bank3
  3087  0CC5  07A8               	addwf	(sprintf@exp)^0180h,f
  3088  0CC6  1803               	skipnc
  3089  0CC7  0AA9               	incf	(sprintf@exp+1)^0180h,f
  3090  0CC8  3000               	movlw	high(01h)
  3091  0CC9  07A9               	addwf	(sprintf@exp+1)^0180h,f
  3092  0CCA  2CCD               	goto	l9906
  3093                           	
  3094  0CCB                     l4329:	
  3095  0CCB  2CCD               	goto	l9906
  3096                           	line	855
  3097                           	
  3098  0CCC                     l4328:	
  3099  0CCC  2CCD               	goto	l9906
  3100                           	
  3101  0CCD                     l4325:	
  3102                           	line	1115
  3103                           	
  3104  0CCD                     l9906:	
  3105  0CCD  1683               	bsf	status, 5	;RP0=1, select bank3
  3106  0CCE  1703               	bsf	status, 6	;RP1=1, select bank3
  3107  0CCF  0830               	movf	(sprintf@prec+1)^0180h,w
  3108  0CD0  3A80               	xorlw	80h
  3109  0CD1  00FF               	movwf	btemp+1
  3110  0CD2  3080               	movlw	(high(0Dh))^80h
  3111  0CD3  027F               	subwf	btemp+1,w
  3112  0CD4  1D03               	skipz
  3113  0CD5  2CD8               	goto	u6065
  3114  0CD6  300D               	movlw	low(0Dh)
  3115  0CD7  022F               	subwf	(sprintf@prec)^0180h,w
  3116  0CD8                     u6065:
  3117                           
  3118  0CD8  1803               	skipnc
  3119  0CD9  2CDB               	goto	u6061
  3120  0CDA  2CDC               	goto	u6060
  3121  0CDB                     u6061:
  3122  0CDB  2D16               	goto	l9910
  3123  0CDC                     u6060:
  3124                           	line	1116
  3125                           	
  3126  0CDC                     l9908:	
  3127  0CDC  1683               	bsf	status, 5	;RP0=1, select bank3
  3128  0CDD  1703               	bsf	status, 6	;RP1=1, select bank3
  3129  0CDE  082F               	movf	(sprintf@prec)^0180h,w
  3130  0CDF  120A  158A  2149   	fcall	_fround
              120A  158A         
  3131  0CE4  1683               	bsf	status, 5	;RP0=1, select bank1
  3132  0CE5  1303               	bcf	status, 6	;RP1=0, select bank1
  3133  0CE6  085F               	movf	(0+(?_fround))^080h,w
  3134  0CE7  00D2               	movwf	(?___ftadd)^080h
  3135  0CE8  0860               	movf	(1+(?_fround))^080h,w
  3136  0CE9  00D3               	movwf	(?___ftadd+1)^080h
  3137  0CEA  0861               	movf	(2+(?_fround))^080h,w
  3138  0CEB  00D4               	movwf	(?___ftadd+2)^080h
  3139  0CEC  1683               	bsf	status, 5	;RP0=1, select bank3
  3140  0CED  1703               	bsf	status, 6	;RP1=1, select bank3
  3141  0CEE  082C               	movf	(sprintf@fval)^0180h,w
  3142  0CEF  1683               	bsf	status, 5	;RP0=1, select bank1
  3143  0CF0  1303               	bcf	status, 6	;RP1=0, select bank1
  3144  0CF1  00D5               	movwf	0+(?___ftadd)^080h+03h
  3145  0CF2  1683               	bsf	status, 5	;RP0=1, select bank3
  3146  0CF3  1703               	bsf	status, 6	;RP1=1, select bank3
  3147  0CF4  082D               	movf	(sprintf@fval+1)^0180h,w
  3148  0CF5  1683               	bsf	status, 5	;RP0=1, select bank1
  3149  0CF6  1303               	bcf	status, 6	;RP1=0, select bank1
  3150  0CF7  00D6               	movwf	1+(?___ftadd)^080h+03h
  3151  0CF8  1683               	bsf	status, 5	;RP0=1, select bank3
  3152  0CF9  1703               	bsf	status, 6	;RP1=1, select bank3
  3153  0CFA  082E               	movf	(sprintf@fval+2)^0180h,w
  3154  0CFB  1683               	bsf	status, 5	;RP0=1, select bank1
  3155  0CFC  1303               	bcf	status, 6	;RP1=0, select bank1
  3156  0CFD  00D7               	movwf	2+(?___ftadd)^080h+03h
  3157  0CFE  120A  158A  2003   	fcall	___ftadd
              120A  158A         
  3158  0D03  1683               	bsf	status, 5	;RP0=1, select bank1
  3159  0D04  1303               	bcf	status, 6	;RP1=0, select bank1
  3160  0D05  0852               	movf	(0+(?___ftadd))^080h,w
  3161  0D06  1683               	bsf	status, 5	;RP0=1, select bank3
  3162  0D07  1703               	bsf	status, 6	;RP1=1, select bank3
  3163  0D08  00AC               	movwf	(sprintf@fval)^0180h
  3164  0D09  1683               	bsf	status, 5	;RP0=1, select bank1
  3165  0D0A  1303               	bcf	status, 6	;RP1=0, select bank1
  3166  0D0B  0853               	movf	(1+(?___ftadd))^080h,w
  3167  0D0C  1683               	bsf	status, 5	;RP0=1, select bank3
  3168  0D0D  1703               	bsf	status, 6	;RP1=1, select bank3
  3169  0D0E  00AD               	movwf	(sprintf@fval+1)^0180h
  3170  0D0F  1683               	bsf	status, 5	;RP0=1, select bank1
  3171  0D10  1303               	bcf	status, 6	;RP1=0, select bank1
  3172  0D11  0854               	movf	(2+(?___ftadd))^080h,w
  3173  0D12  1683               	bsf	status, 5	;RP0=1, select bank3
  3174  0D13  1703               	bsf	status, 6	;RP1=1, select bank3
  3175  0D14  00AE               	movwf	(sprintf@fval+2)^0180h
  3176  0D15  2D16               	goto	l9910
  3177                           	
  3178  0D16                     l4330:	
  3179                           	line	1119
  3180                           	
  3181  0D16                     l9910:	
  3182  0D16  1683               	bsf	status, 5	;RP0=1, select bank3
  3183  0D17  1703               	bsf	status, 6	;RP1=1, select bank3
  3184  0D18  0829               	movf	(sprintf@exp+1)^0180h,w
  3185  0D19  3A80               	xorlw	80h
  3186  0D1A  00FF               	movwf	btemp+1
  3187  0D1B  3080               	movlw	(high(0Ah))^80h
  3188  0D1C  027F               	subwf	btemp+1,w
  3189  0D1D  1D03               	skipz
  3190  0D1E  2D21               	goto	u6075
  3191  0D1F  300A               	movlw	low(0Ah)
  3192  0D20  0228               	subwf	(sprintf@exp)^0180h,w
  3193  0D21                     u6075:
  3194                           
  3195  0D21  1803               	skipnc
  3196  0D22  2D26               	goto	u6071
  3197  0D23  120A  118A  2815   	goto	u6070
  3198  0D26                     u6071:
  3199  0D26  120A  118A  284D   	goto	l9918
  3200  0015                     u6070:
  3201                           	
  3202  0015                     l9912:	
  3203  0015  1683               	bsf	status, 5	;RP0=1, select bank3
  3204  0016  1703               	bsf	status, 6	;RP1=1, select bank3
  3205  0017  082E               	movf	(sprintf@fval+2)^0180h,w
  3206  0018  042D               	iorwf	(sprintf@fval+1)^0180h,w
  3207  0019  042C               	iorwf	(sprintf@fval)^0180h,w
  3208  001A  1903               	skipnz
  3209  001B  281D               	goto	u6081
  3210  001C  281E               	goto	u6080
  3211  001D                     u6081:
  3212  001D  2928               	goto	l9934
  3213  001E                     u6080:
  3214                           	
  3215  001E                     l9914:	
  3216  001E  082C               	movf	(sprintf@fval)^0180h,w
  3217  001F  1683               	bsf	status, 5	;RP0=1, select bank1
  3218  0020  1303               	bcf	status, 6	;RP1=0, select bank1
  3219  0021  00B4               	movwf	(?___fttol)^080h
  3220  0022  1683               	bsf	status, 5	;RP0=1, select bank3
  3221  0023  1703               	bsf	status, 6	;RP1=1, select bank3
  3222  0024  082D               	movf	(sprintf@fval+1)^0180h,w
  3223  0025  1683               	bsf	status, 5	;RP0=1, select bank1
  3224  0026  1303               	bcf	status, 6	;RP1=0, select bank1
  3225  0027  00B5               	movwf	(?___fttol+1)^080h
  3226  0028  1683               	bsf	status, 5	;RP0=1, select bank3
  3227  0029  1703               	bsf	status, 6	;RP1=1, select bank3
  3228  002A  082E               	movf	(sprintf@fval+2)^0180h,w
  3229  002B  1683               	bsf	status, 5	;RP0=1, select bank1
  3230  002C  1303               	bcf	status, 6	;RP1=0, select bank1
  3231  002D  00B6               	movwf	(?___fttol+2)^080h
  3232  002E  160A  158A  275A   	fcall	___fttol
              120A  118A         
  3233  0033  1683               	bsf	status, 5	;RP0=1, select bank1
  3234  0034  1303               	bcf	status, 6	;RP1=0, select bank1
  3235  0035  0837               	movf	(3+(?___fttol))^080h,w
  3236  0036  0436               	iorwf	(2+(?___fttol))^080h,w
  3237  0037  0435               	iorwf	(1+(?___fttol))^080h,w
  3238  0038  0434               	iorwf	(0+(?___fttol))^080h,w
  3239  0039  1D03               	skipz
  3240  003A  283C               	goto	u6091
  3241  003B  283D               	goto	u6090
  3242  003C                     u6091:
  3243  003C  2928               	goto	l9934
  3244  003D                     u6090:
  3245                           	
  3246  003D                     l9916:	
  3247  003D  1683               	bsf	status, 5	;RP0=1, select bank3
  3248  003E  1703               	bsf	status, 6	;RP1=1, select bank3
  3249  003F  0829               	movf	(sprintf@exp+1)^0180h,w
  3250  0040  3A80               	xorlw	80h
  3251  0041  00FF               	movwf	btemp+1
  3252  0042  3080               	movlw	(high(02h))^80h
  3253  0043  027F               	subwf	btemp+1,w
  3254  0044  1D03               	skipz
  3255  0045  2848               	goto	u6105
  3256  0046  3002               	movlw	low(02h)
  3257  0047  0228               	subwf	(sprintf@exp)^0180h,w
  3258  0048                     u6105:
  3259                           
  3260  0048  1C03               	skipc
  3261  0049  284B               	goto	u6101
  3262  004A  284C               	goto	u6100
  3263  004B                     u6101:
  3264  004B  2928               	goto	l9934
  3265  004C                     u6100:
  3266  004C  284D               	goto	l9918
  3267                           	
  3268  004D                     l4333:	
  3269                           	line	1123
  3270                           	
  3271  004D                     l9918:	
  3272  004D  1683               	bsf	status, 5	;RP0=1, select bank3
  3273  004E  1703               	bsf	status, 6	;RP1=1, select bank3
  3274  004F  081F               	movf	(sprintf@integ)^0180h,w
  3275  0050  1683               	bsf	status, 5	;RP0=1, select bank1
  3276  0051  1303               	bcf	status, 6	;RP1=0, select bank1
  3277  0052  00A0               	movwf	(?___ftge)^080h
  3278  0053  1683               	bsf	status, 5	;RP0=1, select bank3
  3279  0054  1703               	bsf	status, 6	;RP1=1, select bank3
  3280  0055  0820               	movf	(sprintf@integ+1)^0180h,w
  3281  0056  1683               	bsf	status, 5	;RP0=1, select bank1
  3282  0057  1303               	bcf	status, 6	;RP1=0, select bank1
  3283  0058  00A1               	movwf	(?___ftge+1)^080h
  3284  0059  1683               	bsf	status, 5	;RP0=1, select bank3
  3285  005A  1703               	bsf	status, 6	;RP1=1, select bank3
  3286  005B  0821               	movf	(sprintf@integ+2)^0180h,w
  3287  005C  1683               	bsf	status, 5	;RP0=1, select bank1
  3288  005D  1303               	bcf	status, 6	;RP1=0, select bank1
  3289  005E  00A2               	movwf	(?___ftge+2)^080h
  3290  005F  3070               	movlw	0x70
  3291  0060  00A3               	movwf	0+(?___ftge)^080h+03h
  3292  0061  3089               	movlw	0x89
  3293  0062  00A4               	movwf	1+(?___ftge)^080h+03h
  3294  0063  3040               	movlw	0x40
  3295  0064  00A5               	movwf	2+(?___ftge)^080h+03h
  3296  0065  160A  158A  250E   	fcall	___ftge
              120A  118A         
  3297  006A  1803               	btfsc	status,0
  3298  006B  286D               	goto	u6111
  3299  006C  286E               	goto	u6110
  3300  006D                     u6111:
  3301  006D  2877               	goto	l9922
  3302  006E                     u6110:
  3303                           	line	1124
  3304                           	
  3305  006E                     l9920:	
  3306  006E  30F7               	movlw	low(-9)
  3307  006F  1683               	bsf	status, 5	;RP0=1, select bank3
  3308  0070  1703               	bsf	status, 6	;RP1=1, select bank3
  3309  0071  07A8               	addwf	(sprintf@exp)^0180h,f
  3310  0072  1803               	skipnc
  3311  0073  0AA9               	incf	(sprintf@exp+1)^0180h,f
  3312  0074  30FF               	movlw	high(-9)
  3313  0075  07A9               	addwf	(sprintf@exp+1)^0180h,f
  3314                           	line	1125
  3315  0076  2880               	goto	l9924
  3316                           	
  3317  0077                     l4334:	
  3318                           	line	1126
  3319                           	
  3320  0077                     l9922:	
  3321  0077  30F8               	movlw	low(-8)
  3322  0078  1683               	bsf	status, 5	;RP0=1, select bank3
  3323  0079  1703               	bsf	status, 6	;RP1=1, select bank3
  3324  007A  07A8               	addwf	(sprintf@exp)^0180h,f
  3325  007B  1803               	skipnc
  3326  007C  0AA9               	incf	(sprintf@exp+1)^0180h,f
  3327  007D  30FF               	movlw	high(-8)
  3328  007E  07A9               	addwf	(sprintf@exp+1)^0180h,f
  3329  007F  2880               	goto	l9924
  3330                           	line	1127
  3331                           	
  3332  0080                     l4335:	
  3333                           	line	1128
  3334                           	
  3335  0080                     l9924:	
  3336  0080  0828               	movf	(sprintf@exp)^0180h,w
  3337  0081  120A  158A  2529   	fcall	_scale
              120A  118A         
  3338  0086  1683               	bsf	status, 5	;RP0=1, select bank1
  3339  0087  1303               	bcf	status, 6	;RP1=0, select bank1
  3340  0088  0852               	movf	(0+(?_scale))^080h,w
  3341  0089  1683               	bsf	status, 5	;RP0=1, select bank3
  3342  008A  1703               	bsf	status, 6	;RP1=1, select bank3
  3343  008B  009F               	movwf	(sprintf@integ)^0180h
  3344  008C  1683               	bsf	status, 5	;RP0=1, select bank1
  3345  008D  1303               	bcf	status, 6	;RP1=0, select bank1
  3346  008E  0853               	movf	(1+(?_scale))^080h,w
  3347  008F  1683               	bsf	status, 5	;RP0=1, select bank3
  3348  0090  1703               	bsf	status, 6	;RP1=1, select bank3
  3349  0091  00A0               	movwf	(sprintf@integ+1)^0180h
  3350  0092  1683               	bsf	status, 5	;RP0=1, select bank1
  3351  0093  1303               	bcf	status, 6	;RP1=0, select bank1
  3352  0094  0854               	movf	(2+(?_scale))^080h,w
  3353  0095  1683               	bsf	status, 5	;RP0=1, select bank3
  3354  0096  1703               	bsf	status, 6	;RP1=1, select bank3
  3355  0097  00A1               	movwf	(sprintf@integ+2)^0180h
  3356                           	line	1129
  3357  0098  28D9               	goto	l9928
  3358                           	
  3359  0099                     l9926:	
  3360  0099  082C               	movf	(sprintf@fval)^0180h,w
  3361  009A  1683               	bsf	status, 5	;RP0=1, select bank1
  3362  009B  1303               	bcf	status, 6	;RP1=0, select bank1
  3363  009C  00A0               	movwf	(?__div_to_l_)^080h
  3364  009D  1683               	bsf	status, 5	;RP0=1, select bank3
  3365  009E  1703               	bsf	status, 6	;RP1=1, select bank3
  3366  009F  082D               	movf	(sprintf@fval+1)^0180h,w
  3367  00A0  1683               	bsf	status, 5	;RP0=1, select bank1
  3368  00A1  1303               	bcf	status, 6	;RP1=0, select bank1
  3369  00A2  00A1               	movwf	(?__div_to_l_+1)^080h
  3370  00A3  1683               	bsf	status, 5	;RP0=1, select bank3
  3371  00A4  1703               	bsf	status, 6	;RP1=1, select bank3
  3372  00A5  082E               	movf	(sprintf@fval+2)^0180h,w
  3373  00A6  1683               	bsf	status, 5	;RP0=1, select bank1
  3374  00A7  1303               	bcf	status, 6	;RP1=0, select bank1
  3375  00A8  00A2               	movwf	(?__div_to_l_+2)^080h
  3376  00A9  1683               	bsf	status, 5	;RP0=1, select bank3
  3377  00AA  1703               	bsf	status, 6	;RP1=1, select bank3
  3378  00AB  081F               	movf	(sprintf@integ)^0180h,w
  3379  00AC  1683               	bsf	status, 5	;RP0=1, select bank1
  3380  00AD  1303               	bcf	status, 6	;RP1=0, select bank1
  3381  00AE  00A3               	movwf	0+(?__div_to_l_)^080h+03h
  3382  00AF  1683               	bsf	status, 5	;RP0=1, select bank3
  3383  00B0  1703               	bsf	status, 6	;RP1=1, select bank3
  3384  00B1  0820               	movf	(sprintf@integ+1)^0180h,w
  3385  00B2  1683               	bsf	status, 5	;RP0=1, select bank1
  3386  00B3  1303               	bcf	status, 6	;RP1=0, select bank1
  3387  00B4  00A4               	movwf	1+(?__div_to_l_)^080h+03h
  3388  00B5  1683               	bsf	status, 5	;RP0=1, select bank3
  3389  00B6  1703               	bsf	status, 6	;RP1=1, select bank3
  3390  00B7  0821               	movf	(sprintf@integ+2)^0180h,w
  3391  00B8  1683               	bsf	status, 5	;RP0=1, select bank1
  3392  00B9  1303               	bcf	status, 6	;RP1=0, select bank1
  3393  00BA  00A5               	movwf	2+(?__div_to_l_)^080h+03h
  3394  00BB  160A  118A  2542   	fcall	__div_to_l_
              120A  118A         
  3395  00C0  1683               	bsf	status, 5	;RP0=1, select bank1
  3396  00C1  1303               	bcf	status, 6	;RP1=0, select bank1
  3397  00C2  0823               	movf	(3+(?__div_to_l_))^080h,w
  3398  00C3  1683               	bsf	status, 5	;RP0=1, select bank3
  3399  00C4  1703               	bsf	status, 6	;RP1=1, select bank3
  3400  00C5  009D               	movwf	(_sprintf$5503+3)^0180h
  3401  00C6  1683               	bsf	status, 5	;RP0=1, select bank1
  3402  00C7  1303               	bcf	status, 6	;RP1=0, select bank1
  3403  00C8  0822               	movf	(2+(?__div_to_l_))^080h,w
  3404  00C9  1683               	bsf	status, 5	;RP0=1, select bank3
  3405  00CA  1703               	bsf	status, 6	;RP1=1, select bank3
  3406  00CB  009C               	movwf	(_sprintf$5503+2)^0180h
  3407  00CC  1683               	bsf	status, 5	;RP0=1, select bank1
  3408  00CD  1303               	bcf	status, 6	;RP1=0, select bank1
  3409  00CE  0821               	movf	(1+(?__div_to_l_))^080h,w
  3410  00CF  1683               	bsf	status, 5	;RP0=1, select bank3
  3411  00D0  1703               	bsf	status, 6	;RP1=1, select bank3
  3412  00D1  009B               	movwf	(_sprintf$5503+1)^0180h
  3413  00D2  1683               	bsf	status, 5	;RP0=1, select bank1
  3414  00D3  1303               	bcf	status, 6	;RP1=0, select bank1
  3415  00D4  0820               	movf	(0+(?__div_to_l_))^080h,w
  3416  00D5  1683               	bsf	status, 5	;RP0=1, select bank3
  3417  00D6  1703               	bsf	status, 6	;RP1=1, select bank3
  3418  00D7  009A               	movwf	(_sprintf$5503)^0180h
  3419                           
  3420  00D8  2919               	goto	l9930
  3421                           	
  3422  00D9                     l4337:	
  3423                           	
  3424  00D9                     l9928:	
  3425  00D9  082C               	movf	(sprintf@fval)^0180h,w
  3426  00DA  1683               	bsf	status, 5	;RP0=1, select bank1
  3427  00DB  1303               	bcf	status, 6	;RP1=0, select bank1
  3428  00DC  00A0               	movwf	(?__tdiv_to_l_)^080h
  3429  00DD  1683               	bsf	status, 5	;RP0=1, select bank3
  3430  00DE  1703               	bsf	status, 6	;RP1=1, select bank3
  3431  00DF  082D               	movf	(sprintf@fval+1)^0180h,w
  3432  00E0  1683               	bsf	status, 5	;RP0=1, select bank1
  3433  00E1  1303               	bcf	status, 6	;RP1=0, select bank1
  3434  00E2  00A1               	movwf	(?__tdiv_to_l_+1)^080h
  3435  00E3  1683               	bsf	status, 5	;RP0=1, select bank3
  3436  00E4  1703               	bsf	status, 6	;RP1=1, select bank3
  3437  00E5  082E               	movf	(sprintf@fval+2)^0180h,w
  3438  00E6  1683               	bsf	status, 5	;RP0=1, select bank1
  3439  00E7  1303               	bcf	status, 6	;RP1=0, select bank1
  3440  00E8  00A2               	movwf	(?__tdiv_to_l_+2)^080h
  3441  00E9  1683               	bsf	status, 5	;RP0=1, select bank3
  3442  00EA  1703               	bsf	status, 6	;RP1=1, select bank3
  3443  00EB  081F               	movf	(sprintf@integ)^0180h,w
  3444  00EC  1683               	bsf	status, 5	;RP0=1, select bank1
  3445  00ED  1303               	bcf	status, 6	;RP1=0, select bank1
  3446  00EE  00A3               	movwf	0+(?__tdiv_to_l_)^080h+03h
  3447  00EF  1683               	bsf	status, 5	;RP0=1, select bank3
  3448  00F0  1703               	bsf	status, 6	;RP1=1, select bank3
  3449  00F1  0820               	movf	(sprintf@integ+1)^0180h,w
  3450  00F2  1683               	bsf	status, 5	;RP0=1, select bank1
  3451  00F3  1303               	bcf	status, 6	;RP1=0, select bank1
  3452  00F4  00A4               	movwf	1+(?__tdiv_to_l_)^080h+03h
  3453  00F5  1683               	bsf	status, 5	;RP0=1, select bank3
  3454  00F6  1703               	bsf	status, 6	;RP1=1, select bank3
  3455  00F7  0821               	movf	(sprintf@integ+2)^0180h,w
  3456  00F8  1683               	bsf	status, 5	;RP0=1, select bank1
  3457  00F9  1303               	bcf	status, 6	;RP1=0, select bank1
  3458  00FA  00A5               	movwf	2+(?__tdiv_to_l_)^080h+03h
  3459  00FB  160A  118A  2284   	fcall	__tdiv_to_l_
              120A  118A         
  3460  0100  1683               	bsf	status, 5	;RP0=1, select bank1
  3461  0101  1303               	bcf	status, 6	;RP1=0, select bank1
  3462  0102  0823               	movf	(3+(?__tdiv_to_l_))^080h,w
  3463  0103  1683               	bsf	status, 5	;RP0=1, select bank3
  3464  0104  1703               	bsf	status, 6	;RP1=1, select bank3
  3465  0105  009D               	movwf	(_sprintf$5503+3)^0180h
  3466  0106  1683               	bsf	status, 5	;RP0=1, select bank1
  3467  0107  1303               	bcf	status, 6	;RP1=0, select bank1
  3468  0108  0822               	movf	(2+(?__tdiv_to_l_))^080h,w
  3469  0109  1683               	bsf	status, 5	;RP0=1, select bank3
  3470  010A  1703               	bsf	status, 6	;RP1=1, select bank3
  3471  010B  009C               	movwf	(_sprintf$5503+2)^0180h
  3472  010C  1683               	bsf	status, 5	;RP0=1, select bank1
  3473  010D  1303               	bcf	status, 6	;RP1=0, select bank1
  3474  010E  0821               	movf	(1+(?__tdiv_to_l_))^080h,w
  3475  010F  1683               	bsf	status, 5	;RP0=1, select bank3
  3476  0110  1703               	bsf	status, 6	;RP1=1, select bank3
  3477  0111  009B               	movwf	(_sprintf$5503+1)^0180h
  3478  0112  1683               	bsf	status, 5	;RP0=1, select bank1
  3479  0113  1303               	bcf	status, 6	;RP1=0, select bank1
  3480  0114  0820               	movf	(0+(?__tdiv_to_l_))^080h,w
  3481  0115  1683               	bsf	status, 5	;RP0=1, select bank3
  3482  0116  1703               	bsf	status, 6	;RP1=1, select bank3
  3483  0117  009A               	movwf	(_sprintf$5503)^0180h
  3484                           
  3485  0118  2919               	goto	l9930
  3486                           	
  3487  0119                     l4339:	
  3488                           	
  3489  0119                     l9930:	
  3490  0119  081D               	movf	(_sprintf$5503+3)^0180h,w
  3491  011A  00A5               	movwf	(sprintf@_val+3)^0180h
  3492  011B  081C               	movf	(_sprintf$5503+2)^0180h,w
  3493  011C  00A4               	movwf	(sprintf@_val+2)^0180h
  3494  011D  081B               	movf	(_sprintf$5503+1)^0180h,w
  3495  011E  00A3               	movwf	(sprintf@_val+1)^0180h
  3496  011F  081A               	movf	(_sprintf$5503)^0180h,w
  3497  0120  00A2               	movwf	(sprintf@_val)^0180h
  3498                           
  3499                           	line	1132
  3500                           	
  3501  0121                     l9932:	
  3502  0121  3000               	movlw	0x0
  3503  0122  00AC               	movwf	(sprintf@fval)^0180h
  3504  0123  3000               	movlw	0x0
  3505  0124  00AD               	movwf	(sprintf@fval+1)^0180h
  3506  0125  3000               	movlw	0x0
  3507  0126  00AE               	movwf	(sprintf@fval+2)^0180h
  3508                           	line	1133
  3509  0127  29A6               	goto	l9938
  3510                           	
  3511  0128                     l4331:	
  3512                           	line	1134
  3513                           	
  3514  0128                     l9934:	
  3515  0128  1683               	bsf	status, 5	;RP0=1, select bank3
  3516  0129  1703               	bsf	status, 6	;RP1=1, select bank3
  3517  012A  082C               	movf	(sprintf@fval)^0180h,w
  3518  012B  1683               	bsf	status, 5	;RP0=1, select bank1
  3519  012C  1303               	bcf	status, 6	;RP1=0, select bank1
  3520  012D  00B4               	movwf	(?___fttol)^080h
  3521  012E  1683               	bsf	status, 5	;RP0=1, select bank3
  3522  012F  1703               	bsf	status, 6	;RP1=1, select bank3
  3523  0130  082D               	movf	(sprintf@fval+1)^0180h,w
  3524  0131  1683               	bsf	status, 5	;RP0=1, select bank1
  3525  0132  1303               	bcf	status, 6	;RP1=0, select bank1
  3526  0133  00B5               	movwf	(?___fttol+1)^080h
  3527  0134  1683               	bsf	status, 5	;RP0=1, select bank3
  3528  0135  1703               	bsf	status, 6	;RP1=1, select bank3
  3529  0136  082E               	movf	(sprintf@fval+2)^0180h,w
  3530  0137  1683               	bsf	status, 5	;RP0=1, select bank1
  3531  0138  1303               	bcf	status, 6	;RP1=0, select bank1
  3532  0139  00B6               	movwf	(?___fttol+2)^080h
  3533  013A  160A  158A  275A   	fcall	___fttol
              120A  118A         
  3534  013F  1683               	bsf	status, 5	;RP0=1, select bank1
  3535  0140  1303               	bcf	status, 6	;RP1=0, select bank1
  3536  0141  0837               	movf	(3+(?___fttol))^080h,w
  3537  0142  1683               	bsf	status, 5	;RP0=1, select bank3
  3538  0143  1703               	bsf	status, 6	;RP1=1, select bank3
  3539  0144  00A5               	movwf	(sprintf@_val+3)^0180h
  3540  0145  1683               	bsf	status, 5	;RP0=1, select bank1
  3541  0146  1303               	bcf	status, 6	;RP1=0, select bank1
  3542  0147  0836               	movf	(2+(?___fttol))^080h,w
  3543  0148  1683               	bsf	status, 5	;RP0=1, select bank3
  3544  0149  1703               	bsf	status, 6	;RP1=1, select bank3
  3545  014A  00A4               	movwf	(sprintf@_val+2)^0180h
  3546  014B  1683               	bsf	status, 5	;RP0=1, select bank1
  3547  014C  1303               	bcf	status, 6	;RP1=0, select bank1
  3548  014D  0835               	movf	(1+(?___fttol))^080h,w
  3549  014E  1683               	bsf	status, 5	;RP0=1, select bank3
  3550  014F  1703               	bsf	status, 6	;RP1=1, select bank3
  3551  0150  00A3               	movwf	(sprintf@_val+1)^0180h
  3552  0151  1683               	bsf	status, 5	;RP0=1, select bank1
  3553  0152  1303               	bcf	status, 6	;RP1=0, select bank1
  3554  0153  0834               	movf	(0+(?___fttol))^080h,w
  3555  0154  1683               	bsf	status, 5	;RP0=1, select bank3
  3556  0155  1703               	bsf	status, 6	;RP1=1, select bank3
  3557  0156  00A2               	movwf	(sprintf@_val)^0180h
  3558                           
  3559                           	line	1135
  3560  0157  0825               	movf	(sprintf@_val+3)^0180h,w
  3561  0158  1683               	bsf	status, 5	;RP0=1, select bank1
  3562  0159  1303               	bcf	status, 6	;RP1=0, select bank1
  3563  015A  00AB               	movwf	(?___lltoft+3)^080h
  3564  015B  1683               	bsf	status, 5	;RP0=1, select bank3
  3565  015C  1703               	bsf	status, 6	;RP1=1, select bank3
  3566  015D  0824               	movf	(sprintf@_val+2)^0180h,w
  3567  015E  1683               	bsf	status, 5	;RP0=1, select bank1
  3568  015F  1303               	bcf	status, 6	;RP1=0, select bank1
  3569  0160  00AA               	movwf	(?___lltoft+2)^080h
  3570  0161  1683               	bsf	status, 5	;RP0=1, select bank3
  3571  0162  1703               	bsf	status, 6	;RP1=1, select bank3
  3572  0163  0823               	movf	(sprintf@_val+1)^0180h,w
  3573  0164  1683               	bsf	status, 5	;RP0=1, select bank1
  3574  0165  1303               	bcf	status, 6	;RP1=0, select bank1
  3575  0166  00A9               	movwf	(?___lltoft+1)^080h
  3576  0167  1683               	bsf	status, 5	;RP0=1, select bank3
  3577  0168  1703               	bsf	status, 6	;RP1=1, select bank3
  3578  0169  0822               	movf	(sprintf@_val)^0180h,w
  3579  016A  1683               	bsf	status, 5	;RP0=1, select bank1
  3580  016B  1303               	bcf	status, 6	;RP1=0, select bank1
  3581  016C  00A8               	movwf	(?___lltoft)^080h
  3582                           
  3583  016D  160A  158A  231F   	fcall	___lltoft
              120A  118A         
  3584  0172  1683               	bsf	status, 5	;RP0=1, select bank1
  3585  0173  1303               	bcf	status, 6	;RP1=0, select bank1
  3586  0174  0828               	movf	(0+(?___lltoft))^080h,w
  3587  0175  00DF               	movwf	(?___ftsub)^080h
  3588  0176  0829               	movf	(1+(?___lltoft))^080h,w
  3589  0177  00E0               	movwf	(?___ftsub+1)^080h
  3590  0178  082A               	movf	(2+(?___lltoft))^080h,w
  3591  0179  00E1               	movwf	(?___ftsub+2)^080h
  3592  017A  1683               	bsf	status, 5	;RP0=1, select bank3
  3593  017B  1703               	bsf	status, 6	;RP1=1, select bank3
  3594  017C  082C               	movf	(sprintf@fval)^0180h,w
  3595  017D  1683               	bsf	status, 5	;RP0=1, select bank1
  3596  017E  1303               	bcf	status, 6	;RP1=0, select bank1
  3597  017F  00E2               	movwf	0+(?___ftsub)^080h+03h
  3598  0180  1683               	bsf	status, 5	;RP0=1, select bank3
  3599  0181  1703               	bsf	status, 6	;RP1=1, select bank3
  3600  0182  082D               	movf	(sprintf@fval+1)^0180h,w
  3601  0183  1683               	bsf	status, 5	;RP0=1, select bank1
  3602  0184  1303               	bcf	status, 6	;RP1=0, select bank1
  3603  0185  00E3               	movwf	1+(?___ftsub)^080h+03h
  3604  0186  1683               	bsf	status, 5	;RP0=1, select bank3
  3605  0187  1703               	bsf	status, 6	;RP1=1, select bank3
  3606  0188  082E               	movf	(sprintf@fval+2)^0180h,w
  3607  0189  1683               	bsf	status, 5	;RP0=1, select bank1
  3608  018A  1303               	bcf	status, 6	;RP1=0, select bank1
  3609  018B  00E4               	movwf	2+(?___ftsub)^080h+03h
  3610  018C  160A  158A  225C   	fcall	___ftsub
              120A  118A         
  3611  0191  1683               	bsf	status, 5	;RP0=1, select bank1
  3612  0192  1303               	bcf	status, 6	;RP1=0, select bank1
  3613  0193  085F               	movf	(0+(?___ftsub))^080h,w
  3614  0194  1683               	bsf	status, 5	;RP0=1, select bank3
  3615  0195  1703               	bsf	status, 6	;RP1=1, select bank3
  3616  0196  00AC               	movwf	(sprintf@fval)^0180h
  3617  0197  1683               	bsf	status, 5	;RP0=1, select bank1
  3618  0198  1303               	bcf	status, 6	;RP1=0, select bank1
  3619  0199  0860               	movf	(1+(?___ftsub))^080h,w
  3620  019A  1683               	bsf	status, 5	;RP0=1, select bank3
  3621  019B  1703               	bsf	status, 6	;RP1=1, select bank3
  3622  019C  00AD               	movwf	(sprintf@fval+1)^0180h
  3623  019D  1683               	bsf	status, 5	;RP0=1, select bank1
  3624  019E  1303               	bcf	status, 6	;RP1=0, select bank1
  3625  019F  0861               	movf	(2+(?___ftsub))^080h,w
  3626  01A0  1683               	bsf	status, 5	;RP0=1, select bank3
  3627  01A1  1703               	bsf	status, 6	;RP1=1, select bank3
  3628  01A2  00AE               	movwf	(sprintf@fval+2)^0180h
  3629                           	line	1136
  3630                           	
  3631  01A3                     l9936:	
  3632  01A3  01A8               	clrf	(sprintf@exp)^0180h
  3633  01A4  01A9               	clrf	(sprintf@exp+1)^0180h
  3634  01A5  29A6               	goto	l9938
  3635                           	line	1137
  3636                           	
  3637  01A6                     l4340:	
  3638                           	line	1139
  3639                           	
  3640  01A6                     l9938:	
  3641  01A6  01B2               	clrf	(sprintf@c)^0180h
  3642  01A7  1403               	bsf	status,0
  3643  01A8  0DB2               	rlf	(sprintf@c)^0180h,f
  3644                           	
  3645  01A9                     l9940:	
  3646  01A9  0832               	movf	(sprintf@c)^0180h,w
  3647  01AA  3A0A               	xorlw	0Ah
  3648  01AB  1D03               	skipz
  3649  01AC  29AE               	goto	u6121
  3650  01AD  29AF               	goto	u6120
  3651  01AE                     u6121:
  3652  01AE  29B1               	goto	l9944
  3653  01AF                     u6120:
  3654  01AF  29F4               	goto	l9952
  3655                           	
  3656  01B0                     l9942:	
  3657  01B0  29F4               	goto	l9952
  3658                           	line	1140
  3659                           	
  3660  01B1                     l4341:	
  3661                           	
  3662  01B1                     l9944:	
  3663  01B1  0832               	movf	(sprintf@c)^0180h,w
  3664  01B2  0094               	movwf	(??_sprintf+0)^0180h+0
  3665  01B3  3001               	movlw	(02h)-1
  3666  01B4                     u6135:
  3667  01B4  1003               	clrc
  3668  01B5  0D94               	rlf	(??_sprintf+0)^0180h+0,f
  3669  01B6  3EFF               	addlw	-1
  3670  01B7  1D03               	skipz
  3671  01B8  29B4               	goto	u6135
  3672  01B9  1003               	clrc
  3673  01BA  0D14               	rlf	(??_sprintf+0)^0180h+0,w
  3674  01BB  3E01               	addlw	low((_dpowers-__stringbase))
  3675  01BC  0084               	movwf	fsr0
  3676  01BD  160A  118A  200A   	fcall	stringdir
              120A  118A         
  3677  01C2  0095               	movwf	((??_sprintf+1)^0180h+0)
  3678  01C3  160A  118A  200A   	fcall	stringdir
              120A  118A         
  3679  01C8  0096               	movwf	((??_sprintf+1)^0180h+0+1)
  3680  01C9  160A  118A  200A   	fcall	stringdir
              120A  118A         
  3681  01CE  0097               	movwf	((??_sprintf+1)^0180h+0+2)
  3682  01CF  160A  118A  200A   	fcall	stringdir
              120A  118A         
  3683  01D4  0098               	movwf	((??_sprintf+1)^0180h+0+3)
  3684  01D5  0818               	movf	3+(??_sprintf+1)^0180h+0,w
  3685  01D6  0225               	subwf	(sprintf@_val+3)^0180h,w
  3686  01D7  1D03               	skipz
  3687  01D8  29E3               	goto	u6145
  3688  01D9  0817               	movf	2+(??_sprintf+1)^0180h+0,w
  3689  01DA  0224               	subwf	(sprintf@_val+2)^0180h,w
  3690  01DB  1D03               	skipz
  3691  01DC  29E3               	goto	u6145
  3692  01DD  0816               	movf	1+(??_sprintf+1)^0180h+0,w
  3693  01DE  0223               	subwf	(sprintf@_val+1)^0180h,w
  3694  01DF  1D03               	skipz
  3695  01E0  29E3               	goto	u6145
  3696  01E1  0815               	movf	0+(??_sprintf+1)^0180h+0,w
  3697  01E2  0222               	subwf	(sprintf@_val)^0180h,w
  3698  01E3                     u6145:
  3699  01E3  1803               	skipnc
  3700  01E4  29E6               	goto	u6141
  3701  01E5  29E7               	goto	u6140
  3702  01E6                     u6141:
  3703  01E6  29E9               	goto	l9948
  3704  01E7                     u6140:
  3705  01E7  29F4               	goto	l9952
  3706                           	line	1141
  3707                           	
  3708  01E8                     l9946:	
  3709  01E8  29F4               	goto	l9952
  3710                           	
  3711  01E9                     l4343:	
  3712                           	line	1139
  3713                           	
  3714  01E9                     l9948:	
  3715  01E9  3001               	movlw	(01h)
  3716  01EA  0094               	movwf	(??_sprintf+0)^0180h+0
  3717  01EB  0814               	movf	(??_sprintf+0)^0180h+0,w
  3718  01EC  07B2               	addwf	(sprintf@c)^0180h,f
  3719                           	
  3720  01ED                     l9950:	
  3721  01ED  0832               	movf	(sprintf@c)^0180h,w
  3722  01EE  3A0A               	xorlw	0Ah
  3723  01EF  1D03               	skipz
  3724  01F0  29F2               	goto	u6151
  3725  01F1  29F3               	goto	u6150
  3726  01F2                     u6151:
  3727  01F2  29B1               	goto	l9944
  3728  01F3                     u6150:
  3729  01F3  29F4               	goto	l9952
  3730                           	
  3731  01F4                     l4342:	
  3732                           	line	1145
  3733                           	
  3734  01F4                     l9952:	
  3735  01F4  082F               	movf	(sprintf@prec)^0180h,w
  3736  01F5  0732               	addwf	(sprintf@c)^0180h,w
  3737  01F6  0094               	movwf	(??_sprintf+0)^0180h+0
  3738  01F7  0830               	movf	(sprintf@prec+1)^0180h,w
  3739  01F8  1803               	skipnc
  3740  01F9  0A30               	incf	(sprintf@prec+1)^0180h,w
  3741  01FA  3E00               	addlw	0
  3742  01FB  1BB2               	btfsc	(sprintf@c)^0180h,7
  3743  01FC  3EFF               	addlw	0ffh
  3744  01FD  0095               	movwf	(??_sprintf+0)^0180h+0+1
  3745  01FE  0828               	movf	(sprintf@exp)^0180h,w
  3746  01FF  0714               	addwf	0+(??_sprintf+0)^0180h+0,w
  3747  0200  0096               	movwf	(??_sprintf+2)^0180h+0
  3748  0201  0829               	movf	(sprintf@exp+1)^0180h,w
  3749  0202  1803               	skipnc
  3750  0203  0A29               	incf	(sprintf@exp+1)^0180h,w
  3751  0204  0715               	addwf	1+(??_sprintf+0)^0180h+0,w
  3752  0205  0097               	movwf	1+(??_sprintf+2)^0180h+0
  3753  0206  0816               	movf	0+(??_sprintf+2)^0180h+0,w
  3754  0207  02AA               	subwf	(sprintf@width)^0180h,f
  3755  0208  0817               	movf	1+(??_sprintf+2)^0180h+0,w
  3756  0209  1C03               	skipc
  3757  020A  03AB               	decf	(sprintf@width+1)^0180h,f
  3758  020B  02AB               	subwf	(sprintf@width+1)^0180h,f
  3759                           	line	1150
  3760                           	
  3761  020C                     l9954:	
  3762  020C  0830               	movf	(sprintf@prec+1)^0180h,w
  3763  020D  042F               	iorwf	(sprintf@prec)^0180h,w
  3764  020E  1903               	skipnz
  3765  020F  2A11               	goto	u6161
  3766  0210  2A12               	goto	u6160
  3767  0211                     u6161:
  3768  0211  2A18               	goto	l4344
  3769  0212                     u6160:
  3770                           	line	1151
  3771                           	
  3772  0212                     l9956:	
  3773  0212  30FF               	movlw	low(-1)
  3774  0213  07AA               	addwf	(sprintf@width)^0180h,f
  3775  0214  1803               	skipnc
  3776  0215  0AAB               	incf	(sprintf@width+1)^0180h,f
  3777  0216  30FF               	movlw	high(-1)
  3778  0217  07AB               	addwf	(sprintf@width+1)^0180h,f
  3779                           	
  3780  0218                     l4344:	
  3781                           	line	1152
  3782  0218  3003               	movlw	low(03h)
  3783  0219  0526               	andwf	(sprintf@flag)^0180h,w
  3784  021A  0094               	movwf	(??_sprintf+0)^0180h+0
  3785  021B  3000               	movlw	high(03h)
  3786  021C  0527               	andwf	(sprintf@flag+1)^0180h,w
  3787  021D  0095               	movwf	1+(??_sprintf+0)^0180h+0
  3788  021E  0815               	movf	1+(??_sprintf+0)^0180h+0,w
  3789  021F  0414               	iorwf	0+(??_sprintf+0)^0180h+0,w
  3790  0220  1903               	skipnz
  3791  0221  2A23               	goto	u6171
  3792  0222  2A24               	goto	u6170
  3793  0223                     u6171:
  3794  0223  2A2B               	goto	l9960
  3795  0224                     u6170:
  3796                           	line	1153
  3797                           	
  3798  0224                     l9958:	
  3799  0224  30FF               	movlw	low(-1)
  3800  0225  07AA               	addwf	(sprintf@width)^0180h,f
  3801  0226  1803               	skipnc
  3802  0227  0AAB               	incf	(sprintf@width+1)^0180h,f
  3803  0228  30FF               	movlw	high(-1)
  3804  0229  07AB               	addwf	(sprintf@width+1)^0180h,f
  3805  022A  2A2B               	goto	l9960
  3806                           	
  3807  022B                     l4345:	
  3808                           	line	1156
  3809                           	
  3810  022B                     l9960:	
  3811  022B  1D26               	btfss	(sprintf@flag)^0180h,(2)&7
  3812  022C  2A2E               	goto	u6181
  3813  022D  2A2F               	goto	u6180
  3814  022E                     u6181:
  3815  022E  2A69               	goto	l9978
  3816  022F                     u6180:
  3817  022F  2A45               	goto	l9970
  3818                           	line	1169
  3819                           	
  3820  0230                     l9962:	
  3821  0230  2A45               	goto	l9970
  3822                           	
  3823  0231                     l4348:	
  3824                           	line	1170
  3825                           	
  3826  0231                     l9964:	
  3827  0231  3030               	movlw	(030h)
  3828  0232  1683               	bsf	status, 5	;RP0=1, select bank3
  3829  0233  1703               	bsf	status, 6	;RP1=1, select bank3
  3830  0234  0094               	movwf	(??_sprintf+0)^0180h+0
  3831  0235  0831               	movf	(sprintf@sp)^0180h,w
  3832  0236  0084               	movwf	fsr0
  3833  0237  0814               	movf	(??_sprintf+0)^0180h+0,w
  3834  0238  1783               	bsf	status, 7	;select IRP bank2
  3835  0239  0080               	movwf	indf
  3836                           	
  3837  023A                     l9966:	
  3838  023A  3001               	movlw	(01h)
  3839  023B  0094               	movwf	(??_sprintf+0)^0180h+0
  3840  023C  0814               	movf	(??_sprintf+0)^0180h+0,w
  3841  023D  07B1               	addwf	(sprintf@sp)^0180h,f
  3842                           	line	1171
  3843                           	
  3844  023E                     l9968:	
  3845  023E  30FF               	movlw	low(-1)
  3846  023F  07AA               	addwf	(sprintf@width)^0180h,f
  3847  0240  1803               	skipnc
  3848  0241  0AAB               	incf	(sprintf@width+1)^0180h,f
  3849  0242  30FF               	movlw	high(-1)
  3850  0243  07AB               	addwf	(sprintf@width+1)^0180h,f
  3851  0244  2A45               	goto	l9970
  3852                           	line	1172
  3853                           	
  3854  0245                     l4347:	
  3855                           	line	1169
  3856                           	
  3857  0245                     l9970:	
  3858  0245  082B               	movf	(sprintf@width+1)^0180h,w
  3859  0246  3A80               	xorlw	80h
  3860  0247  00FF               	movwf	btemp+1
  3861  0248  3080               	movlw	(high(01h))^80h
  3862  0249  027F               	subwf	btemp+1,w
  3863  024A  1D03               	skipz
  3864  024B  2A4E               	goto	u6195
  3865  024C  3001               	movlw	low(01h)
  3866  024D  022A               	subwf	(sprintf@width)^0180h,w
  3867  024E                     u6195:
  3868                           
  3869  024E  1803               	skipnc
  3870  024F  2A51               	goto	u6191
  3871  0250  2A52               	goto	u6190
  3872  0251                     u6191:
  3873  0251  2A31               	goto	l9964
  3874  0252                     u6190:
  3875  0252  2B04               	goto	l9990
  3876                           	
  3877  0253                     l4349:	
  3878                           	line	1174
  3879  0253  2B04               	goto	l9990
  3880                           	
  3881  0254                     l4346:	
  3882                           	line	1181
  3883  0254  2A69               	goto	l9978
  3884                           	
  3885  0255                     l4352:	
  3886                           	line	1182
  3887                           	
  3888  0255                     l9972:	
  3889  0255  3020               	movlw	(020h)
  3890  0256  1683               	bsf	status, 5	;RP0=1, select bank3
  3891  0257  1703               	bsf	status, 6	;RP1=1, select bank3
  3892  0258  0094               	movwf	(??_sprintf+0)^0180h+0
  3893  0259  0831               	movf	(sprintf@sp)^0180h,w
  3894  025A  0084               	movwf	fsr0
  3895  025B  0814               	movf	(??_sprintf+0)^0180h+0,w
  3896  025C  1783               	bsf	status, 7	;select IRP bank2
  3897  025D  0080               	movwf	indf
  3898                           	
  3899  025E                     l9974:	
  3900  025E  3001               	movlw	(01h)
  3901  025F  0094               	movwf	(??_sprintf+0)^0180h+0
  3902  0260  0814               	movf	(??_sprintf+0)^0180h+0,w
  3903  0261  07B1               	addwf	(sprintf@sp)^0180h,f
  3904                           	line	1183
  3905                           	
  3906  0262                     l9976:	
  3907  0262  30FF               	movlw	low(-1)
  3908  0263  07AA               	addwf	(sprintf@width)^0180h,f
  3909  0264  1803               	skipnc
  3910  0265  0AAB               	incf	(sprintf@width+1)^0180h,f
  3911  0266  30FF               	movlw	high(-1)
  3912  0267  07AB               	addwf	(sprintf@width+1)^0180h,f
  3913  0268  2A69               	goto	l9978
  3914                           	line	1184
  3915                           	
  3916  0269                     l4351:	
  3917                           	line	1181
  3918                           	
  3919  0269                     l9978:	
  3920  0269  1683               	bsf	status, 5	;RP0=1, select bank3
  3921  026A  1703               	bsf	status, 6	;RP1=1, select bank3
  3922  026B  082B               	movf	(sprintf@width+1)^0180h,w
  3923  026C  3A80               	xorlw	80h
  3924  026D  00FF               	movwf	btemp+1
  3925  026E  3080               	movlw	(high(01h))^80h
  3926  026F  027F               	subwf	btemp+1,w
  3927  0270  1D03               	skipz
  3928  0271  2A74               	goto	u6205
  3929  0272  3001               	movlw	low(01h)
  3930  0273  022A               	subwf	(sprintf@width)^0180h,w
  3931  0274                     u6205:
  3932                           
  3933  0274  1803               	skipnc
  3934  0275  2A77               	goto	u6201
  3935  0276  2A78               	goto	u6200
  3936  0277                     u6201:
  3937  0277  2A55               	goto	l9972
  3938  0278                     u6200:
  3939  0278  2A79               	goto	l9980
  3940                           	
  3941  0279                     l4353:	
  3942                           	line	1189
  3943                           	
  3944  0279                     l9980:	
  3945  0279  3003               	movlw	low(03h)
  3946  027A  1683               	bsf	status, 5	;RP0=1, select bank3
  3947  027B  1703               	bsf	status, 6	;RP1=1, select bank3
  3948  027C  0526               	andwf	(sprintf@flag)^0180h,w
  3949  027D  0094               	movwf	(??_sprintf+0)^0180h+0
  3950  027E  3000               	movlw	high(03h)
  3951  027F  0527               	andwf	(sprintf@flag+1)^0180h,w
  3952  0280  0095               	movwf	1+(??_sprintf+0)^0180h+0
  3953  0281  0815               	movf	1+(??_sprintf+0)^0180h+0,w
  3954  0282  0414               	iorwf	0+(??_sprintf+0)^0180h+0,w
  3955  0283  1903               	skipnz
  3956  0284  2A86               	goto	u6211
  3957  0285  2A87               	goto	u6210
  3958  0286                     u6211:
  3959  0286  2B04               	goto	l9990
  3960  0287                     u6210:
  3961                           	line	1191
  3962                           	
  3963  0287                     l9982:	
  3964  0287  302D               	movlw	(02Dh)
  3965  0288  0094               	movwf	(??_sprintf+0)^0180h+0
  3966  0289  0831               	movf	(sprintf@sp)^0180h,w
  3967  028A  0084               	movwf	fsr0
  3968  028B  0814               	movf	(??_sprintf+0)^0180h+0,w
  3969  028C  1783               	bsf	status, 7	;select IRP bank2
  3970  028D  0080               	movwf	indf
  3971                           	
  3972  028E                     l9984:	
  3973  028E  3001               	movlw	(01h)
  3974  028F  0094               	movwf	(??_sprintf+0)^0180h+0
  3975  0290  0814               	movf	(??_sprintf+0)^0180h+0,w
  3976  0291  07B1               	addwf	(sprintf@sp)^0180h,f
  3977  0292  2B04               	goto	l9990
  3978                           	
  3979  0293                     l4354:	
  3980  0293  2B04               	goto	l9990
  3981                           	line	1196
  3982                           	
  3983  0294                     l4350:	
  3984                           	line	1197
  3985  0294  2B04               	goto	l9990
  3986                           	
  3987  0295                     l4356:	
  3988                           	line	1201
  3989                           	
  3990  0295                     l9986:	
  3991  0295  3000               	movlw	0
  3992  0296  1683               	bsf	status, 5	;RP0=1, select bank1
  3993  0297  1303               	bcf	status, 6	;RP1=0, select bank1
  3994  0298  00B1               	movwf	(?___llmod+3)^080h
  3995  0299  3000               	movlw	0
  3996  029A  00B0               	movwf	(?___llmod+2)^080h
  3997  029B  3000               	movlw	0
  3998  029C  00AF               	movwf	(?___llmod+1)^080h
  3999  029D  300A               	movlw	0Ah
  4000  029E  00AE               	movwf	(?___llmod)^080h
  4001                           
  4002  029F  1683               	bsf	status, 5	;RP0=1, select bank3
  4003  02A0  1703               	bsf	status, 6	;RP1=1, select bank3
  4004  02A1  0832               	movf	(sprintf@c)^0180h,w
  4005  02A2  0094               	movwf	(??_sprintf+0)^0180h+0
  4006  02A3  3001               	movlw	(02h)-1
  4007  02A4                     u6225:
  4008  02A4  1003               	clrc
  4009  02A5  0D94               	rlf	(??_sprintf+0)^0180h+0,f
  4010  02A6  3EFF               	addlw	-1
  4011  02A7  1D03               	skipz
  4012  02A8  2AA4               	goto	u6225
  4013  02A9  1003               	clrc
  4014  02AA  0D14               	rlf	(??_sprintf+0)^0180h+0,w
  4015  02AB  3E01               	addlw	low((_dpowers-__stringbase))
  4016  02AC  0084               	movwf	fsr0
  4017  02AD  160A  118A  200A   	fcall	stringdir
              120A  118A         
  4018  02B2  1683               	bsf	status, 5	;RP0=1, select bank1
  4019  02B3  1303               	bcf	status, 6	;RP1=0, select bank1
  4020  02B4  00A0               	movwf	(?___lldiv)^080h
  4021  02B5  160A  118A  200A   	fcall	stringdir
              120A  118A         
  4022  02BA  00A1               	movwf	(?___lldiv+1)^080h
  4023  02BB  160A  118A  200A   	fcall	stringdir
              120A  118A         
  4024  02C0  00A2               	movwf	(?___lldiv+2)^080h
  4025  02C1  160A  118A  200A   	fcall	stringdir
              120A  118A         
  4026  02C6  00A3               	movwf	(?___lldiv+3)^080h
  4027  02C7  1683               	bsf	status, 5	;RP0=1, select bank3
  4028  02C8  1703               	bsf	status, 6	;RP1=1, select bank3
  4029  02C9  0825               	movf	(sprintf@_val+3)^0180h,w
  4030  02CA  1683               	bsf	status, 5	;RP0=1, select bank1
  4031  02CB  1303               	bcf	status, 6	;RP1=0, select bank1
  4032  02CC  00A7               	movwf	3+(?___lldiv)^080h+04h
  4033  02CD  1683               	bsf	status, 5	;RP0=1, select bank3
  4034  02CE  1703               	bsf	status, 6	;RP1=1, select bank3
  4035  02CF  0824               	movf	(sprintf@_val+2)^0180h,w
  4036  02D0  1683               	bsf	status, 5	;RP0=1, select bank1
  4037  02D1  1303               	bcf	status, 6	;RP1=0, select bank1
  4038  02D2  00A6               	movwf	2+(?___lldiv)^080h+04h
  4039  02D3  1683               	bsf	status, 5	;RP0=1, select bank3
  4040  02D4  1703               	bsf	status, 6	;RP1=1, select bank3
  4041  02D5  0823               	movf	(sprintf@_val+1)^0180h,w
  4042  02D6  1683               	bsf	status, 5	;RP0=1, select bank1
  4043  02D7  1303               	bcf	status, 6	;RP1=0, select bank1
  4044  02D8  00A5               	movwf	1+(?___lldiv)^080h+04h
  4045  02D9  1683               	bsf	status, 5	;RP0=1, select bank3
  4046  02DA  1703               	bsf	status, 6	;RP1=1, select bank3
  4047  02DB  0822               	movf	(sprintf@_val)^0180h,w
  4048  02DC  1683               	bsf	status, 5	;RP0=1, select bank1
  4049  02DD  1303               	bcf	status, 6	;RP1=0, select bank1
  4050  02DE  00A4               	movwf	0+(?___lldiv)^080h+04h
  4051                           
  4052  02DF  160A  158A  257C   	fcall	___lldiv
              120A  118A         
  4053  02E4  1683               	bsf	status, 5	;RP0=1, select bank1
  4054  02E5  1303               	bcf	status, 6	;RP1=0, select bank1
  4055  02E6  0823               	movf	(3+(?___lldiv))^080h,w
  4056  02E7  00B5               	movwf	3+(?___llmod)^080h+04h
  4057  02E8  0822               	movf	(2+(?___lldiv))^080h,w
  4058  02E9  00B4               	movwf	2+(?___llmod)^080h+04h
  4059  02EA  0821               	movf	(1+(?___lldiv))^080h,w
  4060  02EB  00B3               	movwf	1+(?___llmod)^080h+04h
  4061  02EC  0820               	movf	(0+(?___lldiv))^080h,w
  4062  02ED  00B2               	movwf	0+(?___llmod)^080h+04h
  4063                           
  4064  02EE  160A  158A  2448   	fcall	___llmod
              120A  118A         
  4065  02F3  1683               	bsf	status, 5	;RP0=1, select bank1
  4066  02F4  1303               	bcf	status, 6	;RP1=0, select bank1
  4067  02F5  082E               	movf	0+(((0+(?___llmod))^080h)),w
  4068  02F6  3E30               	addlw	030h
  4069  02F7  1683               	bsf	status, 5	;RP0=1, select bank3
  4070  02F8  1703               	bsf	status, 6	;RP1=1, select bank3
  4071  02F9  0095               	movwf	(??_sprintf+1)^0180h+0
  4072  02FA  0831               	movf	(sprintf@sp)^0180h,w
  4073  02FB  0084               	movwf	fsr0
  4074  02FC  0815               	movf	(??_sprintf+1)^0180h+0,w
  4075  02FD  1783               	bsf	status, 7	;select IRP bank2
  4076  02FE  0080               	movwf	indf
  4077                           	
  4078  02FF                     l9988:	
  4079  02FF  3001               	movlw	(01h)
  4080  0300  0094               	movwf	(??_sprintf+0)^0180h+0
  4081  0301  0814               	movf	(??_sprintf+0)^0180h+0,w
  4082  0302  07B1               	addwf	(sprintf@sp)^0180h,f
  4083  0303  2B04               	goto	l9990
  4084                           	line	1203
  4085                           	
  4086  0304                     l4355:	
  4087                           	line	1197
  4088                           	
  4089  0304                     l9990:	
  4090  0304  30FF               	movlw	(-1)
  4091  0305  1683               	bsf	status, 5	;RP0=1, select bank3
  4092  0306  1703               	bsf	status, 6	;RP1=1, select bank3
  4093  0307  0094               	movwf	(??_sprintf+0)^0180h+0
  4094  0308  0814               	movf	(??_sprintf+0)^0180h+0,w
  4095  0309  07B2               	addwf	(sprintf@c)^0180h,f
  4096  030A  0832               	movf	((sprintf@c)^0180h),w
  4097  030B  3AFF               	xorlw	-1
  4098  030C  1D03               	skipz
  4099  030D  2B0F               	goto	u6231
  4100  030E  2B10               	goto	u6230
  4101  030F                     u6231:
  4102  030F  2A95               	goto	l9986
  4103  0310                     u6230:
  4104  0310  2B26               	goto	l9998
  4105                           	
  4106  0311                     l4357:	
  4107                           	line	1204
  4108  0311  2B26               	goto	l9998
  4109                           	
  4110  0312                     l4359:	
  4111                           	line	1205
  4112                           	
  4113  0312                     l9992:	
  4114  0312  3030               	movlw	(030h)
  4115  0313  1683               	bsf	status, 5	;RP0=1, select bank3
  4116  0314  1703               	bsf	status, 6	;RP1=1, select bank3
  4117  0315  0094               	movwf	(??_sprintf+0)^0180h+0
  4118  0316  0831               	movf	(sprintf@sp)^0180h,w
  4119  0317  0084               	movwf	fsr0
  4120  0318  0814               	movf	(??_sprintf+0)^0180h+0,w
  4121  0319  1783               	bsf	status, 7	;select IRP bank2
  4122  031A  0080               	movwf	indf
  4123                           	
  4124  031B                     l9994:	
  4125  031B  3001               	movlw	(01h)
  4126  031C  0094               	movwf	(??_sprintf+0)^0180h+0
  4127  031D  0814               	movf	(??_sprintf+0)^0180h+0,w
  4128  031E  07B1               	addwf	(sprintf@sp)^0180h,f
  4129                           	line	1206
  4130                           	
  4131  031F                     l9996:	
  4132  031F  30FF               	movlw	low(-1)
  4133  0320  07A8               	addwf	(sprintf@exp)^0180h,f
  4134  0321  1803               	skipnc
  4135  0322  0AA9               	incf	(sprintf@exp+1)^0180h,f
  4136  0323  30FF               	movlw	high(-1)
  4137  0324  07A9               	addwf	(sprintf@exp+1)^0180h,f
  4138  0325  2B26               	goto	l9998
  4139                           	line	1207
  4140                           	
  4141  0326                     l4358:	
  4142                           	line	1204
  4143                           	
  4144  0326                     l9998:	
  4145  0326  0829               	movf	(sprintf@exp+1)^0180h,w
  4146  0327  3A80               	xorlw	80h
  4147  0328  00FF               	movwf	btemp+1
  4148  0329  3080               	movlw	(high(01h))^80h
  4149  032A  027F               	subwf	btemp+1,w
  4150  032B  1D03               	skipz
  4151  032C  2B2F               	goto	u6245
  4152  032D  3001               	movlw	low(01h)
  4153  032E  0228               	subwf	(sprintf@exp)^0180h,w
  4154  032F                     u6245:
  4155                           
  4156  032F  1803               	skipnc
  4157  0330  2B32               	goto	u6241
  4158  0331  2B33               	goto	u6240
  4159  0332                     u6241:
  4160  0332  2B12               	goto	l9992
  4161  0333                     u6240:
  4162  0333  2B34               	goto	l10000
  4163                           	
  4164  0334                     l4360:	
  4165                           	line	1208
  4166                           	
  4167  0334                     l10000:	
  4168  0334  1683               	bsf	status, 5	;RP0=1, select bank3
  4169  0335  1703               	bsf	status, 6	;RP1=1, select bank3
  4170  0336  0830               	movf	(sprintf@prec+1)^0180h,w
  4171  0337  3A80               	xorlw	80h
  4172  0338  00FF               	movwf	btemp+1
  4173  0339  3080               	movlw	(high(09h))^80h
  4174  033A  027F               	subwf	btemp+1,w
  4175  033B  1D03               	skipz
  4176  033C  2B3F               	goto	u6255
  4177  033D  3009               	movlw	low(09h)
  4178  033E  022F               	subwf	(sprintf@prec)^0180h,w
  4179  033F                     u6255:
  4180                           
  4181  033F  1C03               	skipc
  4182  0340  2B42               	goto	u6251
  4183  0341  2B43               	goto	u6250
  4184  0342                     u6251:
  4185  0342  2B4A               	goto	l10004
  4186  0343                     u6250:
  4187                           	line	1209
  4188                           	
  4189  0343                     l10002:	
  4190  0343  3008               	movlw	(08h)
  4191  0344  1683               	bsf	status, 5	;RP0=1, select bank3
  4192  0345  1703               	bsf	status, 6	;RP1=1, select bank3
  4193  0346  0094               	movwf	(??_sprintf+0)^0180h+0
  4194  0347  0814               	movf	(??_sprintf+0)^0180h+0,w
  4195  0348  00B2               	movwf	(sprintf@c)^0180h
  4196  0349  2B50               	goto	l4362
  4197                           	line	1210
  4198                           	
  4199  034A                     l4361:	
  4200                           	line	1211
  4201                           	
  4202  034A                     l10004:	
  4203  034A  1683               	bsf	status, 5	;RP0=1, select bank3
  4204  034B  1703               	bsf	status, 6	;RP1=1, select bank3
  4205  034C  082F               	movf	(sprintf@prec)^0180h,w
  4206  034D  0094               	movwf	(??_sprintf+0)^0180h+0
  4207  034E  0814               	movf	(??_sprintf+0)^0180h+0,w
  4208  034F  00B2               	movwf	(sprintf@c)^0180h
  4209                           	
  4210  0350                     l4362:	
  4211                           	line	1212
  4212  0350  0832               	movf	(sprintf@c)^0180h,w
  4213  0351  0094               	movwf	(??_sprintf+0)^0180h+0
  4214  0352  0195               	clrf	(??_sprintf+0)^0180h+0+1
  4215  0353  1B94               	btfsc	(??_sprintf+0)^0180h+0,7
  4216  0354  0395               	decf	(??_sprintf+0)^0180h+0+1,f
  4217  0355  0814               	movf	0+(??_sprintf+0)^0180h+0,w
  4218  0356  02AF               	subwf	(sprintf@prec)^0180h,f
  4219  0357  0815               	movf	1+(??_sprintf+0)^0180h+0,w
  4220  0358  1C03               	skipc
  4221  0359  03B0               	decf	(sprintf@prec+1)^0180h,f
  4222  035A  02B0               	subwf	(sprintf@prec+1)^0180h,f
  4223                           	line	1216
  4224  035B  0832               	movf	(sprintf@c)^0180h,w
  4225  035C  1D03               	skipz
  4226  035D  2B5F               	goto	u6260
  4227  035E  2B6B               	goto	l10010
  4228  035F                     u6260:
  4229                           	line	1218
  4230                           	
  4231  035F                     l10006:	
  4232  035F  302E               	movlw	(02Eh)
  4233  0360  0094               	movwf	(??_sprintf+0)^0180h+0
  4234  0361  0831               	movf	(sprintf@sp)^0180h,w
  4235  0362  0084               	movwf	fsr0
  4236  0363  0814               	movf	(??_sprintf+0)^0180h+0,w
  4237  0364  1783               	bsf	status, 7	;select IRP bank2
  4238  0365  0080               	movwf	indf
  4239                           	
  4240  0366                     l10008:	
  4241  0366  3001               	movlw	(01h)
  4242  0367  0094               	movwf	(??_sprintf+0)^0180h+0
  4243  0368  0814               	movf	(??_sprintf+0)^0180h+0,w
  4244  0369  07B1               	addwf	(sprintf@sp)^0180h,f
  4245  036A  2B6B               	goto	l10010
  4246                           	
  4247  036B                     l4363:	
  4248                           	line	1224
  4249                           	
  4250  036B                     l10010:	
  4251  036B  0832               	movf	(sprintf@c)^0180h,w
  4252  036C  120A  158A  2529   	fcall	_scale
              120A  118A         
  4253  0371  1683               	bsf	status, 5	;RP0=1, select bank1
  4254  0372  1303               	bcf	status, 6	;RP1=0, select bank1
  4255  0373  0852               	movf	(0+(?_scale))^080h,w
  4256  0374  00C5               	movwf	0+(?___ftmul)^080h+03h
  4257  0375  0853               	movf	(1+(?_scale))^080h,w
  4258  0376  00C6               	movwf	1+(?___ftmul)^080h+03h
  4259  0377  0854               	movf	(2+(?_scale))^080h,w
  4260  0378  00C7               	movwf	2+(?___ftmul)^080h+03h
  4261  0379  1683               	bsf	status, 5	;RP0=1, select bank3
  4262  037A  1703               	bsf	status, 6	;RP1=1, select bank3
  4263  037B  082C               	movf	(sprintf@fval)^0180h,w
  4264  037C  1683               	bsf	status, 5	;RP0=1, select bank1
  4265  037D  1303               	bcf	status, 6	;RP1=0, select bank1
  4266  037E  00C2               	movwf	(?___ftmul)^080h
  4267  037F  1683               	bsf	status, 5	;RP0=1, select bank3
  4268  0380  1703               	bsf	status, 6	;RP1=1, select bank3
  4269  0381  082D               	movf	(sprintf@fval+1)^0180h,w
  4270  0382  1683               	bsf	status, 5	;RP0=1, select bank1
  4271  0383  1303               	bcf	status, 6	;RP1=0, select bank1
  4272  0384  00C3               	movwf	(?___ftmul+1)^080h
  4273  0385  1683               	bsf	status, 5	;RP0=1, select bank3
  4274  0386  1703               	bsf	status, 6	;RP1=1, select bank3
  4275  0387  082E               	movf	(sprintf@fval+2)^0180h,w
  4276  0388  1683               	bsf	status, 5	;RP0=1, select bank1
  4277  0389  1303               	bcf	status, 6	;RP1=0, select bank1
  4278  038A  00C4               	movwf	(?___ftmul+2)^080h
  4279  038B  160A  118A  2454   	fcall	___ftmul
              120A  118A         
  4280  0390  1683               	bsf	status, 5	;RP0=1, select bank1
  4281  0391  1303               	bcf	status, 6	;RP1=0, select bank1
  4282  0392  0842               	movf	(0+(?___ftmul))^080h,w
  4283  0393  00B4               	movwf	(?___fttol)^080h
  4284  0394  0843               	movf	(1+(?___ftmul))^080h,w
  4285  0395  00B5               	movwf	(?___fttol+1)^080h
  4286  0396  0844               	movf	(2+(?___ftmul))^080h,w
  4287  0397  00B6               	movwf	(?___fttol+2)^080h
  4288  0398  160A  158A  275A   	fcall	___fttol
              120A  118A         
  4289  039D  1683               	bsf	status, 5	;RP0=1, select bank1
  4290  039E  1303               	bcf	status, 6	;RP1=0, select bank1
  4291  039F  0837               	movf	(3+(?___fttol))^080h,w
  4292  03A0  1683               	bsf	status, 5	;RP0=1, select bank3
  4293  03A1  1703               	bsf	status, 6	;RP1=1, select bank3
  4294  03A2  00A5               	movwf	(sprintf@_val+3)^0180h
  4295  03A3  1683               	bsf	status, 5	;RP0=1, select bank1
  4296  03A4  1303               	bcf	status, 6	;RP1=0, select bank1
  4297  03A5  0836               	movf	(2+(?___fttol))^080h,w
  4298  03A6  1683               	bsf	status, 5	;RP0=1, select bank3
  4299  03A7  1703               	bsf	status, 6	;RP1=1, select bank3
  4300  03A8  00A4               	movwf	(sprintf@_val+2)^0180h
  4301  03A9  1683               	bsf	status, 5	;RP0=1, select bank1
  4302  03AA  1303               	bcf	status, 6	;RP1=0, select bank1
  4303  03AB  0835               	movf	(1+(?___fttol))^080h,w
  4304  03AC  1683               	bsf	status, 5	;RP0=1, select bank3
  4305  03AD  1703               	bsf	status, 6	;RP1=1, select bank3
  4306  03AE  00A3               	movwf	(sprintf@_val+1)^0180h
  4307  03AF  1683               	bsf	status, 5	;RP0=1, select bank1
  4308  03B0  1303               	bcf	status, 6	;RP1=0, select bank1
  4309  03B1  0834               	movf	(0+(?___fttol))^080h,w
  4310  03B2  1683               	bsf	status, 5	;RP0=1, select bank3
  4311  03B3  1703               	bsf	status, 6	;RP1=1, select bank3
  4312  03B4  00A2               	movwf	(sprintf@_val)^0180h
  4313                           
  4314                           	line	1225
  4315  03B5  2C7F               	goto	l4364
  4316                           	
  4317  03B6                     l4365:	
  4318                           	line	1226
  4319                           	
  4320  03B6                     l10012:	
  4321  03B6  3000               	movlw	0
  4322  03B7  1683               	bsf	status, 5	;RP0=1, select bank1
  4323  03B8  1303               	bcf	status, 6	;RP1=0, select bank1
  4324  03B9  00B1               	movwf	(?___llmod+3)^080h
  4325  03BA  3000               	movlw	0
  4326  03BB  00B0               	movwf	(?___llmod+2)^080h
  4327  03BC  3000               	movlw	0
  4328  03BD  00AF               	movwf	(?___llmod+1)^080h
  4329  03BE  300A               	movlw	0Ah
  4330  03BF  00AE               	movwf	(?___llmod)^080h
  4331                           
  4332  03C0  1683               	bsf	status, 5	;RP0=1, select bank3
  4333  03C1  1703               	bsf	status, 6	;RP1=1, select bank3
  4334  03C2  0832               	movf	(sprintf@c)^0180h,w
  4335  03C3  0094               	movwf	(??_sprintf+0)^0180h+0
  4336  03C4  3001               	movlw	(02h)-1
  4337  03C5                     u6275:
  4338  03C5  1003               	clrc
  4339  03C6  0D94               	rlf	(??_sprintf+0)^0180h+0,f
  4340  03C7  3EFF               	addlw	-1
  4341  03C8  1D03               	skipz
  4342  03C9  2BC5               	goto	u6275
  4343  03CA  1003               	clrc
  4344  03CB  0D14               	rlf	(??_sprintf+0)^0180h+0,w
  4345  03CC  3E01               	addlw	low((_dpowers-__stringbase))
  4346  03CD  0084               	movwf	fsr0
  4347  03CE  160A  118A  200A   	fcall	stringdir
              120A  118A         
  4348  03D3  1683               	bsf	status, 5	;RP0=1, select bank1
  4349  03D4  1303               	bcf	status, 6	;RP1=0, select bank1
  4350  03D5  00A0               	movwf	(?___lldiv)^080h
  4351  03D6  160A  118A  200A   	fcall	stringdir
              120A  118A         
  4352  03DB  00A1               	movwf	(?___lldiv+1)^080h
  4353  03DC  160A  118A  200A   	fcall	stringdir
              120A  118A         
  4354  03E1  00A2               	movwf	(?___lldiv+2)^080h
  4355  03E2  160A  118A  200A   	fcall	stringdir
              120A  118A         
  4356  03E7  00A3               	movwf	(?___lldiv+3)^080h
  4357  03E8  1683               	bsf	status, 5	;RP0=1, select bank3
  4358  03E9  1703               	bsf	status, 6	;RP1=1, select bank3
  4359  03EA  0825               	movf	(sprintf@_val+3)^0180h,w
  4360  03EB  1683               	bsf	status, 5	;RP0=1, select bank1
  4361  03EC  1303               	bcf	status, 6	;RP1=0, select bank1
  4362  03ED  00A7               	movwf	3+(?___lldiv)^080h+04h
  4363  03EE  1683               	bsf	status, 5	;RP0=1, select bank3
  4364  03EF  1703               	bsf	status, 6	;RP1=1, select bank3
  4365  03F0  0824               	movf	(sprintf@_val+2)^0180h,w
  4366  03F1  1683               	bsf	status, 5	;RP0=1, select bank1
  4367  03F2  1303               	bcf	status, 6	;RP1=0, select bank1
  4368  03F3  00A6               	movwf	2+(?___lldiv)^080h+04h
  4369  03F4  1683               	bsf	status, 5	;RP0=1, select bank3
  4370  03F5  1703               	bsf	status, 6	;RP1=1, select bank3
  4371  03F6  0823               	movf	(sprintf@_val+1)^0180h,w
  4372  03F7  1683               	bsf	status, 5	;RP0=1, select bank1
  4373  03F8  1303               	bcf	status, 6	;RP1=0, select bank1
  4374  03F9  00A5               	movwf	1+(?___lldiv)^080h+04h
  4375  03FA  1683               	bsf	status, 5	;RP0=1, select bank3
  4376  03FB  1703               	bsf	status, 6	;RP1=1, select bank3
  4377  03FC  0822               	movf	(sprintf@_val)^0180h,w
  4378  03FD  1683               	bsf	status, 5	;RP0=1, select bank1
  4379  03FE  1303               	bcf	status, 6	;RP1=0, select bank1
  4380  03FF  00A4               	movwf	0+(?___lldiv)^080h+04h
  4381                           
  4382  0400  160A  158A  257C   	fcall	___lldiv
              120A  118A         
  4383  0405  1683               	bsf	status, 5	;RP0=1, select bank1
  4384  0406  1303               	bcf	status, 6	;RP1=0, select bank1
  4385  0407  0823               	movf	(3+(?___lldiv))^080h,w
  4386  0408  00B5               	movwf	3+(?___llmod)^080h+04h
  4387  0409  0822               	movf	(2+(?___lldiv))^080h,w
  4388  040A  00B4               	movwf	2+(?___llmod)^080h+04h
  4389  040B  0821               	movf	(1+(?___lldiv))^080h,w
  4390  040C  00B3               	movwf	1+(?___llmod)^080h+04h
  4391  040D  0820               	movf	(0+(?___lldiv))^080h,w
  4392  040E  00B2               	movwf	0+(?___llmod)^080h+04h
  4393                           
  4394  040F  160A  158A  2448   	fcall	___llmod
              120A  118A         
  4395  0414  1683               	bsf	status, 5	;RP0=1, select bank1
  4396  0415  1303               	bcf	status, 6	;RP1=0, select bank1
  4397  0416  082E               	movf	0+(((0+(?___llmod))^080h)),w
  4398  0417  3E30               	addlw	030h
  4399  0418  1683               	bsf	status, 5	;RP0=1, select bank3
  4400  0419  1703               	bsf	status, 6	;RP1=1, select bank3
  4401  041A  0095               	movwf	(??_sprintf+1)^0180h+0
  4402  041B  0831               	movf	(sprintf@sp)^0180h,w
  4403  041C  0084               	movwf	fsr0
  4404  041D  0815               	movf	(??_sprintf+1)^0180h+0,w
  4405  041E  1783               	bsf	status, 7	;select IRP bank2
  4406  041F  0080               	movwf	indf
  4407                           	
  4408  0420                     l10014:	
  4409  0420  3001               	movlw	(01h)
  4410  0421  0094               	movwf	(??_sprintf+0)^0180h+0
  4411  0422  0814               	movf	(??_sprintf+0)^0180h+0,w
  4412  0423  07B1               	addwf	(sprintf@sp)^0180h,f
  4413                           	line	1227
  4414                           	
  4415  0424                     l10016:	
  4416  0424  0832               	movf	(sprintf@c)^0180h,w
  4417  0425  0094               	movwf	(??_sprintf+0)^0180h+0
  4418  0426  3001               	movlw	(02h)-1
  4419  0427                     u6285:
  4420  0427  1003               	clrc
  4421  0428  0D94               	rlf	(??_sprintf+0)^0180h+0,f
  4422  0429  3EFF               	addlw	-1
  4423  042A  1D03               	skipz
  4424  042B  2C27               	goto	u6285
  4425  042C  1003               	clrc
  4426  042D  0D14               	rlf	(??_sprintf+0)^0180h+0,w
  4427  042E  3E01               	addlw	low((_dpowers-__stringbase))
  4428  042F  0084               	movwf	fsr0
  4429  0430  160A  118A  200A   	fcall	stringdir
              120A  118A         
  4430  0435  1683               	bsf	status, 5	;RP0=1, select bank1
  4431  0436  1303               	bcf	status, 6	;RP1=0, select bank1
  4432  0437  00AE               	movwf	(?___llmod)^080h
  4433  0438  160A  118A  200A   	fcall	stringdir
              120A  118A         
  4434  043D  00AF               	movwf	(?___llmod+1)^080h
  4435  043E  160A  118A  200A   	fcall	stringdir
              120A  118A         
  4436  0443  00B0               	movwf	(?___llmod+2)^080h
  4437  0444  160A  118A  200A   	fcall	stringdir
              120A  118A         
  4438  0449  00B1               	movwf	(?___llmod+3)^080h
  4439  044A  1683               	bsf	status, 5	;RP0=1, select bank3
  4440  044B  1703               	bsf	status, 6	;RP1=1, select bank3
  4441  044C  0825               	movf	(sprintf@_val+3)^0180h,w
  4442  044D  1683               	bsf	status, 5	;RP0=1, select bank1
  4443  044E  1303               	bcf	status, 6	;RP1=0, select bank1
  4444  044F  00B5               	movwf	3+(?___llmod)^080h+04h
  4445  0450  1683               	bsf	status, 5	;RP0=1, select bank3
  4446  0451  1703               	bsf	status, 6	;RP1=1, select bank3
  4447  0452  0824               	movf	(sprintf@_val+2)^0180h,w
  4448  0453  1683               	bsf	status, 5	;RP0=1, select bank1
  4449  0454  1303               	bcf	status, 6	;RP1=0, select bank1
  4450  0455  00B4               	movwf	2+(?___llmod)^080h+04h
  4451  0456  1683               	bsf	status, 5	;RP0=1, select bank3
  4452  0457  1703               	bsf	status, 6	;RP1=1, select bank3
  4453  0458  0823               	movf	(sprintf@_val+1)^0180h,w
  4454  0459  1683               	bsf	status, 5	;RP0=1, select bank1
  4455  045A  1303               	bcf	status, 6	;RP1=0, select bank1
  4456  045B  00B3               	movwf	1+(?___llmod)^080h+04h
  4457  045C  1683               	bsf	status, 5	;RP0=1, select bank3
  4458  045D  1703               	bsf	status, 6	;RP1=1, select bank3
  4459  045E  0822               	movf	(sprintf@_val)^0180h,w
  4460  045F  1683               	bsf	status, 5	;RP0=1, select bank1
  4461  0460  1303               	bcf	status, 6	;RP1=0, select bank1
  4462  0461  00B2               	movwf	0+(?___llmod)^080h+04h
  4463                           
  4464  0462  160A  158A  2448   	fcall	___llmod
              120A  118A         
  4465  0467  1683               	bsf	status, 5	;RP0=1, select bank1
  4466  0468  1303               	bcf	status, 6	;RP1=0, select bank1
  4467  0469  0831               	movf	(3+(?___llmod))^080h,w
  4468  046A  1683               	bsf	status, 5	;RP0=1, select bank3
  4469  046B  1703               	bsf	status, 6	;RP1=1, select bank3
  4470  046C  00A5               	movwf	(sprintf@_val+3)^0180h
  4471  046D  1683               	bsf	status, 5	;RP0=1, select bank1
  4472  046E  1303               	bcf	status, 6	;RP1=0, select bank1
  4473  046F  0830               	movf	(2+(?___llmod))^080h,w
  4474  0470  1683               	bsf	status, 5	;RP0=1, select bank3
  4475  0471  1703               	bsf	status, 6	;RP1=1, select bank3
  4476  0472  00A4               	movwf	(sprintf@_val+2)^0180h
  4477  0473  1683               	bsf	status, 5	;RP0=1, select bank1
  4478  0474  1303               	bcf	status, 6	;RP1=0, select bank1
  4479  0475  082F               	movf	(1+(?___llmod))^080h,w
  4480  0476  1683               	bsf	status, 5	;RP0=1, select bank3
  4481  0477  1703               	bsf	status, 6	;RP1=1, select bank3
  4482  0478  00A3               	movwf	(sprintf@_val+1)^0180h
  4483  0479  1683               	bsf	status, 5	;RP0=1, select bank1
  4484  047A  1303               	bcf	status, 6	;RP1=0, select bank1
  4485  047B  082E               	movf	(0+(?___llmod))^080h,w
  4486  047C  1683               	bsf	status, 5	;RP0=1, select bank3
  4487  047D  1703               	bsf	status, 6	;RP1=1, select bank3
  4488  047E  00A2               	movwf	(sprintf@_val)^0180h
  4489                           
  4490                           	line	1228
  4491                           	
  4492  047F                     l4364:	
  4493                           	line	1225
  4494  047F  30FF               	movlw	(-1)
  4495  0480  0094               	movwf	(??_sprintf+0)^0180h+0
  4496  0481  0814               	movf	(??_sprintf+0)^0180h+0,w
  4497  0482  07B2               	addwf	(sprintf@c)^0180h,f
  4498  0483  0832               	movf	((sprintf@c)^0180h),w
  4499  0484  3AFF               	xorlw	-1
  4500  0485  1D03               	skipz
  4501  0486  2C88               	goto	u6291
  4502  0487  2C89               	goto	u6290
  4503  0488                     u6291:
  4504  0488  2BB6               	goto	l10012
  4505  0489                     u6290:
  4506  0489  2C9D               	goto	l10024
  4507                           	
  4508  048A                     l4366:	
  4509                           	line	1230
  4510  048A  2C9D               	goto	l10024
  4511                           	
  4512  048B                     l4368:	
  4513                           	line	1231
  4514                           	
  4515  048B                     l10018:	
  4516  048B  3030               	movlw	(030h)
  4517  048C  0094               	movwf	(??_sprintf+0)^0180h+0
  4518  048D  0831               	movf	(sprintf@sp)^0180h,w
  4519  048E  0084               	movwf	fsr0
  4520  048F  0814               	movf	(??_sprintf+0)^0180h+0,w
  4521  0490  1783               	bsf	status, 7	;select IRP bank2
  4522  0491  0080               	movwf	indf
  4523                           	
  4524  0492                     l10020:	
  4525  0492  3001               	movlw	(01h)
  4526  0493  0094               	movwf	(??_sprintf+0)^0180h+0
  4527  0494  0814               	movf	(??_sprintf+0)^0180h+0,w
  4528  0495  07B1               	addwf	(sprintf@sp)^0180h,f
  4529                           	line	1232
  4530                           	
  4531  0496                     l10022:	
  4532  0496  30FF               	movlw	low(-1)
  4533  0497  07AF               	addwf	(sprintf@prec)^0180h,f
  4534  0498  1803               	skipnc
  4535  0499  0AB0               	incf	(sprintf@prec+1)^0180h,f
  4536  049A  30FF               	movlw	high(-1)
  4537  049B  07B0               	addwf	(sprintf@prec+1)^0180h,f
  4538  049C  2C9D               	goto	l10024
  4539                           	line	1233
  4540                           	
  4541  049D                     l4367:	
  4542                           	line	1230
  4543                           	
  4544  049D                     l10024:	
  4545  049D  0830               	movf	((sprintf@prec+1)^0180h),w
  4546  049E  042F               	iorwf	((sprintf@prec)^0180h),w
  4547  049F  1D03               	skipz
  4548  04A0  2CA2               	goto	u6301
  4549  04A1  2CA3               	goto	u6300
  4550  04A2                     u6301:
  4551  04A2  2C8B               	goto	l10018
  4552  04A3                     u6300:
  4553  04A3  2EC7               	goto	l10122
  4554                           	
  4555  04A4                     l4369:	
  4556                           	line	1240
  4557  04A4  2EC7               	goto	l10122
  4558                           	line	1241
  4559                           	
  4560  04A5                     l4322:	
  4561                           	line	1254
  4562                           	
  4563  04A5                     l10026:	
  4564  04A5  081E               	movf	(sprintf@ap)^0180h,w
  4565  04A6  0084               	movwf	fsr0
  4566  04A7  1783               	bsf	status, 7	;select IRP bank2
  4567  04A8  0800               	movf	indf,w
  4568  04A9  0094               	movwf	(??_sprintf+0)^0180h+0+0
  4569  04AA  0A84               	incf	fsr0,f
  4570  04AB  0800               	movf	indf,w
  4571  04AC  0095               	movwf	(??_sprintf+0)^0180h+0+1
  4572  04AD  0814               	movf	0+(??_sprintf+0)^0180h+0,w
  4573  04AE  00A2               	movwf	(sprintf@_val)^0180h
  4574  04AF  0815               	movf	1+(??_sprintf+0)^0180h+0,w
  4575  04B0  00A3               	movwf	(sprintf@_val+1)^0180h
  4576  04B1  3000               	movlw	0
  4577  04B2  1BA3               	btfsc	(sprintf@_val+1)^0180h,7
  4578  04B3  30FF               	movlw	255
  4579  04B4  00A4               	movwf	(sprintf@_val+2)^0180h
  4580  04B5  00A5               	movwf	(sprintf@_val+3)^0180h
  4581                           	
  4582  04B6                     l10028:	
  4583  04B6  3002               	movlw	(02h)
  4584  04B7  0094               	movwf	(??_sprintf+0)^0180h+0
  4585  04B8  0814               	movf	(??_sprintf+0)^0180h+0,w
  4586  04B9  079E               	addwf	(sprintf@ap)^0180h,f
  4587                           	line	1256
  4588                           	
  4589  04BA                     l10030:	
  4590  04BA  1FA5               	btfss	(sprintf@_val+3)^0180h,7
  4591  04BB  2CBD               	goto	u6311
  4592  04BC  2CBE               	goto	u6310
  4593  04BD                     u6311:
  4594  04BD  2CCE               	goto	l10036
  4595  04BE                     u6310:
  4596                           	line	1257
  4597                           	
  4598  04BE                     l10032:	
  4599  04BE  3003               	movlw	low(03h)
  4600  04BF  04A6               	iorwf	(sprintf@flag)^0180h,f
  4601  04C0  3000               	movlw	high(03h)
  4602  04C1  04A7               	iorwf	(sprintf@flag+1)^0180h,f
  4603                           	line	1258
  4604                           	
  4605  04C2                     l10034:	
  4606  04C2  09A2               	comf	(sprintf@_val)^0180h,f
  4607  04C3  09A3               	comf	(sprintf@_val+1)^0180h,f
  4608  04C4  09A4               	comf	(sprintf@_val+2)^0180h,f
  4609  04C5  09A5               	comf	(sprintf@_val+3)^0180h,f
  4610  04C6  0AA2               	incf	(sprintf@_val)^0180h,f
  4611  04C7  1903               	skipnz
  4612  04C8  0AA3               	incf	(sprintf@_val+1)^0180h,f
  4613  04C9  1903               	skipnz
  4614  04CA  0AA4               	incf	(sprintf@_val+2)^0180h,f
  4615  04CB  1903               	skipnz
  4616  04CC  0AA5               	incf	(sprintf@_val+3)^0180h,f
  4617  04CD  2CCE               	goto	l10036
  4618                           	line	1259
  4619                           	
  4620  04CE                     l4370:	
  4621                           	line	1285
  4622                           	
  4623  04CE                     l10036:	
  4624  04CE  0830               	movf	((sprintf@prec+1)^0180h),w
  4625  04CF  042F               	iorwf	((sprintf@prec)^0180h),w
  4626  04D0  1D03               	skipz
  4627  04D1  2CD3               	goto	u6321
  4628  04D2  2CD4               	goto	u6320
  4629  04D3                     u6321:
  4630  04D3  2CE3               	goto	l10042
  4631  04D4                     u6320:
  4632                           	
  4633  04D4                     l10038:	
  4634  04D4  0825               	movf	(sprintf@_val+3)^0180h,w
  4635  04D5  0424               	iorwf	(sprintf@_val+2)^0180h,w
  4636  04D6  0423               	iorwf	(sprintf@_val+1)^0180h,w
  4637  04D7  0422               	iorwf	(sprintf@_val)^0180h,w
  4638  04D8  1D03               	skipz
  4639  04D9  2CDB               	goto	u6331
  4640  04DA  2CDC               	goto	u6330
  4641  04DB                     u6331:
  4642  04DB  2CE3               	goto	l10042
  4643  04DC                     u6330:
  4644                           	line	1286
  4645                           	
  4646  04DC                     l10040:	
  4647  04DC  3001               	movlw	low(01h)
  4648  04DD  07AF               	addwf	(sprintf@prec)^0180h,f
  4649  04DE  1803               	skipnc
  4650  04DF  0AB0               	incf	(sprintf@prec+1)^0180h,f
  4651  04E0  3000               	movlw	high(01h)
  4652  04E1  07B0               	addwf	(sprintf@prec+1)^0180h,f
  4653  04E2  2CE3               	goto	l10042
  4654                           	
  4655  04E3                     l4371:	
  4656                           	line	1300
  4657                           	
  4658  04E3                     l10042:	
  4659  04E3  01B2               	clrf	(sprintf@c)^0180h
  4660  04E4  1403               	bsf	status,0
  4661  04E5  0DB2               	rlf	(sprintf@c)^0180h,f
  4662                           	
  4663  04E6                     l10044:	
  4664  04E6  0832               	movf	(sprintf@c)^0180h,w
  4665  04E7  3A0A               	xorlw	0Ah
  4666  04E8  1D03               	skipz
  4667  04E9  2CEB               	goto	u6341
  4668  04EA  2CEC               	goto	u6340
  4669  04EB                     u6341:
  4670  04EB  2CEE               	goto	l10048
  4671  04EC                     u6340:
  4672  04EC  2D31               	goto	l10056
  4673                           	
  4674  04ED                     l10046:	
  4675  04ED  2D31               	goto	l10056
  4676                           	line	1301
  4677                           	
  4678  04EE                     l4372:	
  4679                           	
  4680  04EE                     l10048:	
  4681  04EE  0832               	movf	(sprintf@c)^0180h,w
  4682  04EF  0094               	movwf	(??_sprintf+0)^0180h+0
  4683  04F0  3001               	movlw	(02h)-1
  4684  04F1                     u6355:
  4685  04F1  1003               	clrc
  4686  04F2  0D94               	rlf	(??_sprintf+0)^0180h+0,f
  4687  04F3  3EFF               	addlw	-1
  4688  04F4  1D03               	skipz
  4689  04F5  2CF1               	goto	u6355
  4690  04F6  1003               	clrc
  4691  04F7  0D14               	rlf	(??_sprintf+0)^0180h+0,w
  4692  04F8  3E01               	addlw	low((_dpowers-__stringbase))
  4693  04F9  0084               	movwf	fsr0
  4694  04FA  160A  118A  200A   	fcall	stringdir
              120A  118A         
  4695  04FF  0095               	movwf	((??_sprintf+1)^0180h+0)
  4696  0500  160A  118A  200A   	fcall	stringdir
              120A  118A         
  4697  0505  0096               	movwf	((??_sprintf+1)^0180h+0+1)
  4698  0506  160A  118A  200A   	fcall	stringdir
              120A  118A         
  4699  050B  0097               	movwf	((??_sprintf+1)^0180h+0+2)
  4700  050C  160A  118A  200A   	fcall	stringdir
              120A  118A         
  4701  0511  0098               	movwf	((??_sprintf+1)^0180h+0+3)
  4702  0512  0818               	movf	3+(??_sprintf+1)^0180h+0,w
  4703  0513  0225               	subwf	(sprintf@_val+3)^0180h,w
  4704  0514  1D03               	skipz
  4705  0515  2D20               	goto	u6365
  4706  0516  0817               	movf	2+(??_sprintf+1)^0180h+0,w
  4707  0517  0224               	subwf	(sprintf@_val+2)^0180h,w
  4708  0518  1D03               	skipz
  4709  0519  2D20               	goto	u6365
  4710  051A  0816               	movf	1+(??_sprintf+1)^0180h+0,w
  4711  051B  0223               	subwf	(sprintf@_val+1)^0180h,w
  4712  051C  1D03               	skipz
  4713  051D  2D20               	goto	u6365
  4714  051E  0815               	movf	0+(??_sprintf+1)^0180h+0,w
  4715  051F  0222               	subwf	(sprintf@_val)^0180h,w
  4716  0520                     u6365:
  4717  0520  1803               	skipnc
  4718  0521  2D23               	goto	u6361
  4719  0522  2D24               	goto	u6360
  4720  0523                     u6361:
  4721  0523  2D26               	goto	l10052
  4722  0524                     u6360:
  4723  0524  2D31               	goto	l10056
  4724                           	line	1302
  4725                           	
  4726  0525                     l10050:	
  4727  0525  2D31               	goto	l10056
  4728                           	
  4729  0526                     l4374:	
  4730                           	line	1300
  4731                           	
  4732  0526                     l10052:	
  4733  0526  3001               	movlw	(01h)
  4734  0527  0094               	movwf	(??_sprintf+0)^0180h+0
  4735  0528  0814               	movf	(??_sprintf+0)^0180h+0,w
  4736  0529  07B2               	addwf	(sprintf@c)^0180h,f
  4737                           	
  4738  052A                     l10054:	
  4739  052A  0832               	movf	(sprintf@c)^0180h,w
  4740  052B  3A0A               	xorlw	0Ah
  4741  052C  1D03               	skipz
  4742  052D  2D2F               	goto	u6371
  4743  052E  2D30               	goto	u6370
  4744  052F                     u6371:
  4745  052F  2CEE               	goto	l10048
  4746  0530                     u6370:
  4747  0530  2D31               	goto	l10056
  4748                           	
  4749  0531                     l4373:	
  4750                           	line	1334
  4751                           	
  4752  0531                     l10056:	
  4753  0531  0832               	movf	(sprintf@c)^0180h,w
  4754  0532  0094               	movwf	(??_sprintf+0)^0180h+0
  4755  0533  0195               	clrf	(??_sprintf+0)^0180h+0+1
  4756  0534  1B94               	btfsc	(??_sprintf+0)^0180h+0,7
  4757  0535  0395               	decf	(??_sprintf+0)^0180h+0+1,f
  4758  0536  0815               	movf	1+(??_sprintf+0)^0180h+0,w
  4759  0537  3A80               	xorlw	80h
  4760  0538  0096               	movwf	(??_sprintf+2)^0180h+0
  4761  0539  0830               	movf	(sprintf@prec+1)^0180h,w
  4762  053A  3A80               	xorlw	80h
  4763  053B  0216               	subwf	(??_sprintf+2)^0180h+0,w
  4764  053C  1D03               	skipz
  4765  053D  2D40               	goto	u6385
  4766  053E  082F               	movf	(sprintf@prec)^0180h,w
  4767  053F  0214               	subwf	0+(??_sprintf+0)^0180h+0,w
  4768  0540                     u6385:
  4769                           
  4770  0540  1803               	skipnc
  4771  0541  2D43               	goto	u6381
  4772  0542  2D44               	goto	u6380
  4773  0543                     u6381:
  4774  0543  2D4B               	goto	l10060
  4775  0544                     u6380:
  4776                           	line	1335
  4777                           	
  4778  0544                     l10058:	
  4779  0544  1683               	bsf	status, 5	;RP0=1, select bank3
  4780  0545  1703               	bsf	status, 6	;RP1=1, select bank3
  4781  0546  082F               	movf	(sprintf@prec)^0180h,w
  4782  0547  0094               	movwf	(??_sprintf+0)^0180h+0
  4783  0548  0814               	movf	(??_sprintf+0)^0180h+0,w
  4784  0549  00B2               	movwf	(sprintf@c)^0180h
  4785  054A  2D69               	goto	l10064
  4786                           	line	1336
  4787                           	
  4788  054B                     l4375:	
  4789                           	
  4790  054B                     l10060:	
  4791  054B  1683               	bsf	status, 5	;RP0=1, select bank3
  4792  054C  1703               	bsf	status, 6	;RP1=1, select bank3
  4793  054D  0832               	movf	(sprintf@c)^0180h,w
  4794  054E  0094               	movwf	(??_sprintf+0)^0180h+0
  4795  054F  0195               	clrf	(??_sprintf+0)^0180h+0+1
  4796  0550  1B94               	btfsc	(??_sprintf+0)^0180h+0,7
  4797  0551  0395               	decf	(??_sprintf+0)^0180h+0+1,f
  4798  0552  0830               	movf	(sprintf@prec+1)^0180h,w
  4799  0553  3A80               	xorlw	80h
  4800  0554  0096               	movwf	(??_sprintf+2)^0180h+0
  4801  0555  0815               	movf	1+(??_sprintf+0)^0180h+0,w
  4802  0556  3A80               	xorlw	80h
  4803  0557  0216               	subwf	(??_sprintf+2)^0180h+0,w
  4804  0558  1D03               	skipz
  4805  0559  2D5C               	goto	u6395
  4806  055A  0814               	movf	0+(??_sprintf+0)^0180h+0,w
  4807  055B  022F               	subwf	(sprintf@prec)^0180h,w
  4808  055C                     u6395:
  4809                           
  4810  055C  1803               	skipnc
  4811  055D  2D5F               	goto	u6391
  4812  055E  2D60               	goto	u6390
  4813  055F                     u6391:
  4814  055F  2D69               	goto	l10064
  4815  0560                     u6390:
  4816                           	line	1337
  4817                           	
  4818  0560                     l10062:	
  4819  0560  1683               	bsf	status, 5	;RP0=1, select bank3
  4820  0561  1703               	bsf	status, 6	;RP1=1, select bank3
  4821  0562  0832               	movf	(sprintf@c)^0180h,w
  4822  0563  00AF               	movwf	(sprintf@prec)^0180h
  4823  0564  01B0               	clrf	(sprintf@prec+1)^0180h
  4824  0565  1BAF               	btfsc	(sprintf@prec)^0180h,7
  4825  0566  03B0               	decf	(sprintf@prec+1)^0180h,f
  4826  0567  2D69               	goto	l10064
  4827                           	
  4828  0568                     l4377:	
  4829  0568  2D69               	goto	l10064
  4830                           	line	1340
  4831                           	
  4832  0569                     l4376:	
  4833                           	
  4834  0569                     l10064:	
  4835  0569  1683               	bsf	status, 5	;RP0=1, select bank3
  4836  056A  1703               	bsf	status, 6	;RP1=1, select bank3
  4837  056B  082B               	movf	(sprintf@width+1)^0180h,w
  4838  056C  042A               	iorwf	(sprintf@width)^0180h,w
  4839  056D  1903               	skipnz
  4840  056E  2D70               	goto	u6401
  4841  056F  2D71               	goto	u6400
  4842  0570                     u6401:
  4843  0570  2D84               	goto	l10070
  4844  0571                     u6400:
  4845                           	
  4846  0571                     l10066:	
  4847  0571  3003               	movlw	low(03h)
  4848  0572  0526               	andwf	(sprintf@flag)^0180h,w
  4849  0573  0094               	movwf	(??_sprintf+0)^0180h+0
  4850  0574  3000               	movlw	high(03h)
  4851  0575  0527               	andwf	(sprintf@flag+1)^0180h,w
  4852  0576  0095               	movwf	1+(??_sprintf+0)^0180h+0
  4853  0577  0815               	movf	1+(??_sprintf+0)^0180h+0,w
  4854  0578  0414               	iorwf	0+(??_sprintf+0)^0180h+0,w
  4855  0579  1903               	skipnz
  4856  057A  2D7C               	goto	u6411
  4857  057B  2D7D               	goto	u6410
  4858  057C                     u6411:
  4859  057C  2D84               	goto	l10070
  4860  057D                     u6410:
  4861                           	line	1341
  4862                           	
  4863  057D                     l10068:	
  4864  057D  30FF               	movlw	low(-1)
  4865  057E  07AA               	addwf	(sprintf@width)^0180h,f
  4866  057F  1803               	skipnc
  4867  0580  0AAB               	incf	(sprintf@width+1)^0180h,f
  4868  0581  30FF               	movlw	high(-1)
  4869  0582  07AB               	addwf	(sprintf@width+1)^0180h,f
  4870  0583  2D84               	goto	l10070
  4871                           	
  4872  0584                     l4378:	
  4873                           	line	1343
  4874                           	
  4875  0584                     l10070:	
  4876  0584  1F27               	btfss	(sprintf@flag+1)^0180h,(14)&7
  4877  0585  2D87               	goto	u6421
  4878  0586  2D88               	goto	u6420
  4879  0587                     u6421:
  4880  0587  2DA5               	goto	l10078
  4881  0588                     u6420:
  4882                           	line	1344
  4883                           	
  4884  0588                     l10072:	
  4885  0588  0830               	movf	(sprintf@prec+1)^0180h,w
  4886  0589  3A80               	xorlw	80h
  4887  058A  0094               	movwf	(??_sprintf+0)^0180h+0
  4888  058B  082B               	movf	(sprintf@width+1)^0180h,w
  4889  058C  3A80               	xorlw	80h
  4890  058D  0214               	subwf	(??_sprintf+0)^0180h+0,w
  4891  058E  1D03               	skipz
  4892  058F  2D92               	goto	u6435
  4893  0590  082A               	movf	(sprintf@width)^0180h,w
  4894  0591  022F               	subwf	(sprintf@prec)^0180h,w
  4895  0592                     u6435:
  4896                           
  4897  0592  1803               	skipnc
  4898  0593  2D95               	goto	u6431
  4899  0594  2D96               	goto	u6430
  4900  0595                     u6431:
  4901  0595  2D9F               	goto	l10076
  4902  0596                     u6430:
  4903                           	line	1345
  4904                           	
  4905  0596                     l10074:	
  4906  0596  1683               	bsf	status, 5	;RP0=1, select bank3
  4907  0597  1703               	bsf	status, 6	;RP1=1, select bank3
  4908  0598  082F               	movf	(sprintf@prec)^0180h,w
  4909  0599  02AA               	subwf	(sprintf@width)^0180h,f
  4910  059A  0830               	movf	(sprintf@prec+1)^0180h,w
  4911  059B  1C03               	skipc
  4912  059C  03AB               	decf	(sprintf@width+1)^0180h,f
  4913  059D  02AB               	subwf	(sprintf@width+1)^0180h,f
  4914  059E  2DA5               	goto	l10078
  4915                           	line	1346
  4916                           	
  4917  059F                     l4380:	
  4918                           	line	1347
  4919                           	
  4920  059F                     l10076:	
  4921  059F  1683               	bsf	status, 5	;RP0=1, select bank3
  4922  05A0  1703               	bsf	status, 6	;RP1=1, select bank3
  4923  05A1  01AA               	clrf	(sprintf@width)^0180h
  4924  05A2  01AB               	clrf	(sprintf@width+1)^0180h
  4925  05A3  2DA5               	goto	l10078
  4926                           	
  4927  05A4                     l4381:	
  4928  05A4  2DA5               	goto	l10078
  4929                           	line	1348
  4930                           	
  4931  05A5                     l4379:	
  4932                           	line	1376
  4933                           	
  4934  05A5                     l10078:	
  4935  05A5  0832               	movf	(sprintf@c)^0180h,w
  4936  05A6  0094               	movwf	(??_sprintf+0)^0180h+0
  4937  05A7  0195               	clrf	(??_sprintf+0)^0180h+0+1
  4938  05A8  1B94               	btfsc	(??_sprintf+0)^0180h+0,7
  4939  05A9  0395               	decf	(??_sprintf+0)^0180h+0+1,f
  4940  05AA  0815               	movf	1+(??_sprintf+0)^0180h+0,w
  4941  05AB  3A80               	xorlw	80h
  4942  05AC  0096               	movwf	(??_sprintf+2)^0180h+0
  4943  05AD  082B               	movf	(sprintf@width+1)^0180h,w
  4944  05AE  3A80               	xorlw	80h
  4945  05AF  0216               	subwf	(??_sprintf+2)^0180h+0,w
  4946  05B0  1D03               	skipz
  4947  05B1  2DB4               	goto	u6445
  4948  05B2  082A               	movf	(sprintf@width)^0180h,w
  4949  05B3  0214               	subwf	0+(??_sprintf+0)^0180h+0,w
  4950  05B4                     u6445:
  4951                           
  4952  05B4  1803               	skipnc
  4953  05B5  2DB7               	goto	u6441
  4954  05B6  2DB8               	goto	u6440
  4955  05B7                     u6441:
  4956  05B7  2DC6               	goto	l10082
  4957  05B8                     u6440:
  4958                           	line	1377
  4959                           	
  4960  05B8                     l10080:	
  4961  05B8  1683               	bsf	status, 5	;RP0=1, select bank3
  4962  05B9  1703               	bsf	status, 6	;RP1=1, select bank3
  4963  05BA  0832               	movf	(sprintf@c)^0180h,w
  4964  05BB  0094               	movwf	(??_sprintf+0)^0180h+0
  4965  05BC  0195               	clrf	(??_sprintf+0)^0180h+0+1
  4966  05BD  1B94               	btfsc	(??_sprintf+0)^0180h+0,7
  4967  05BE  0395               	decf	(??_sprintf+0)^0180h+0+1,f
  4968  05BF  0814               	movf	0+(??_sprintf+0)^0180h+0,w
  4969  05C0  02AA               	subwf	(sprintf@width)^0180h,f
  4970  05C1  0815               	movf	1+(??_sprintf+0)^0180h+0,w
  4971  05C2  1C03               	skipc
  4972  05C3  03AB               	decf	(sprintf@width+1)^0180h,f
  4973  05C4  02AB               	subwf	(sprintf@width+1)^0180h,f
  4974  05C5  2DCB               	goto	l10084
  4975                           	line	1378
  4976                           	
  4977  05C6                     l4382:	
  4978                           	line	1379
  4979                           	
  4980  05C6                     l10082:	
  4981  05C6  1683               	bsf	status, 5	;RP0=1, select bank3
  4982  05C7  1703               	bsf	status, 6	;RP1=1, select bank3
  4983  05C8  01AA               	clrf	(sprintf@width)^0180h
  4984  05C9  01AB               	clrf	(sprintf@width+1)^0180h
  4985  05CA  2DCB               	goto	l10084
  4986                           	
  4987  05CB                     l4383:	
  4988                           	line	1382
  4989                           	
  4990  05CB                     l10084:	
  4991  05CB  1D26               	btfss	(sprintf@flag)^0180h,(2)&7
  4992  05CC  2DCE               	goto	u6451
  4993  05CD  2DCF               	goto	u6450
  4994  05CE                     u6451:
  4995  05CE  2E08               	goto	l10100
  4996  05CF                     u6450:
  4997                           	line	1387
  4998                           	
  4999  05CF                     l10086:	
  5000  05CF  3003               	movlw	low(03h)
  5001  05D0  0526               	andwf	(sprintf@flag)^0180h,w
  5002  05D1  0094               	movwf	(??_sprintf+0)^0180h+0
  5003  05D2  3000               	movlw	high(03h)
  5004  05D3  0527               	andwf	(sprintf@flag+1)^0180h,w
  5005  05D4  0095               	movwf	1+(??_sprintf+0)^0180h+0
  5006  05D5  0815               	movf	1+(??_sprintf+0)^0180h+0,w
  5007  05D6  0414               	iorwf	0+(??_sprintf+0)^0180h+0,w
  5008  05D7  1903               	skipnz
  5009  05D8  2DDA               	goto	u6461
  5010  05D9  2DDB               	goto	u6460
  5011  05DA                     u6461:
  5012  05DA  2DE7               	goto	l10092
  5013  05DB                     u6460:
  5014                           	line	1388
  5015                           	
  5016  05DB                     l10088:	
  5017  05DB  302D               	movlw	(02Dh)
  5018  05DC  0094               	movwf	(??_sprintf+0)^0180h+0
  5019  05DD  0831               	movf	(sprintf@sp)^0180h,w
  5020  05DE  0084               	movwf	fsr0
  5021  05DF  0814               	movf	(??_sprintf+0)^0180h+0,w
  5022  05E0  1783               	bsf	status, 7	;select IRP bank2
  5023  05E1  0080               	movwf	indf
  5024                           	
  5025  05E2                     l10090:	
  5026  05E2  3001               	movlw	(01h)
  5027  05E3  0094               	movwf	(??_sprintf+0)^0180h+0
  5028  05E4  0814               	movf	(??_sprintf+0)^0180h+0,w
  5029  05E5  07B1               	addwf	(sprintf@sp)^0180h,f
  5030  05E6  2DE7               	goto	l10092
  5031                           	
  5032  05E7                     l4385:	
  5033                           	line	1410
  5034                           	
  5035  05E7                     l10092:	
  5036  05E7  082B               	movf	(sprintf@width+1)^0180h,w
  5037  05E8  042A               	iorwf	(sprintf@width)^0180h,w
  5038  05E9  1903               	skipnz
  5039  05EA  2DEC               	goto	u6471
  5040  05EB  2DED               	goto	u6470
  5041  05EC                     u6471:
  5042  05EC  2EB5               	goto	l10120
  5043  05ED                     u6470:
  5044  05ED  2DEE               	goto	l10094
  5045                           	line	1411
  5046                           	
  5047  05EE                     l4387:	
  5048                           	line	1412
  5049                           	
  5050  05EE                     l10094:	
  5051  05EE  3030               	movlw	(030h)
  5052  05EF  0094               	movwf	(??_sprintf+0)^0180h+0
  5053  05F0  0831               	movf	(sprintf@sp)^0180h,w
  5054  05F1  0084               	movwf	fsr0
  5055  05F2  0814               	movf	(??_sprintf+0)^0180h+0,w
  5056  05F3  1783               	bsf	status, 7	;select IRP bank2
  5057  05F4  0080               	movwf	indf
  5058                           	
  5059  05F5                     l10096:	
  5060  05F5  3001               	movlw	(01h)
  5061  05F6  0094               	movwf	(??_sprintf+0)^0180h+0
  5062  05F7  0814               	movf	(??_sprintf+0)^0180h+0,w
  5063  05F8  07B1               	addwf	(sprintf@sp)^0180h,f
  5064                           	line	1413
  5065                           	
  5066  05F9                     l10098:	
  5067  05F9  30FF               	movlw	low(-1)
  5068  05FA  07AA               	addwf	(sprintf@width)^0180h,f
  5069  05FB  1803               	skipnc
  5070  05FC  0AAB               	incf	(sprintf@width+1)^0180h,f
  5071  05FD  30FF               	movlw	high(-1)
  5072  05FE  07AB               	addwf	(sprintf@width+1)^0180h,f
  5073  05FF  082B               	movf	(((sprintf@width+1)^0180h)),w
  5074  0600  042A               	iorwf	(((sprintf@width)^0180h)),w
  5075  0601  1D03               	skipz
  5076  0602  2E04               	goto	u6481
  5077  0603  2E05               	goto	u6480
  5078  0604                     u6481:
  5079  0604  2DEE               	goto	l10094
  5080  0605                     u6480:
  5081  0605  2EB5               	goto	l10120
  5082                           	
  5083  0606                     l4388:	
  5084  0606  2EB5               	goto	l10120
  5085                           	
  5086  0607                     l4386:	
  5087                           	line	1415
  5088  0607  2EB5               	goto	l10120
  5089                           	
  5090  0608                     l4384:	
  5091                           	line	1423
  5092                           	
  5093  0608                     l10100:	
  5094  0608  082B               	movf	(sprintf@width+1)^0180h,w
  5095  0609  042A               	iorwf	(sprintf@width)^0180h,w
  5096  060A  1903               	skipnz
  5097  060B  2E0D               	goto	u6491
  5098  060C  2E0E               	goto	u6490
  5099  060D                     u6491:
  5100  060D  2E28               	goto	l10108
  5101  060E                     u6490:
  5102  060E  2E0F               	goto	l10102
  5103                           	line	1424
  5104                           	
  5105  060F                     l4391:	
  5106                           	line	1425
  5107                           	
  5108  060F                     l10102:	
  5109  060F  3020               	movlw	(020h)
  5110  0610  0094               	movwf	(??_sprintf+0)^0180h+0
  5111  0611  0831               	movf	(sprintf@sp)^0180h,w
  5112  0612  0084               	movwf	fsr0
  5113  0613  0814               	movf	(??_sprintf+0)^0180h+0,w
  5114  0614  1783               	bsf	status, 7	;select IRP bank2
  5115  0615  0080               	movwf	indf
  5116                           	
  5117  0616                     l10104:	
  5118  0616  3001               	movlw	(01h)
  5119  0617  0094               	movwf	(??_sprintf+0)^0180h+0
  5120  0618  0814               	movf	(??_sprintf+0)^0180h+0,w
  5121  0619  07B1               	addwf	(sprintf@sp)^0180h,f
  5122                           	line	1426
  5123                           	
  5124  061A                     l10106:	
  5125  061A  30FF               	movlw	low(-1)
  5126  061B  07AA               	addwf	(sprintf@width)^0180h,f
  5127  061C  1803               	skipnc
  5128  061D  0AAB               	incf	(sprintf@width+1)^0180h,f
  5129  061E  30FF               	movlw	high(-1)
  5130  061F  07AB               	addwf	(sprintf@width+1)^0180h,f
  5131  0620  082B               	movf	(((sprintf@width+1)^0180h)),w
  5132  0621  042A               	iorwf	(((sprintf@width)^0180h)),w
  5133  0622  1D03               	skipz
  5134  0623  2E25               	goto	u6501
  5135  0624  2E26               	goto	u6500
  5136  0625                     u6501:
  5137  0625  2E0F               	goto	l10102
  5138  0626                     u6500:
  5139  0626  2E28               	goto	l10108
  5140                           	
  5141  0627                     l4392:	
  5142  0627  2E28               	goto	l10108
  5143                           	
  5144  0628                     l4390:	
  5145                           	line	1433
  5146                           	
  5147  0628                     l10108:	
  5148  0628  3003               	movlw	low(03h)
  5149  0629  0526               	andwf	(sprintf@flag)^0180h,w
  5150  062A  0094               	movwf	(??_sprintf+0)^0180h+0
  5151  062B  3000               	movlw	high(03h)
  5152  062C  0527               	andwf	(sprintf@flag+1)^0180h,w
  5153  062D  0095               	movwf	1+(??_sprintf+0)^0180h+0
  5154  062E  0815               	movf	1+(??_sprintf+0)^0180h+0,w
  5155  062F  0414               	iorwf	0+(??_sprintf+0)^0180h+0,w
  5156  0630  1903               	skipnz
  5157  0631  2E33               	goto	u6511
  5158  0632  2E34               	goto	u6510
  5159  0633                     u6511:
  5160  0633  2EB5               	goto	l10120
  5161  0634                     u6510:
  5162                           	line	1434
  5163                           	
  5164  0634                     l10110:	
  5165  0634  302D               	movlw	(02Dh)
  5166  0635  0094               	movwf	(??_sprintf+0)^0180h+0
  5167  0636  0831               	movf	(sprintf@sp)^0180h,w
  5168  0637  0084               	movwf	fsr0
  5169  0638  0814               	movf	(??_sprintf+0)^0180h+0,w
  5170  0639  1783               	bsf	status, 7	;select IRP bank2
  5171  063A  0080               	movwf	indf
  5172                           	
  5173  063B                     l10112:	
  5174  063B  3001               	movlw	(01h)
  5175  063C  0094               	movwf	(??_sprintf+0)^0180h+0
  5176  063D  0814               	movf	(??_sprintf+0)^0180h+0,w
  5177  063E  07B1               	addwf	(sprintf@sp)^0180h,f
  5178  063F  2EB5               	goto	l10120
  5179                           	
  5180  0640                     l4393:	
  5181  0640  2EB5               	goto	l10120
  5182                           	line	1464
  5183                           	
  5184  0641                     l4389:	
  5185                           	line	1469
  5186  0641  2EB5               	goto	l10120
  5187                           	
  5188  0642                     l4395:	
  5189                           	line	1484
  5190                           	
  5191  0642                     l10114:	
  5192  0642  3000               	movlw	0
  5193  0643  1683               	bsf	status, 5	;RP0=1, select bank1
  5194  0644  1303               	bcf	status, 6	;RP1=0, select bank1
  5195  0645  00B1               	movwf	(?___llmod+3)^080h
  5196  0646  3000               	movlw	0
  5197  0647  00B0               	movwf	(?___llmod+2)^080h
  5198  0648  3000               	movlw	0
  5199  0649  00AF               	movwf	(?___llmod+1)^080h
  5200  064A  300A               	movlw	0Ah
  5201  064B  00AE               	movwf	(?___llmod)^080h
  5202                           
  5203  064C  1683               	bsf	status, 5	;RP0=1, select bank3
  5204  064D  1703               	bsf	status, 6	;RP1=1, select bank3
  5205  064E  082F               	movf	(sprintf@prec)^0180h,w
  5206  064F  0094               	movwf	(??_sprintf+0)^0180h+0
  5207  0650  3001               	movlw	(02h)-1
  5208  0651                     u6525:
  5209  0651  1003               	clrc
  5210  0652  0D94               	rlf	(??_sprintf+0)^0180h+0,f
  5211  0653  3EFF               	addlw	-1
  5212  0654  1D03               	skipz
  5213  0655  2E51               	goto	u6525
  5214  0656  1003               	clrc
  5215  0657  0D14               	rlf	(??_sprintf+0)^0180h+0,w
  5216  0658  3E01               	addlw	low((_dpowers-__stringbase))
  5217  0659  0084               	movwf	fsr0
  5218  065A  160A  118A  200A   	fcall	stringdir
              120A  118A         
  5219  065F  1683               	bsf	status, 5	;RP0=1, select bank1
  5220  0660  1303               	bcf	status, 6	;RP1=0, select bank1
  5221  0661  00A0               	movwf	(?___lldiv)^080h
  5222  0662  160A  118A  200A   	fcall	stringdir
              120A  118A         
  5223  0667  00A1               	movwf	(?___lldiv+1)^080h
  5224  0668  160A  118A  200A   	fcall	stringdir
              120A  118A         
  5225  066D  00A2               	movwf	(?___lldiv+2)^080h
  5226  066E  160A  118A  200A   	fcall	stringdir
              120A  118A         
  5227  0673  00A3               	movwf	(?___lldiv+3)^080h
  5228  0674  1683               	bsf	status, 5	;RP0=1, select bank3
  5229  0675  1703               	bsf	status, 6	;RP1=1, select bank3
  5230  0676  0825               	movf	(sprintf@_val+3)^0180h,w
  5231  0677  1683               	bsf	status, 5	;RP0=1, select bank1
  5232  0678  1303               	bcf	status, 6	;RP1=0, select bank1
  5233  0679  00A7               	movwf	3+(?___lldiv)^080h+04h
  5234  067A  1683               	bsf	status, 5	;RP0=1, select bank3
  5235  067B  1703               	bsf	status, 6	;RP1=1, select bank3
  5236  067C  0824               	movf	(sprintf@_val+2)^0180h,w
  5237  067D  1683               	bsf	status, 5	;RP0=1, select bank1
  5238  067E  1303               	bcf	status, 6	;RP1=0, select bank1
  5239  067F  00A6               	movwf	2+(?___lldiv)^080h+04h
  5240  0680  1683               	bsf	status, 5	;RP0=1, select bank3
  5241  0681  1703               	bsf	status, 6	;RP1=1, select bank3
  5242  0682  0823               	movf	(sprintf@_val+1)^0180h,w
  5243  0683  1683               	bsf	status, 5	;RP0=1, select bank1
  5244  0684  1303               	bcf	status, 6	;RP1=0, select bank1
  5245  0685  00A5               	movwf	1+(?___lldiv)^080h+04h
  5246  0686  1683               	bsf	status, 5	;RP0=1, select bank3
  5247  0687  1703               	bsf	status, 6	;RP1=1, select bank3
  5248  0688  0822               	movf	(sprintf@_val)^0180h,w
  5249  0689  1683               	bsf	status, 5	;RP0=1, select bank1
  5250  068A  1303               	bcf	status, 6	;RP1=0, select bank1
  5251  068B  00A4               	movwf	0+(?___lldiv)^080h+04h
  5252                           
  5253  068C  160A  158A  257C   	fcall	___lldiv
              120A  118A         
  5254  0691  1683               	bsf	status, 5	;RP0=1, select bank1
  5255  0692  1303               	bcf	status, 6	;RP1=0, select bank1
  5256  0693  0823               	movf	(3+(?___lldiv))^080h,w
  5257  0694  00B5               	movwf	3+(?___llmod)^080h+04h
  5258  0695  0822               	movf	(2+(?___lldiv))^080h,w
  5259  0696  00B4               	movwf	2+(?___llmod)^080h+04h
  5260  0697  0821               	movf	(1+(?___lldiv))^080h,w
  5261  0698  00B3               	movwf	1+(?___llmod)^080h+04h
  5262  0699  0820               	movf	(0+(?___lldiv))^080h,w
  5263  069A  00B2               	movwf	0+(?___llmod)^080h+04h
  5264                           
  5265  069B  160A  158A  2448   	fcall	___llmod
              120A  118A         
  5266  06A0  1683               	bsf	status, 5	;RP0=1, select bank1
  5267  06A1  1303               	bcf	status, 6	;RP1=0, select bank1
  5268  06A2  082E               	movf	0+(((0+(?___llmod))^080h)),w
  5269  06A3  3E30               	addlw	030h
  5270  06A4  1683               	bsf	status, 5	;RP0=1, select bank3
  5271  06A5  1703               	bsf	status, 6	;RP1=1, select bank3
  5272  06A6  0095               	movwf	(??_sprintf+1)^0180h+0
  5273  06A7  0815               	movf	(??_sprintf+1)^0180h+0,w
  5274  06A8  00B2               	movwf	(sprintf@c)^0180h
  5275                           	line	1516
  5276                           	
  5277  06A9                     l10116:	
  5278  06A9  0832               	movf	(sprintf@c)^0180h,w
  5279  06AA  0094               	movwf	(??_sprintf+0)^0180h+0
  5280  06AB  0831               	movf	(sprintf@sp)^0180h,w
  5281  06AC  0084               	movwf	fsr0
  5282  06AD  0814               	movf	(??_sprintf+0)^0180h+0,w
  5283  06AE  1783               	bsf	status, 7	;select IRP bank2
  5284  06AF  0080               	movwf	indf
  5285                           	
  5286  06B0                     l10118:	
  5287  06B0  3001               	movlw	(01h)
  5288  06B1  0094               	movwf	(??_sprintf+0)^0180h+0
  5289  06B2  0814               	movf	(??_sprintf+0)^0180h+0,w
  5290  06B3  07B1               	addwf	(sprintf@sp)^0180h,f
  5291  06B4  2EB5               	goto	l10120
  5292                           	line	1517
  5293                           	
  5294  06B5                     l4394:	
  5295                           	line	1469
  5296                           	
  5297  06B5                     l10120:	
  5298  06B5  30FF               	movlw	low(-1)
  5299  06B6  07AF               	addwf	(sprintf@prec)^0180h,f
  5300  06B7  1803               	skipnc
  5301  06B8  0AB0               	incf	(sprintf@prec+1)^0180h,f
  5302  06B9  30FF               	movlw	high(-1)
  5303  06BA  07B0               	addwf	(sprintf@prec+1)^0180h,f
  5304  06BB  30FF               	movlw	high(-1)
  5305  06BC  0630               	xorwf	((sprintf@prec+1)^0180h),w
  5306  06BD  1D03               	skipz
  5307  06BE  2EC1               	goto	u6535
  5308  06BF  30FF               	movlw	low(-1)
  5309  06C0  062F               	xorwf	((sprintf@prec)^0180h),w
  5310  06C1                     u6535:
  5311                           
  5312  06C1  1D03               	skipz
  5313  06C2  2EC4               	goto	u6531
  5314  06C3  2EC5               	goto	u6530
  5315  06C4                     u6531:
  5316  06C4  2E42               	goto	l10114
  5317  06C5                     u6530:
  5318  06C5  2EC7               	goto	l10122
  5319                           	
  5320  06C6                     l4396:	
  5321  06C6  2EC7               	goto	l10122
  5322                           	line	1525
  5323                           	
  5324  06C7                     l4297:	
  5325                           	line	540
  5326                           	
  5327  06C7                     l10122:	
  5328  06C7  3001               	movlw	01h
  5329  06C8  0790               	addwf	(sprintf@f)^0180h,f
  5330  06C9  30FF               	movlw	-01h
  5331  06CA  0710               	addwf	(sprintf@f)^0180h,w
  5332  06CB  0084               	movwf	fsr0
  5333  06CC  160A  118A  200A   	fcall	stringdir
              120A  118A         
  5334  06D1  0094               	movwf	(??_sprintf+0)^0180h+0
  5335  06D2  0814               	movf	(??_sprintf+0)^0180h+0,w
  5336  06D3  00B2               	movwf	(sprintf@c)^0180h
  5337  06D4  08B2               	movf	((sprintf@c)^0180h),f
  5338  06D5  1D03               	skipz
  5339  06D6  2ED8               	goto	u6541
  5340  06D7  2EDB               	goto	u6540
  5341  06D8                     u6541:
  5342  06D8  120A  118A  2EED   	goto	l9816
  5343  06DB                     u6540:
  5344  06DB  2EDD               	goto	l10124
  5345                           	
  5346  06DC                     l4397:	
  5347  06DC  2EDD               	goto	l10124
  5348                           	line	1527
  5349                           	
  5350  06DD                     l4316:	
  5351                           	line	1530
  5352                           	
  5353  06DD                     l10124:	
  5354  06DD  0831               	movf	(sprintf@sp)^0180h,w
  5355  06DE  0084               	movwf	fsr0
  5356  06DF  1783               	bsf	status, 7	;select IRP bank2
  5357  06E0  0180               	clrf	indf
  5358  06E1  2EE2               	goto	l4398
  5359                           	line	1532
  5360                           	
  5361  06E2                     l10126:	
  5362                           	line	1533
  5363                           ;	Return value of _sprintf is never used
  5364                           	
  5365  06E2                     l4398:	
  5366  06E2  0008               	return
  5367                           	opt stack 0
  5368                           GLOBAL	__end_of_sprintf
  5369  06E3                     	__end_of_sprintf:
  5370 ;; =============== function _sprintf ends ============
  5371                           
  5372                           	signat	_sprintf,4698
  5373                           	global	___ftsub
  5374                           psect	text932,local,class=CODE,delta=2
  5375                           global __ptext932
  5376  1A5C                     __ptext932:
  5377                           
  5378 ;; *************** function ___ftsub *****************
  5379 ;; Defined at:
  5380 ;;		line 17 in file "C:\Program Files (x86)\HI-TECH Software\PICC\9.82\sources\ftsub.c"
  5381 ;; Parameters:    Size  Location     Type
  5382 ;;  f2              3   63[BANK1 ] float 
  5383 ;;  f1              3   66[BANK1 ] float 
  5384 ;; Auto vars:     Size  Location     Type
  5385 ;;		None
  5386 ;; Return value:  Size  Location     Type
  5387 ;;                  3   63[BANK1 ] float 
  5388 ;; Registers used:
  5389 ;;		wreg, status,2, status,0, pclath, cstack
  5390 ;; Tracked objects:
  5391 ;;		On entry : 0/0
  5392 ;;		On exit  : 0/0
  5393 ;;		Unchanged: 0/0
  5394 ;; Data sizes:     COMMON   BANK0   BANK1   BANK3   BANK2
  5395 ;;      Params:         0       0       6       0       0
  5396 ;;      Locals:         0       0       0       0       0
  5397 ;;      Temps:          0       0       0       0       0
  5398 ;;      Totals:         0       0       6       0       0
  5399 ;;Total ram usage:        6 bytes
  5400 ;; Hardware stack levels used:    1
  5401 ;; Hardware stack levels required when called:    6
  5402 ;; This function calls:
  5403 ;;		___ftadd
  5404 ;; This function is called by:
  5405 ;;		_sprintf
  5406 ;; This function uses a non-reentrant model
  5407 ;;
  5408                           psect	text932
  5409                           	file	"C:\Program Files (x86)\HI-TECH Software\PICC\9.82\sources\ftsub.c"
  5410                           	line	17
  5411                           	global	__size_of___ftsub
  5412  001F                     	__size_of___ftsub	equ	__end_of___ftsub-___ftsub
  5413                           	
  5414  1A5C                     ___ftsub:	
  5415 ;; hardware stack exceeded
  5416                           	opt	stack 0
  5417                           ; Regs used in ___ftsub: [wreg+status,2+status,0+pclath+cstack]
  5418                           	line	18
  5419                           	
  5420  1A5C                     l9808:	
  5421  1A5C  3080               	movlw	080h
  5422  1A5D  1683               	bsf	status, 5	;RP0=1, select bank1
  5423  1A5E  1303               	bcf	status, 6	;RP1=0, select bank1
  5424  1A5F  06E1               	xorwf	(___ftsub@f2+2)^080h,f
  5425                           	line	19
  5426                           	
  5427  1A60                     l9810:	
  5428  1A60  0862               	movf	(___ftsub@f1)^080h,w
  5429  1A61  00D2               	movwf	(?___ftadd)^080h
  5430  1A62  0863               	movf	(___ftsub@f1+1)^080h,w
  5431  1A63  00D3               	movwf	(?___ftadd+1)^080h
  5432  1A64  0864               	movf	(___ftsub@f1+2)^080h,w
  5433  1A65  00D4               	movwf	(?___ftadd+2)^080h
  5434  1A66  085F               	movf	(___ftsub@f2)^080h,w
  5435  1A67  00D5               	movwf	0+(?___ftadd)^080h+03h
  5436  1A68  0860               	movf	(___ftsub@f2+1)^080h,w
  5437  1A69  00D6               	movwf	1+(?___ftadd)^080h+03h
  5438  1A6A  0861               	movf	(___ftsub@f2+2)^080h,w
  5439  1A6B  00D7               	movwf	2+(?___ftadd)^080h+03h
  5440  1A6C  120A  158A  2003   	fcall	___ftadd
              160A  158A         
  5441  1A71  1683               	bsf	status, 5	;RP0=1, select bank1
  5442  1A72  1303               	bcf	status, 6	;RP1=0, select bank1
  5443  1A73  0852               	movf	(0+(?___ftadd))^080h,w
  5444  1A74  00DF               	movwf	(?___ftsub)^080h
  5445  1A75  0853               	movf	(1+(?___ftadd))^080h,w
  5446  1A76  00E0               	movwf	(?___ftsub+1)^080h
  5447  1A77  0854               	movf	(2+(?___ftadd))^080h,w
  5448  1A78  00E1               	movwf	(?___ftsub+2)^080h
  5449  1A79  2A7A               	goto	l5173
  5450                           	
  5451  1A7A                     l9812:	
  5452                           	line	20
  5453                           	
  5454  1A7A                     l5173:	
  5455  1A7A  0008               	return
  5456                           	opt stack 0
  5457                           GLOBAL	__end_of___ftsub
  5458  1A7B                     	__end_of___ftsub:
  5459 ;; =============== function ___ftsub ends ============
  5460                           
  5461                           	signat	___ftsub,8315
  5462                           	global	_scale
  5463                           psect	text933,local,class=CODE,delta=2
  5464                           global __ptext933
  5465  0D29                     __ptext933:
  5466                           
  5467 ;; *************** function _scale *****************
  5468 ;; Defined at:
  5469 ;;		line 422 in file "C:\Program Files (x86)\HI-TECH Software\PICC\9.82\lib\doprnt.c"
  5470 ;; Parameters:    Size  Location     Type
  5471 ;;  scl             1    wreg     char 
  5472 ;; Auto vars:     Size  Location     Type
  5473 ;;  scl             1   58[BANK1 ] char 
  5474 ;; Return value:  Size  Location     Type
  5475 ;;                  3   50[BANK1 ] char 
  5476 ;; Registers used:
  5477 ;;		wreg, fsr0l, fsr0h, status,2, status,0, pclath, cstack
  5478 ;; Tracked objects:
  5479 ;;		On entry : 0/0
  5480 ;;		On exit  : 0/0
  5481 ;;		Unchanged: 0/0
  5482 ;; Data sizes:     COMMON   BANK0   BANK1   BANK3   BANK2
  5483 ;;      Params:         0       0       3       0       0
  5484 ;;      Locals:         0       0       4       0       0
  5485 ;;      Temps:          0       0       2       0       0
  5486 ;;      Totals:         0       0       9       0       0
  5487 ;;Total ram usage:        9 bytes
  5488 ;; Hardware stack levels used:    1
  5489 ;; Hardware stack levels required when called:    6
  5490 ;; This function calls:
  5491 ;;		___awmod
  5492 ;;		___bmul
  5493 ;;		___awdiv
  5494 ;;		___ftmul
  5495 ;; This function is called by:
  5496 ;;		_sprintf
  5497 ;; This function uses a non-reentrant model
  5498 ;;
  5499                           psect	text933
  5500                           	file	"C:\Program Files (x86)\HI-TECH Software\PICC\9.82\sources\doprnt.c"
  5501                           	line	422
  5502                           	global	__size_of_scale
  5503  02D7                     	__size_of_scale	equ	__end_of_scale-_scale
  5504                           	
  5505  0D29                     _scale:	
  5506 ;; hardware stack exceeded
  5507                           	opt	stack 0
  5508                           ; Regs used in _scale: [wreg-fsr0h+status,2+status,0+pclath+cstack]
  5509                           ;scale@scl stored from wreg
  5510                           	line	424
  5511  0D29  1683               	bsf	status, 5	;RP0=1, select bank1
  5512  0D2A  1303               	bcf	status, 6	;RP1=0, select bank1
  5513  0D2B  00DA               	movwf	(scale@scl)^080h
  5514                           	
  5515  0D2C                     l9768:	
  5516  0D2C  1FDA               	btfss	(scale@scl)^080h,7
  5517  0D2D  2D2F               	goto	u5881
  5518  0D2E  2D30               	goto	u5880
  5519  0D2F                     u5881:
  5520  0D2F  2E99               	goto	l9790
  5521  0D30                     u5880:
  5522                           	line	425
  5523                           	
  5524  0D30                     l9770:	
  5525  0D30  09DA               	comf	(scale@scl)^080h,f
  5526  0D31  0ADA               	incf	(scale@scl)^080h,f
  5527                           	line	426
  5528                           	
  5529  0D32                     l9772:	
  5530  0D32  085A               	movf	(scale@scl)^080h,w
  5531  0D33  3A80               	xorlw	80h
  5532  0D34  3E12               	addlw	-((06Eh)^80h)
  5533  0D35  1C03               	skipc
  5534  0D36  2D38               	goto	u5891
  5535  0D37  2D39               	goto	u5890
  5536  0D38                     u5891:
  5537  0D38  2DFF               	goto	l9780
  5538  0D39                     u5890:
  5539                           	line	427
  5540                           	
  5541  0D39                     l9774:	
  5542  0D39  3003               	movlw	(03h)
  5543  0D3A  00D5               	movwf	(??_scale+0)^080h+0
  5544  0D3B  0855               	movf	(??_scale+0)^080h+0,w
  5545  0D3C  00B0               	movwf	(?___bmul)^080h
  5546  0D3D  300A               	movlw	low(0Ah)
  5547  0D3E  00A7               	movwf	(?___awdiv)^080h
  5548  0D3F  3000               	movlw	high(0Ah)
  5549  0D40  00A8               	movwf	((?___awdiv)^080h)+1
  5550  0D41  085A               	movf	(scale@scl)^080h,w
  5551  0D42  00A2               	movwf	0+(?___awmod)^080h+02h
  5552  0D43  01A3               	clrf	1+(?___awmod)^080h+02h
  5553  0D44  1BA2               	btfsc	0+(?___awmod)^080h+02h,7
  5554  0D45  03A3               	decf	1+(?___awmod)^080h+02h,f
  5555  0D46  3064               	movlw	low(064h)
  5556  0D47  00A0               	movwf	(?___awmod)^080h
  5557  0D48  3000               	movlw	high(064h)
  5558  0D49  00A1               	movwf	((?___awmod)^080h)+1
  5559  0D4A  160A  158A  24A6   	fcall	___awmod
              120A  158A         
  5560  0D4F  1683               	bsf	status, 5	;RP0=1, select bank1
  5561  0D50  1303               	bcf	status, 6	;RP1=0, select bank1
  5562  0D51  0821               	movf	(1+(?___awmod))^080h,w
  5563  0D52  01AA               	clrf	1+(?___awdiv)^080h+02h
  5564  0D53  07AA               	addwf	1+(?___awdiv)^080h+02h
  5565  0D54  0820               	movf	(0+(?___awmod))^080h,w
  5566  0D55  01A9               	clrf	0+(?___awdiv)^080h+02h
  5567  0D56  07A9               	addwf	0+(?___awdiv)^080h+02h
  5568                           
  5569  0D57  160A  158A  25EC   	fcall	___awdiv
              120A  158A         
  5570  0D5C  1683               	bsf	status, 5	;RP0=1, select bank1
  5571  0D5D  1303               	bcf	status, 6	;RP1=0, select bank1
  5572  0D5E  0827               	movf	(0+(?___awdiv))^080h,w
  5573  0D5F  3E09               	addlw	09h
  5574  0D60  160A  158A  2208   	fcall	___bmul
              120A  158A         
  5575  0D65  3E29               	addlw	low((__npowers_-__stringbase))
  5576  0D66  0084               	movwf	fsr0
  5577  0D67  160A  118A  200A   	fcall	stringdir
              120A  158A         
  5578  0D6C  1683               	bsf	status, 5	;RP0=1, select bank1
  5579  0D6D  1303               	bcf	status, 6	;RP1=0, select bank1
  5580  0D6E  00C2               	movwf	(?___ftmul)^080h
  5581  0D6F  160A  118A  200A   	fcall	stringdir
              120A  158A         
  5582  0D74  00C3               	movwf	(?___ftmul+1)^080h
  5583  0D75  160A  118A  200A   	fcall	stringdir
              120A  158A         
  5584  0D7A  00C4               	movwf	(?___ftmul+2)^080h
  5585  0D7B  3003               	movlw	(03h)
  5586  0D7C  00D6               	movwf	(??_scale+1)^080h+0
  5587  0D7D  0856               	movf	(??_scale+1)^080h+0,w
  5588  0D7E  00B0               	movwf	(?___bmul)^080h
  5589  0D7F  3064               	movlw	low(064h)
  5590  0D80  00A7               	movwf	(?___awdiv)^080h
  5591  0D81  3000               	movlw	high(064h)
  5592  0D82  00A8               	movwf	((?___awdiv)^080h)+1
  5593  0D83  085A               	movf	(scale@scl)^080h,w
  5594  0D84  00A9               	movwf	0+(?___awdiv)^080h+02h
  5595  0D85  01AA               	clrf	1+(?___awdiv)^080h+02h
  5596  0D86  1BA9               	btfsc	0+(?___awdiv)^080h+02h,7
  5597  0D87  03AA               	decf	1+(?___awdiv)^080h+02h,f
  5598  0D88  160A  158A  25EC   	fcall	___awdiv
              120A  158A         
  5599  0D8D  1683               	bsf	status, 5	;RP0=1, select bank1
  5600  0D8E  1303               	bcf	status, 6	;RP1=0, select bank1
  5601  0D8F  0827               	movf	(0+(?___awdiv))^080h,w
  5602  0D90  3E12               	addlw	012h
  5603  0D91  160A  158A  2208   	fcall	___bmul
              120A  158A         
  5604  0D96  3E29               	addlw	low((__npowers_-__stringbase))
  5605  0D97  0084               	movwf	fsr0
  5606  0D98  160A  118A  200A   	fcall	stringdir
              120A  158A         
  5607  0D9D  1683               	bsf	status, 5	;RP0=1, select bank1
  5608  0D9E  1303               	bcf	status, 6	;RP1=0, select bank1
  5609  0D9F  00C5               	movwf	0+(?___ftmul)^080h+03h
  5610  0DA0  160A  118A  200A   	fcall	stringdir
              120A  158A         
  5611  0DA5  00C6               	movwf	1+(?___ftmul)^080h+03h
  5612  0DA6  160A  118A  200A   	fcall	stringdir
              120A  158A         
  5613  0DAB  00C7               	movwf	2+(?___ftmul)^080h+03h
  5614  0DAC  160A  118A  2454   	fcall	___ftmul
              120A  158A         
  5615  0DB1  1683               	bsf	status, 5	;RP0=1, select bank1
  5616  0DB2  1303               	bcf	status, 6	;RP1=0, select bank1
  5617  0DB3  0842               	movf	(0+(?___ftmul))^080h,w
  5618  0DB4  00D7               	movwf	(_scale$6337)^080h
  5619  0DB5  0843               	movf	(1+(?___ftmul))^080h,w
  5620  0DB6  00D8               	movwf	(_scale$6337+1)^080h
  5621  0DB7  0844               	movf	(2+(?___ftmul))^080h,w
  5622  0DB8  00D9               	movwf	(_scale$6337+2)^080h
  5623  0DB9  3003               	movlw	(03h)
  5624  0DBA  00D5               	movwf	(??_scale+0)^080h+0
  5625  0DBB  0855               	movf	(??_scale+0)^080h+0,w
  5626  0DBC  00B0               	movwf	(?___bmul)^080h
  5627  0DBD  085A               	movf	(scale@scl)^080h,w
  5628  0DBE  00A2               	movwf	0+(?___awmod)^080h+02h
  5629  0DBF  01A3               	clrf	1+(?___awmod)^080h+02h
  5630  0DC0  1BA2               	btfsc	0+(?___awmod)^080h+02h,7
  5631  0DC1  03A3               	decf	1+(?___awmod)^080h+02h,f
  5632  0DC2  300A               	movlw	low(0Ah)
  5633  0DC3  00A0               	movwf	(?___awmod)^080h
  5634  0DC4  3000               	movlw	high(0Ah)
  5635  0DC5  00A1               	movwf	((?___awmod)^080h)+1
  5636  0DC6  160A  158A  24A6   	fcall	___awmod
              120A  158A         
  5637  0DCB  1683               	bsf	status, 5	;RP0=1, select bank1
  5638  0DCC  1303               	bcf	status, 6	;RP1=0, select bank1
  5639  0DCD  0820               	movf	(0+(?___awmod))^080h,w
  5640  0DCE  160A  158A  2208   	fcall	___bmul
              120A  158A         
  5641  0DD3  3E29               	addlw	low((__npowers_-__stringbase))
  5642  0DD4  0084               	movwf	fsr0
  5643  0DD5  160A  118A  200A   	fcall	stringdir
              120A  158A         
  5644  0DDA  1683               	bsf	status, 5	;RP0=1, select bank1
  5645  0DDB  1303               	bcf	status, 6	;RP1=0, select bank1
  5646  0DDC  00C2               	movwf	(?___ftmul)^080h
  5647  0DDD  160A  118A  200A   	fcall	stringdir
              120A  158A         
  5648  0DE2  00C3               	movwf	(?___ftmul+1)^080h
  5649  0DE3  160A  118A  200A   	fcall	stringdir
              120A  158A         
  5650  0DE8  00C4               	movwf	(?___ftmul+2)^080h
  5651  0DE9  0857               	movf	(_scale$6337)^080h,w
  5652  0DEA  00C5               	movwf	0+(?___ftmul)^080h+03h
  5653  0DEB  0858               	movf	(_scale$6337+1)^080h,w
  5654  0DEC  00C6               	movwf	1+(?___ftmul)^080h+03h
  5655  0DED  0859               	movf	(_scale$6337+2)^080h,w
  5656  0DEE  00C7               	movwf	2+(?___ftmul)^080h+03h
  5657  0DEF  160A  118A  2454   	fcall	___ftmul
              120A  158A         
  5658  0DF4  1683               	bsf	status, 5	;RP0=1, select bank1
  5659  0DF5  1303               	bcf	status, 6	;RP1=0, select bank1
  5660  0DF6  0842               	movf	(0+(?___ftmul))^080h,w
  5661  0DF7  00D2               	movwf	(?_scale)^080h
  5662  0DF8  0843               	movf	(1+(?___ftmul))^080h,w
  5663  0DF9  00D3               	movwf	(?_scale+1)^080h
  5664  0DFA  0844               	movf	(2+(?___ftmul))^080h,w
  5665  0DFB  00D4               	movwf	(?_scale+2)^080h
  5666  0DFC  2FFF               	goto	l4289
  5667                           	
  5668  0DFD                     l9776:	
  5669  0DFD  2FFF               	goto	l4289
  5670                           	
  5671  0DFE                     l9778:	
  5672  0DFE  2E77               	goto	l9786
  5673                           	line	428
  5674                           	
  5675  0DFF                     l4288:	
  5676                           	
  5677  0DFF                     l9780:	
  5678  0DFF  085A               	movf	(scale@scl)^080h,w
  5679  0E00  3A80               	xorlw	80h
  5680  0E01  3E75               	addlw	-((0Bh)^80h)
  5681  0E02  1C03               	skipc
  5682  0E03  2E05               	goto	u5901
  5683  0E04  2E06               	goto	u5900
  5684  0E05                     u5901:
  5685  0E05  2E77               	goto	l9786
  5686  0E06                     u5900:
  5687                           	line	429
  5688                           	
  5689  0E06                     l9782:	
  5690  0E06  3003               	movlw	(03h)
  5691  0E07  00D5               	movwf	(??_scale+0)^080h+0
  5692  0E08  0855               	movf	(??_scale+0)^080h+0,w
  5693  0E09  00B0               	movwf	(?___bmul)^080h
  5694  0E0A  085A               	movf	(scale@scl)^080h,w
  5695  0E0B  00A2               	movwf	0+(?___awmod)^080h+02h
  5696  0E0C  01A3               	clrf	1+(?___awmod)^080h+02h
  5697  0E0D  1BA2               	btfsc	0+(?___awmod)^080h+02h,7
  5698  0E0E  03A3               	decf	1+(?___awmod)^080h+02h,f
  5699  0E0F  300A               	movlw	low(0Ah)
  5700  0E10  00A0               	movwf	(?___awmod)^080h
  5701  0E11  3000               	movlw	high(0Ah)
  5702  0E12  00A1               	movwf	((?___awmod)^080h)+1
  5703  0E13  160A  158A  24A6   	fcall	___awmod
              120A  158A         
  5704  0E18  1683               	bsf	status, 5	;RP0=1, select bank1
  5705  0E19  1303               	bcf	status, 6	;RP1=0, select bank1
  5706  0E1A  0820               	movf	(0+(?___awmod))^080h,w
  5707  0E1B  160A  158A  2208   	fcall	___bmul
              120A  158A         
  5708  0E20  3E29               	addlw	low((__npowers_-__stringbase))
  5709  0E21  0084               	movwf	fsr0
  5710  0E22  160A  118A  200A   	fcall	stringdir
              120A  158A         
  5711  0E27  1683               	bsf	status, 5	;RP0=1, select bank1
  5712  0E28  1303               	bcf	status, 6	;RP1=0, select bank1
  5713  0E29  00C2               	movwf	(?___ftmul)^080h
  5714  0E2A  160A  118A  200A   	fcall	stringdir
              120A  158A         
  5715  0E2F  00C3               	movwf	(?___ftmul+1)^080h
  5716  0E30  160A  118A  200A   	fcall	stringdir
              120A  158A         
  5717  0E35  00C4               	movwf	(?___ftmul+2)^080h
  5718  0E36  3003               	movlw	(03h)
  5719  0E37  00D6               	movwf	(??_scale+1)^080h+0
  5720  0E38  0856               	movf	(??_scale+1)^080h+0,w
  5721  0E39  00B0               	movwf	(?___bmul)^080h
  5722  0E3A  300A               	movlw	low(0Ah)
  5723  0E3B  00A7               	movwf	(?___awdiv)^080h
  5724  0E3C  3000               	movlw	high(0Ah)
  5725  0E3D  00A8               	movwf	((?___awdiv)^080h)+1
  5726  0E3E  085A               	movf	(scale@scl)^080h,w
  5727  0E3F  00A9               	movwf	0+(?___awdiv)^080h+02h
  5728  0E40  01AA               	clrf	1+(?___awdiv)^080h+02h
  5729  0E41  1BA9               	btfsc	0+(?___awdiv)^080h+02h,7
  5730  0E42  03AA               	decf	1+(?___awdiv)^080h+02h,f
  5731  0E43  160A  158A  25EC   	fcall	___awdiv
              120A  158A         
  5732  0E48  1683               	bsf	status, 5	;RP0=1, select bank1
  5733  0E49  1303               	bcf	status, 6	;RP1=0, select bank1
  5734  0E4A  0827               	movf	(0+(?___awdiv))^080h,w
  5735  0E4B  3E09               	addlw	09h
  5736  0E4C  160A  158A  2208   	fcall	___bmul
              120A  158A         
  5737  0E51  3E29               	addlw	low((__npowers_-__stringbase))
  5738  0E52  0084               	movwf	fsr0
  5739  0E53  160A  118A  200A   	fcall	stringdir
              120A  158A         
  5740  0E58  1683               	bsf	status, 5	;RP0=1, select bank1
  5741  0E59  1303               	bcf	status, 6	;RP1=0, select bank1
  5742  0E5A  00C5               	movwf	0+(?___ftmul)^080h+03h
  5743  0E5B  160A  118A  200A   	fcall	stringdir
              120A  158A         
  5744  0E60  00C6               	movwf	1+(?___ftmul)^080h+03h
  5745  0E61  160A  118A  200A   	fcall	stringdir
              120A  158A         
  5746  0E66  00C7               	movwf	2+(?___ftmul)^080h+03h
  5747  0E67  160A  118A  2454   	fcall	___ftmul
              120A  158A         
  5748  0E6C  1683               	bsf	status, 5	;RP0=1, select bank1
  5749  0E6D  1303               	bcf	status, 6	;RP1=0, select bank1
  5750  0E6E  0842               	movf	(0+(?___ftmul))^080h,w
  5751  0E6F  00D2               	movwf	(?_scale)^080h
  5752  0E70  0843               	movf	(1+(?___ftmul))^080h,w
  5753  0E71  00D3               	movwf	(?_scale+1)^080h
  5754  0E72  0844               	movf	(2+(?___ftmul))^080h,w
  5755  0E73  00D4               	movwf	(?_scale+2)^080h
  5756  0E74  2FFF               	goto	l4289
  5757                           	
  5758  0E75                     l9784:	
  5759  0E75  2FFF               	goto	l4289
  5760                           	
  5761  0E76                     l4291:	
  5762  0E76  2E77               	goto	l9786
  5763                           	line	430
  5764                           	
  5765  0E77                     l4290:	
  5766                           	
  5767  0E77                     l9786:	
  5768  0E77  3003               	movlw	(03h)
  5769  0E78  00D5               	movwf	(??_scale+0)^080h+0
  5770  0E79  0855               	movf	(??_scale+0)^080h+0,w
  5771  0E7A  00B0               	movwf	(?___bmul)^080h
  5772  0E7B  085A               	movf	(scale@scl)^080h,w
  5773  0E7C  160A  158A  2208   	fcall	___bmul
              120A  158A         
  5774  0E81  3E29               	addlw	low((__npowers_-__stringbase))
  5775  0E82  0084               	movwf	fsr0
  5776  0E83  160A  118A  200A   	fcall	stringdir
              120A  158A         
  5777  0E88  1683               	bsf	status, 5	;RP0=1, select bank1
  5778  0E89  1303               	bcf	status, 6	;RP1=0, select bank1
  5779  0E8A  00D2               	movwf	(?_scale)^080h
  5780  0E8B  160A  118A  200A   	fcall	stringdir
              120A  158A         
  5781  0E90  00D3               	movwf	(?_scale+1)^080h
  5782  0E91  160A  118A  200A   	fcall	stringdir
              120A  158A         
  5783  0E96  00D4               	movwf	(?_scale+2)^080h
  5784  0E97  2FFF               	goto	l4289
  5785                           	
  5786  0E98                     l9788:	
  5787  0E98  2FFF               	goto	l4289
  5788                           	line	431
  5789                           	
  5790  0E99                     l4287:	
  5791                           	line	432
  5792                           	
  5793  0E99                     l9790:	
  5794  0E99  085A               	movf	(scale@scl)^080h,w
  5795  0E9A  3A80               	xorlw	80h
  5796  0E9B  3E12               	addlw	-((06Eh)^80h)
  5797  0E9C  1C03               	skipc
  5798  0E9D  2E9F               	goto	u5911
  5799  0E9E  2EA0               	goto	u5910
  5800  0E9F                     u5911:
  5801  0E9F  2F66               	goto	l9798
  5802  0EA0                     u5910:
  5803                           	line	433
  5804                           	
  5805  0EA0                     l9792:	
  5806  0EA0  3003               	movlw	(03h)
  5807  0EA1  00D5               	movwf	(??_scale+0)^080h+0
  5808  0EA2  0855               	movf	(??_scale+0)^080h+0,w
  5809  0EA3  00B0               	movwf	(?___bmul)^080h
  5810  0EA4  300A               	movlw	low(0Ah)
  5811  0EA5  00A7               	movwf	(?___awdiv)^080h
  5812  0EA6  3000               	movlw	high(0Ah)
  5813  0EA7  00A8               	movwf	((?___awdiv)^080h)+1
  5814  0EA8  085A               	movf	(scale@scl)^080h,w
  5815  0EA9  00A2               	movwf	0+(?___awmod)^080h+02h
  5816  0EAA  01A3               	clrf	1+(?___awmod)^080h+02h
  5817  0EAB  1BA2               	btfsc	0+(?___awmod)^080h+02h,7
  5818  0EAC  03A3               	decf	1+(?___awmod)^080h+02h,f
  5819  0EAD  3064               	movlw	low(064h)
  5820  0EAE  00A0               	movwf	(?___awmod)^080h
  5821  0EAF  3000               	movlw	high(064h)
  5822  0EB0  00A1               	movwf	((?___awmod)^080h)+1
  5823  0EB1  160A  158A  24A6   	fcall	___awmod
              120A  158A         
  5824  0EB6  1683               	bsf	status, 5	;RP0=1, select bank1
  5825  0EB7  1303               	bcf	status, 6	;RP1=0, select bank1
  5826  0EB8  0821               	movf	(1+(?___awmod))^080h,w
  5827  0EB9  01AA               	clrf	1+(?___awdiv)^080h+02h
  5828  0EBA  07AA               	addwf	1+(?___awdiv)^080h+02h
  5829  0EBB  0820               	movf	(0+(?___awmod))^080h,w
  5830  0EBC  01A9               	clrf	0+(?___awdiv)^080h+02h
  5831  0EBD  07A9               	addwf	0+(?___awdiv)^080h+02h
  5832                           
  5833  0EBE  160A  158A  25EC   	fcall	___awdiv
              120A  158A         
  5834  0EC3  1683               	bsf	status, 5	;RP0=1, select bank1
  5835  0EC4  1303               	bcf	status, 6	;RP1=0, select bank1
  5836  0EC5  0827               	movf	(0+(?___awdiv))^080h,w
  5837  0EC6  3E09               	addlw	09h
  5838  0EC7  160A  158A  2208   	fcall	___bmul
              120A  158A         
  5839  0ECC  3E50               	addlw	low((__powers_-__stringbase))
  5840  0ECD  0084               	movwf	fsr0
  5841  0ECE  160A  118A  200A   	fcall	stringdir
              120A  158A         
  5842  0ED3  1683               	bsf	status, 5	;RP0=1, select bank1
  5843  0ED4  1303               	bcf	status, 6	;RP1=0, select bank1
  5844  0ED5  00C2               	movwf	(?___ftmul)^080h
  5845  0ED6  160A  118A  200A   	fcall	stringdir
              120A  158A         
  5846  0EDB  00C3               	movwf	(?___ftmul+1)^080h
  5847  0EDC  160A  118A  200A   	fcall	stringdir
              120A  158A         
  5848  0EE1  00C4               	movwf	(?___ftmul+2)^080h
  5849  0EE2  3003               	movlw	(03h)
  5850  0EE3  00D6               	movwf	(??_scale+1)^080h+0
  5851  0EE4  0856               	movf	(??_scale+1)^080h+0,w
  5852  0EE5  00B0               	movwf	(?___bmul)^080h
  5853  0EE6  3064               	movlw	low(064h)
  5854  0EE7  00A7               	movwf	(?___awdiv)^080h
  5855  0EE8  3000               	movlw	high(064h)
  5856  0EE9  00A8               	movwf	((?___awdiv)^080h)+1
  5857  0EEA  085A               	movf	(scale@scl)^080h,w
  5858  0EEB  00A9               	movwf	0+(?___awdiv)^080h+02h
  5859  0EEC  01AA               	clrf	1+(?___awdiv)^080h+02h
  5860  0EED  1BA9               	btfsc	0+(?___awdiv)^080h+02h,7
  5861  0EEE  03AA               	decf	1+(?___awdiv)^080h+02h,f
  5862  0EEF  160A  158A  25EC   	fcall	___awdiv
              120A  158A         
  5863  0EF4  1683               	bsf	status, 5	;RP0=1, select bank1
  5864  0EF5  1303               	bcf	status, 6	;RP1=0, select bank1
  5865  0EF6  0827               	movf	(0+(?___awdiv))^080h,w
  5866  0EF7  3E12               	addlw	012h
  5867  0EF8  160A  158A  2208   	fcall	___bmul
              120A  158A         
  5868  0EFD  3E50               	addlw	low((__powers_-__stringbase))
  5869  0EFE  0084               	movwf	fsr0
  5870  0EFF  160A  118A  200A   	fcall	stringdir
              120A  158A         
  5871  0F04  1683               	bsf	status, 5	;RP0=1, select bank1
  5872  0F05  1303               	bcf	status, 6	;RP1=0, select bank1
  5873  0F06  00C5               	movwf	0+(?___ftmul)^080h+03h
  5874  0F07  160A  118A  200A   	fcall	stringdir
              120A  158A         
  5875  0F0C  00C6               	movwf	1+(?___ftmul)^080h+03h
  5876  0F0D  160A  118A  200A   	fcall	stringdir
              120A  158A         
  5877  0F12  00C7               	movwf	2+(?___ftmul)^080h+03h
  5878  0F13  160A  118A  2454   	fcall	___ftmul
              120A  158A         
  5879  0F18  1683               	bsf	status, 5	;RP0=1, select bank1
  5880  0F19  1303               	bcf	status, 6	;RP1=0, select bank1
  5881  0F1A  0842               	movf	(0+(?___ftmul))^080h,w
  5882  0F1B  00D7               	movwf	(_scale$6337)^080h
  5883  0F1C  0843               	movf	(1+(?___ftmul))^080h,w
  5884  0F1D  00D8               	movwf	(_scale$6337+1)^080h
  5885  0F1E  0844               	movf	(2+(?___ftmul))^080h,w
  5886  0F1F  00D9               	movwf	(_scale$6337+2)^080h
  5887  0F20  3003               	movlw	(03h)
  5888  0F21  00D5               	movwf	(??_scale+0)^080h+0
  5889  0F22  0855               	movf	(??_scale+0)^080h+0,w
  5890  0F23  00B0               	movwf	(?___bmul)^080h
  5891  0F24  085A               	movf	(scale@scl)^080h,w
  5892  0F25  00A2               	movwf	0+(?___awmod)^080h+02h
  5893  0F26  01A3               	clrf	1+(?___awmod)^080h+02h
  5894  0F27  1BA2               	btfsc	0+(?___awmod)^080h+02h,7
  5895  0F28  03A3               	decf	1+(?___awmod)^080h+02h,f
  5896  0F29  300A               	movlw	low(0Ah)
  5897  0F2A  00A0               	movwf	(?___awmod)^080h
  5898  0F2B  3000               	movlw	high(0Ah)
  5899  0F2C  00A1               	movwf	((?___awmod)^080h)+1
  5900  0F2D  160A  158A  24A6   	fcall	___awmod
              120A  158A         
  5901  0F32  1683               	bsf	status, 5	;RP0=1, select bank1
  5902  0F33  1303               	bcf	status, 6	;RP1=0, select bank1
  5903  0F34  0820               	movf	(0+(?___awmod))^080h,w
  5904  0F35  160A  158A  2208   	fcall	___bmul
              120A  158A         
  5905  0F3A  3E50               	addlw	low((__powers_-__stringbase))
  5906  0F3B  0084               	movwf	fsr0
  5907  0F3C  160A  118A  200A   	fcall	stringdir
              120A  158A         
  5908  0F41  1683               	bsf	status, 5	;RP0=1, select bank1
  5909  0F42  1303               	bcf	status, 6	;RP1=0, select bank1
  5910  0F43  00C2               	movwf	(?___ftmul)^080h
  5911  0F44  160A  118A  200A   	fcall	stringdir
              120A  158A         
  5912  0F49  00C3               	movwf	(?___ftmul+1)^080h
  5913  0F4A  160A  118A  200A   	fcall	stringdir
              120A  158A         
  5914  0F4F  00C4               	movwf	(?___ftmul+2)^080h
  5915  0F50  0857               	movf	(_scale$6337)^080h,w
  5916  0F51  00C5               	movwf	0+(?___ftmul)^080h+03h
  5917  0F52  0858               	movf	(_scale$6337+1)^080h,w
  5918  0F53  00C6               	movwf	1+(?___ftmul)^080h+03h
  5919  0F54  0859               	movf	(_scale$6337+2)^080h,w
  5920  0F55  00C7               	movwf	2+(?___ftmul)^080h+03h
  5921  0F56  160A  118A  2454   	fcall	___ftmul
              120A  158A         
  5922  0F5B  1683               	bsf	status, 5	;RP0=1, select bank1
  5923  0F5C  1303               	bcf	status, 6	;RP1=0, select bank1
  5924  0F5D  0842               	movf	(0+(?___ftmul))^080h,w
  5925  0F5E  00D2               	movwf	(?_scale)^080h
  5926  0F5F  0843               	movf	(1+(?___ftmul))^080h,w
  5927  0F60  00D3               	movwf	(?_scale+1)^080h
  5928  0F61  0844               	movf	(2+(?___ftmul))^080h,w
  5929  0F62  00D4               	movwf	(?_scale+2)^080h
  5930  0F63  2FFF               	goto	l4289
  5931                           	
  5932  0F64                     l9794:	
  5933  0F64  2FFF               	goto	l4289
  5934                           	
  5935  0F65                     l9796:	
  5936  0F65  2FDE               	goto	l9804
  5937                           	line	434
  5938                           	
  5939  0F66                     l4292:	
  5940                           	
  5941  0F66                     l9798:	
  5942  0F66  085A               	movf	(scale@scl)^080h,w
  5943  0F67  3A80               	xorlw	80h
  5944  0F68  3E75               	addlw	-((0Bh)^80h)
  5945  0F69  1C03               	skipc
  5946  0F6A  2F6C               	goto	u5921
  5947  0F6B  2F6D               	goto	u5920
  5948  0F6C                     u5921:
  5949  0F6C  2FDE               	goto	l9804
  5950  0F6D                     u5920:
  5951                           	line	435
  5952                           	
  5953  0F6D                     l9800:	
  5954  0F6D  3003               	movlw	(03h)
  5955  0F6E  00D5               	movwf	(??_scale+0)^080h+0
  5956  0F6F  0855               	movf	(??_scale+0)^080h+0,w
  5957  0F70  00B0               	movwf	(?___bmul)^080h
  5958  0F71  085A               	movf	(scale@scl)^080h,w
  5959  0F72  00A2               	movwf	0+(?___awmod)^080h+02h
  5960  0F73  01A3               	clrf	1+(?___awmod)^080h+02h
  5961  0F74  1BA2               	btfsc	0+(?___awmod)^080h+02h,7
  5962  0F75  03A3               	decf	1+(?___awmod)^080h+02h,f
  5963  0F76  300A               	movlw	low(0Ah)
  5964  0F77  00A0               	movwf	(?___awmod)^080h
  5965  0F78  3000               	movlw	high(0Ah)
  5966  0F79  00A1               	movwf	((?___awmod)^080h)+1
  5967  0F7A  160A  158A  24A6   	fcall	___awmod
              120A  158A         
  5968  0F7F  1683               	bsf	status, 5	;RP0=1, select bank1
  5969  0F80  1303               	bcf	status, 6	;RP1=0, select bank1
  5970  0F81  0820               	movf	(0+(?___awmod))^080h,w
  5971  0F82  160A  158A  2208   	fcall	___bmul
              120A  158A         
  5972  0F87  3E50               	addlw	low((__powers_-__stringbase))
  5973  0F88  0084               	movwf	fsr0
  5974  0F89  160A  118A  200A   	fcall	stringdir
              120A  158A         
  5975  0F8E  1683               	bsf	status, 5	;RP0=1, select bank1
  5976  0F8F  1303               	bcf	status, 6	;RP1=0, select bank1
  5977  0F90  00C2               	movwf	(?___ftmul)^080h
  5978  0F91  160A  118A  200A   	fcall	stringdir
              120A  158A         
  5979  0F96  00C3               	movwf	(?___ftmul+1)^080h
  5980  0F97  160A  118A  200A   	fcall	stringdir
              120A  158A         
  5981  0F9C  00C4               	movwf	(?___ftmul+2)^080h
  5982  0F9D  3003               	movlw	(03h)
  5983  0F9E  00D6               	movwf	(??_scale+1)^080h+0
  5984  0F9F  0856               	movf	(??_scale+1)^080h+0,w
  5985  0FA0  00B0               	movwf	(?___bmul)^080h
  5986  0FA1  300A               	movlw	low(0Ah)
  5987  0FA2  00A7               	movwf	(?___awdiv)^080h
  5988  0FA3  3000               	movlw	high(0Ah)
  5989  0FA4  00A8               	movwf	((?___awdiv)^080h)+1
  5990  0FA5  085A               	movf	(scale@scl)^080h,w
  5991  0FA6  00A9               	movwf	0+(?___awdiv)^080h+02h
  5992  0FA7  01AA               	clrf	1+(?___awdiv)^080h+02h
  5993  0FA8  1BA9               	btfsc	0+(?___awdiv)^080h+02h,7
  5994  0FA9  03AA               	decf	1+(?___awdiv)^080h+02h,f
  5995  0FAA  160A  158A  25EC   	fcall	___awdiv
              120A  158A         
  5996  0FAF  1683               	bsf	status, 5	;RP0=1, select bank1
  5997  0FB0  1303               	bcf	status, 6	;RP1=0, select bank1
  5998  0FB1  0827               	movf	(0+(?___awdiv))^080h,w
  5999  0FB2  3E09               	addlw	09h
  6000  0FB3  160A  158A  2208   	fcall	___bmul
              120A  158A         
  6001  0FB8  3E50               	addlw	low((__powers_-__stringbase))
  6002  0FB9  0084               	movwf	fsr0
  6003  0FBA  160A  118A  200A   	fcall	stringdir
              120A  158A         
  6004  0FBF  1683               	bsf	status, 5	;RP0=1, select bank1
  6005  0FC0  1303               	bcf	status, 6	;RP1=0, select bank1
  6006  0FC1  00C5               	movwf	0+(?___ftmul)^080h+03h
  6007  0FC2  160A  118A  200A   	fcall	stringdir
              120A  158A         
  6008  0FC7  00C6               	movwf	1+(?___ftmul)^080h+03h
  6009  0FC8  160A  118A  200A   	fcall	stringdir
              120A  158A         
  6010  0FCD  00C7               	movwf	2+(?___ftmul)^080h+03h
  6011  0FCE  160A  118A  2454   	fcall	___ftmul
              120A  158A         
  6012  0FD3  1683               	bsf	status, 5	;RP0=1, select bank1
  6013  0FD4  1303               	bcf	status, 6	;RP1=0, select bank1
  6014  0FD5  0842               	movf	(0+(?___ftmul))^080h,w
  6015  0FD6  00D2               	movwf	(?_scale)^080h
  6016  0FD7  0843               	movf	(1+(?___ftmul))^080h,w
  6017  0FD8  00D3               	movwf	(?_scale+1)^080h
  6018  0FD9  0844               	movf	(2+(?___ftmul))^080h,w
  6019  0FDA  00D4               	movwf	(?_scale+2)^080h
  6020  0FDB  2FFF               	goto	l4289
  6021                           	
  6022  0FDC                     l9802:	
  6023  0FDC  2FFF               	goto	l4289
  6024                           	
  6025  0FDD                     l4294:	
  6026  0FDD  2FDE               	goto	l9804
  6027                           	line	436
  6028                           	
  6029  0FDE                     l4293:	
  6030                           	
  6031  0FDE                     l9804:	
  6032  0FDE  3003               	movlw	(03h)
  6033  0FDF  00D5               	movwf	(??_scale+0)^080h+0
  6034  0FE0  0855               	movf	(??_scale+0)^080h+0,w
  6035  0FE1  00B0               	movwf	(?___bmul)^080h
  6036  0FE2  085A               	movf	(scale@scl)^080h,w
  6037  0FE3  160A  158A  2208   	fcall	___bmul
              120A  158A         
  6038  0FE8  3E50               	addlw	low((__powers_-__stringbase))
  6039  0FE9  0084               	movwf	fsr0
  6040  0FEA  160A  118A  200A   	fcall	stringdir
              120A  158A         
  6041  0FEF  1683               	bsf	status, 5	;RP0=1, select bank1
  6042  0FF0  1303               	bcf	status, 6	;RP1=0, select bank1
  6043  0FF1  00D2               	movwf	(?_scale)^080h
  6044  0FF2  160A  118A  200A   	fcall	stringdir
              120A  158A         
  6045  0FF7  00D3               	movwf	(?_scale+1)^080h
  6046  0FF8  160A  118A  200A   	fcall	stringdir
              120A  158A         
  6047  0FFD  00D4               	movwf	(?_scale+2)^080h
  6048  0FFE  2FFF               	goto	l4289
  6049                           	
  6050  0FFF                     l9806:	
  6051                           	line	437
  6052                           	
  6053  0FFF                     l4289:	
  6054  0FFF  0008               	return
  6055                           	opt stack 0
  6056                           GLOBAL	__end_of_scale
  6057  1000                     	__end_of_scale:
  6058 ;; =============== function _scale ends ============
  6059                           
  6060                           	signat	_scale,4219
  6061                           	global	_fround
  6062                           psect	text934,local,class=CODE,delta=2
  6063                           global __ptext934
  6064  0949                     __ptext934:
  6065                           
  6066 ;; *************** function _fround *****************
  6067 ;; Defined at:
  6068 ;;		line 406 in file "C:\Program Files (x86)\HI-TECH Software\PICC\9.82\lib\doprnt.c"
  6069 ;; Parameters:    Size  Location     Type
  6070 ;;  prec            1    wreg     unsigned char 
  6071 ;; Auto vars:     Size  Location     Type
  6072 ;;  prec            1   78[BANK1 ] unsigned char 
  6073 ;; Return value:  Size  Location     Type
  6074 ;;                  3   63[BANK1 ] unsigned char 
  6075 ;; Registers used:
  6076 ;;		wreg, fsr0l, fsr0h, status,2, status,0, pclath, cstack
  6077 ;; Tracked objects:
  6078 ;;		On entry : 0/0
  6079 ;;		On exit  : 0/0
  6080 ;;		Unchanged: 0/0
  6081 ;; Data sizes:     COMMON   BANK0   BANK1   BANK3   BANK2
  6082 ;;      Params:         0       0       3       0       0
  6083 ;;      Locals:         0       0       7       0       0
  6084 ;;      Temps:          0       0       6       0       0
  6085 ;;      Totals:         0       0      16       0       0
  6086 ;;Total ram usage:       16 bytes
  6087 ;; Hardware stack levels used:    1
  6088 ;; Hardware stack levels required when called:    6
  6089 ;; This function calls:
  6090 ;;		___awmod
  6091 ;;		___bmul
  6092 ;;		___awdiv
  6093 ;;		___ftmul
  6094 ;; This function is called by:
  6095 ;;		_sprintf
  6096 ;; This function uses a non-reentrant model
  6097 ;;
  6098                           psect	text934
  6099                           	file	"C:\Program Files (x86)\HI-TECH Software\PICC\9.82\sources\doprnt.c"
  6100                           	line	406
  6101                           	global	__size_of_fround
  6102  01B7                     	__size_of_fround	equ	__end_of_fround-_fround
  6103                           	
  6104  0949                     _fround:	
  6105 ;; hardware stack exceeded
  6106                           	opt	stack 0
  6107                           ; Regs used in _fround: [wreg-fsr0h+status,2+status,0+pclath+cstack]
  6108                           ;fround@prec stored from wreg
  6109                           	line	409
  6110  0949  1683               	bsf	status, 5	;RP0=1, select bank1
  6111  094A  1303               	bcf	status, 6	;RP1=0, select bank1
  6112  094B  00EE               	movwf	(fround@prec)^080h
  6113                           	
  6114  094C                     l9746:	
  6115  094C  306E               	movlw	(06Eh)
  6116  094D  026E               	subwf	(fround@prec)^080h,w
  6117  094E  1C03               	skipc
  6118  094F  2951               	goto	u5861
  6119  0950  2952               	goto	u5860
  6120  0951                     u5861:
  6121  0951  2A37               	goto	l9756
  6122  0952                     u5860:
  6123                           	line	410
  6124                           	
  6125  0952                     l9748:	
  6126  0952  3003               	movlw	(03h)
  6127  0953  00E2               	movwf	(??_fround+0)^080h+0
  6128  0954  0862               	movf	(??_fround+0)^080h+0,w
  6129  0955  00B0               	movwf	(?___bmul)^080h
  6130  0956  300A               	movlw	low(0Ah)
  6131  0957  00A7               	movwf	(?___awdiv)^080h
  6132  0958  3000               	movlw	high(0Ah)
  6133  0959  00A8               	movwf	((?___awdiv)^080h)+1
  6134  095A  086E               	movf	(fround@prec)^080h,w
  6135  095B  00E3               	movwf	(??_fround+1)^080h+0
  6136  095C  01E4               	clrf	(??_fround+1)^080h+0+1
  6137  095D  0863               	movf	0+(??_fround+1)^080h+0,w
  6138  095E  00A2               	movwf	0+(?___awmod)^080h+02h
  6139  095F  0864               	movf	1+(??_fround+1)^080h+0,w
  6140  0960  00A3               	movwf	1+(?___awmod)^080h+02h
  6141  0961  3064               	movlw	low(064h)
  6142  0962  00A0               	movwf	(?___awmod)^080h
  6143  0963  3000               	movlw	high(064h)
  6144  0964  00A1               	movwf	((?___awmod)^080h)+1
  6145  0965  160A  158A  24A6   	fcall	___awmod
              120A  158A         
  6146  096A  1683               	bsf	status, 5	;RP0=1, select bank1
  6147  096B  1303               	bcf	status, 6	;RP1=0, select bank1
  6148  096C  0821               	movf	(1+(?___awmod))^080h,w
  6149  096D  01AA               	clrf	1+(?___awdiv)^080h+02h
  6150  096E  07AA               	addwf	1+(?___awdiv)^080h+02h
  6151  096F  0820               	movf	(0+(?___awmod))^080h,w
  6152  0970  01A9               	clrf	0+(?___awdiv)^080h+02h
  6153  0971  07A9               	addwf	0+(?___awdiv)^080h+02h
  6154                           
  6155  0972  160A  158A  25EC   	fcall	___awdiv
              120A  158A         
  6156  0977  1683               	bsf	status, 5	;RP0=1, select bank1
  6157  0978  1303               	bcf	status, 6	;RP1=0, select bank1
  6158  0979  0827               	movf	(0+(?___awdiv))^080h,w
  6159  097A  3E09               	addlw	09h
  6160  097B  160A  158A  2208   	fcall	___bmul
              120A  158A         
  6161  0980  3E29               	addlw	low((__npowers_-__stringbase))
  6162  0981  0084               	movwf	fsr0
  6163  0982  160A  118A  200A   	fcall	stringdir
              120A  158A         
  6164  0987  1683               	bsf	status, 5	;RP0=1, select bank1
  6165  0988  1303               	bcf	status, 6	;RP1=0, select bank1
  6166  0989  00C2               	movwf	(?___ftmul)^080h
  6167  098A  160A  118A  200A   	fcall	stringdir
              120A  158A         
  6168  098F  00C3               	movwf	(?___ftmul+1)^080h
  6169  0990  160A  118A  200A   	fcall	stringdir
              120A  158A         
  6170  0995  00C4               	movwf	(?___ftmul+2)^080h
  6171  0996  3003               	movlw	(03h)
  6172  0997  00E5               	movwf	(??_fround+3)^080h+0
  6173  0998  0865               	movf	(??_fround+3)^080h+0,w
  6174  0999  00B0               	movwf	(?___bmul)^080h
  6175  099A  3064               	movlw	low(064h)
  6176  099B  00A7               	movwf	(?___awdiv)^080h
  6177  099C  3000               	movlw	high(064h)
  6178  099D  00A8               	movwf	((?___awdiv)^080h)+1
  6179  099E  086E               	movf	(fround@prec)^080h,w
  6180  099F  00E6               	movwf	(??_fround+4)^080h+0
  6181  09A0  01E7               	clrf	(??_fround+4)^080h+0+1
  6182  09A1  0866               	movf	0+(??_fround+4)^080h+0,w
  6183  09A2  00A9               	movwf	0+(?___awdiv)^080h+02h
  6184  09A3  0867               	movf	1+(??_fround+4)^080h+0,w
  6185  09A4  00AA               	movwf	1+(?___awdiv)^080h+02h
  6186  09A5  160A  158A  25EC   	fcall	___awdiv
              120A  158A         
  6187  09AA  1683               	bsf	status, 5	;RP0=1, select bank1
  6188  09AB  1303               	bcf	status, 6	;RP1=0, select bank1
  6189  09AC  0827               	movf	(0+(?___awdiv))^080h,w
  6190  09AD  3E12               	addlw	012h
  6191  09AE  160A  158A  2208   	fcall	___bmul
              120A  158A         
  6192  09B3  3E29               	addlw	low((__npowers_-__stringbase))
  6193  09B4  0084               	movwf	fsr0
  6194  09B5  160A  118A  200A   	fcall	stringdir
              120A  158A         
  6195  09BA  1683               	bsf	status, 5	;RP0=1, select bank1
  6196  09BB  1303               	bcf	status, 6	;RP1=0, select bank1
  6197  09BC  00C5               	movwf	0+(?___ftmul)^080h+03h
  6198  09BD  160A  118A  200A   	fcall	stringdir
              120A  158A         
  6199  09C2  00C6               	movwf	1+(?___ftmul)^080h+03h
  6200  09C3  160A  118A  200A   	fcall	stringdir
              120A  158A         
  6201  09C8  00C7               	movwf	2+(?___ftmul)^080h+03h
  6202  09C9  160A  118A  2454   	fcall	___ftmul
              120A  158A         
  6203  09CE  1683               	bsf	status, 5	;RP0=1, select bank1
  6204  09CF  1303               	bcf	status, 6	;RP1=0, select bank1
  6205  09D0  0842               	movf	(0+(?___ftmul))^080h,w
  6206  09D1  00EB               	movwf	(_fround$6335)^080h
  6207  09D2  0843               	movf	(1+(?___ftmul))^080h,w
  6208  09D3  00EC               	movwf	(_fround$6335+1)^080h
  6209  09D4  0844               	movf	(2+(?___ftmul))^080h,w
  6210  09D5  00ED               	movwf	(_fround$6335+2)^080h
  6211  09D6  3003               	movlw	(03h)
  6212  09D7  00E2               	movwf	(??_fround+0)^080h+0
  6213  09D8  0862               	movf	(??_fround+0)^080h+0,w
  6214  09D9  00B0               	movwf	(?___bmul)^080h
  6215  09DA  086E               	movf	(fround@prec)^080h,w
  6216  09DB  00E3               	movwf	(??_fround+1)^080h+0
  6217  09DC  01E4               	clrf	(??_fround+1)^080h+0+1
  6218  09DD  0863               	movf	0+(??_fround+1)^080h+0,w
  6219  09DE  00A2               	movwf	0+(?___awmod)^080h+02h
  6220  09DF  0864               	movf	1+(??_fround+1)^080h+0,w
  6221  09E0  00A3               	movwf	1+(?___awmod)^080h+02h
  6222  09E1  300A               	movlw	low(0Ah)
  6223  09E2  00A0               	movwf	(?___awmod)^080h
  6224  09E3  3000               	movlw	high(0Ah)
  6225  09E4  00A1               	movwf	((?___awmod)^080h)+1
  6226  09E5  160A  158A  24A6   	fcall	___awmod
              120A  158A         
  6227  09EA  1683               	bsf	status, 5	;RP0=1, select bank1
  6228  09EB  1303               	bcf	status, 6	;RP1=0, select bank1
  6229  09EC  0820               	movf	(0+(?___awmod))^080h,w
  6230  09ED  160A  158A  2208   	fcall	___bmul
              120A  158A         
  6231  09F2  3E29               	addlw	low((__npowers_-__stringbase))
  6232  09F3  0084               	movwf	fsr0
  6233  09F4  160A  118A  200A   	fcall	stringdir
              120A  158A         
  6234  09F9  1683               	bsf	status, 5	;RP0=1, select bank1
  6235  09FA  1303               	bcf	status, 6	;RP1=0, select bank1
  6236  09FB  00C2               	movwf	(?___ftmul)^080h
  6237  09FC  160A  118A  200A   	fcall	stringdir
              120A  158A         
  6238  0A01  00C3               	movwf	(?___ftmul+1)^080h
  6239  0A02  160A  118A  200A   	fcall	stringdir
              120A  158A         
  6240  0A07  00C4               	movwf	(?___ftmul+2)^080h
  6241  0A08  086B               	movf	(_fround$6335)^080h,w
  6242  0A09  00C5               	movwf	0+(?___ftmul)^080h+03h
  6243  0A0A  086C               	movf	(_fround$6335+1)^080h,w
  6244  0A0B  00C6               	movwf	1+(?___ftmul)^080h+03h
  6245  0A0C  086D               	movf	(_fround$6335+2)^080h,w
  6246  0A0D  00C7               	movwf	2+(?___ftmul)^080h+03h
  6247  0A0E  160A  118A  2454   	fcall	___ftmul
              120A  158A         
  6248  0A13  1683               	bsf	status, 5	;RP0=1, select bank1
  6249  0A14  1303               	bcf	status, 6	;RP1=0, select bank1
  6250  0A15  0842               	movf	(0+(?___ftmul))^080h,w
  6251  0A16  00E8               	movwf	(_fround$6336)^080h
  6252  0A17  0843               	movf	(1+(?___ftmul))^080h,w
  6253  0A18  00E9               	movwf	(_fround$6336+1)^080h
  6254  0A19  0844               	movf	(2+(?___ftmul))^080h,w
  6255  0A1A  00EA               	movwf	(_fround$6336+2)^080h
  6256                           	
  6257  0A1B                     l9750:	
  6258  0A1B  3000               	movlw	0x0
  6259  0A1C  00C2               	movwf	(?___ftmul)^080h
  6260  0A1D  3000               	movlw	0x0
  6261  0A1E  00C3               	movwf	(?___ftmul+1)^080h
  6262  0A1F  303F               	movlw	0x3f
  6263  0A20  00C4               	movwf	(?___ftmul+2)^080h
  6264  0A21  0868               	movf	(_fround$6336)^080h,w
  6265  0A22  00C5               	movwf	0+(?___ftmul)^080h+03h
  6266  0A23  0869               	movf	(_fround$6336+1)^080h,w
  6267  0A24  00C6               	movwf	1+(?___ftmul)^080h+03h
  6268  0A25  086A               	movf	(_fround$6336+2)^080h,w
  6269  0A26  00C7               	movwf	2+(?___ftmul)^080h+03h
  6270  0A27  160A  118A  2454   	fcall	___ftmul
              120A  158A         
  6271  0A2C  1683               	bsf	status, 5	;RP0=1, select bank1
  6272  0A2D  1303               	bcf	status, 6	;RP1=0, select bank1
  6273  0A2E  0842               	movf	(0+(?___ftmul))^080h,w
  6274  0A2F  00DF               	movwf	(?_fround)^080h
  6275  0A30  0843               	movf	(1+(?___ftmul))^080h,w
  6276  0A31  00E0               	movwf	(?_fround+1)^080h
  6277  0A32  0844               	movf	(2+(?___ftmul))^080h,w
  6278  0A33  00E1               	movwf	(?_fround+2)^080h
  6279  0A34  2AFF               	goto	l4282
  6280                           	
  6281  0A35                     l9752:	
  6282  0A35  2AFF               	goto	l4282
  6283                           	
  6284  0A36                     l9754:	
  6285  0A36  2ACB               	goto	l9764
  6286                           	line	411
  6287                           	
  6288  0A37                     l4281:	
  6289                           	
  6290  0A37                     l9756:	
  6291  0A37  300B               	movlw	(0Bh)
  6292  0A38  026E               	subwf	(fround@prec)^080h,w
  6293  0A39  1C03               	skipc
  6294  0A3A  2A3C               	goto	u5871
  6295  0A3B  2A3D               	goto	u5870
  6296  0A3C                     u5871:
  6297  0A3C  2ACB               	goto	l9764
  6298  0A3D                     u5870:
  6299                           	line	412
  6300                           	
  6301  0A3D                     l9758:	
  6302  0A3D  3003               	movlw	(03h)
  6303  0A3E  00E2               	movwf	(??_fround+0)^080h+0
  6304  0A3F  0862               	movf	(??_fround+0)^080h+0,w
  6305  0A40  00B0               	movwf	(?___bmul)^080h
  6306  0A41  086E               	movf	(fround@prec)^080h,w
  6307  0A42  00E3               	movwf	(??_fround+1)^080h+0
  6308  0A43  01E4               	clrf	(??_fround+1)^080h+0+1
  6309  0A44  0863               	movf	0+(??_fround+1)^080h+0,w
  6310  0A45  00A2               	movwf	0+(?___awmod)^080h+02h
  6311  0A46  0864               	movf	1+(??_fround+1)^080h+0,w
  6312  0A47  00A3               	movwf	1+(?___awmod)^080h+02h
  6313  0A48  300A               	movlw	low(0Ah)
  6314  0A49  00A0               	movwf	(?___awmod)^080h
  6315  0A4A  3000               	movlw	high(0Ah)
  6316  0A4B  00A1               	movwf	((?___awmod)^080h)+1
  6317  0A4C  160A  158A  24A6   	fcall	___awmod
              120A  158A         
  6318  0A51  1683               	bsf	status, 5	;RP0=1, select bank1
  6319  0A52  1303               	bcf	status, 6	;RP1=0, select bank1
  6320  0A53  0820               	movf	(0+(?___awmod))^080h,w
  6321  0A54  160A  158A  2208   	fcall	___bmul
              120A  158A         
  6322  0A59  3E29               	addlw	low((__npowers_-__stringbase))
  6323  0A5A  0084               	movwf	fsr0
  6324  0A5B  160A  118A  200A   	fcall	stringdir
              120A  158A         
  6325  0A60  1683               	bsf	status, 5	;RP0=1, select bank1
  6326  0A61  1303               	bcf	status, 6	;RP1=0, select bank1
  6327  0A62  00C2               	movwf	(?___ftmul)^080h
  6328  0A63  160A  118A  200A   	fcall	stringdir
              120A  158A         
  6329  0A68  00C3               	movwf	(?___ftmul+1)^080h
  6330  0A69  160A  118A  200A   	fcall	stringdir
              120A  158A         
  6331  0A6E  00C4               	movwf	(?___ftmul+2)^080h
  6332  0A6F  3003               	movlw	(03h)
  6333  0A70  00E5               	movwf	(??_fround+3)^080h+0
  6334  0A71  0865               	movf	(??_fround+3)^080h+0,w
  6335  0A72  00B0               	movwf	(?___bmul)^080h
  6336  0A73  300A               	movlw	low(0Ah)
  6337  0A74  00A7               	movwf	(?___awdiv)^080h
  6338  0A75  3000               	movlw	high(0Ah)
  6339  0A76  00A8               	movwf	((?___awdiv)^080h)+1
  6340  0A77  086E               	movf	(fround@prec)^080h,w
  6341  0A78  00E6               	movwf	(??_fround+4)^080h+0
  6342  0A79  01E7               	clrf	(??_fround+4)^080h+0+1
  6343  0A7A  0866               	movf	0+(??_fround+4)^080h+0,w
  6344  0A7B  00A9               	movwf	0+(?___awdiv)^080h+02h
  6345  0A7C  0867               	movf	1+(??_fround+4)^080h+0,w
  6346  0A7D  00AA               	movwf	1+(?___awdiv)^080h+02h
  6347  0A7E  160A  158A  25EC   	fcall	___awdiv
              120A  158A         
  6348  0A83  1683               	bsf	status, 5	;RP0=1, select bank1
  6349  0A84  1303               	bcf	status, 6	;RP1=0, select bank1
  6350  0A85  0827               	movf	(0+(?___awdiv))^080h,w
  6351  0A86  3E09               	addlw	09h
  6352  0A87  160A  158A  2208   	fcall	___bmul
              120A  158A         
  6353  0A8C  3E29               	addlw	low((__npowers_-__stringbase))
  6354  0A8D  0084               	movwf	fsr0
  6355  0A8E  160A  118A  200A   	fcall	stringdir
              120A  158A         
  6356  0A93  1683               	bsf	status, 5	;RP0=1, select bank1
  6357  0A94  1303               	bcf	status, 6	;RP1=0, select bank1
  6358  0A95  00C5               	movwf	0+(?___ftmul)^080h+03h
  6359  0A96  160A  118A  200A   	fcall	stringdir
              120A  158A         
  6360  0A9B  00C6               	movwf	1+(?___ftmul)^080h+03h
  6361  0A9C  160A  118A  200A   	fcall	stringdir
              120A  158A         
  6362  0AA1  00C7               	movwf	2+(?___ftmul)^080h+03h
  6363  0AA2  160A  118A  2454   	fcall	___ftmul
              120A  158A         
  6364  0AA7  1683               	bsf	status, 5	;RP0=1, select bank1
  6365  0AA8  1303               	bcf	status, 6	;RP1=0, select bank1
  6366  0AA9  0842               	movf	(0+(?___ftmul))^080h,w
  6367  0AAA  00EB               	movwf	(_fround$6335)^080h
  6368  0AAB  0843               	movf	(1+(?___ftmul))^080h,w
  6369  0AAC  00EC               	movwf	(_fround$6335+1)^080h
  6370  0AAD  0844               	movf	(2+(?___ftmul))^080h,w
  6371  0AAE  00ED               	movwf	(_fround$6335+2)^080h
  6372                           	
  6373  0AAF                     l9760:	
  6374  0AAF  3000               	movlw	0x0
  6375  0AB0  00C2               	movwf	(?___ftmul)^080h
  6376  0AB1  3000               	movlw	0x0
  6377  0AB2  00C3               	movwf	(?___ftmul+1)^080h
  6378  0AB3  303F               	movlw	0x3f
  6379  0AB4  00C4               	movwf	(?___ftmul+2)^080h
  6380  0AB5  086B               	movf	(_fround$6335)^080h,w
  6381  0AB6  00C5               	movwf	0+(?___ftmul)^080h+03h
  6382  0AB7  086C               	movf	(_fround$6335+1)^080h,w
  6383  0AB8  00C6               	movwf	1+(?___ftmul)^080h+03h
  6384  0AB9  086D               	movf	(_fround$6335+2)^080h,w
  6385  0ABA  00C7               	movwf	2+(?___ftmul)^080h+03h
  6386  0ABB  160A  118A  2454   	fcall	___ftmul
              120A  158A         
  6387  0AC0  1683               	bsf	status, 5	;RP0=1, select bank1
  6388  0AC1  1303               	bcf	status, 6	;RP1=0, select bank1
  6389  0AC2  0842               	movf	(0+(?___ftmul))^080h,w
  6390  0AC3  00DF               	movwf	(?_fround)^080h
  6391  0AC4  0843               	movf	(1+(?___ftmul))^080h,w
  6392  0AC5  00E0               	movwf	(?_fround+1)^080h
  6393  0AC6  0844               	movf	(2+(?___ftmul))^080h,w
  6394  0AC7  00E1               	movwf	(?_fround+2)^080h
  6395  0AC8  2AFF               	goto	l4282
  6396                           	
  6397  0AC9                     l9762:	
  6398  0AC9  2AFF               	goto	l4282
  6399                           	
  6400  0ACA                     l4284:	
  6401  0ACA  2ACB               	goto	l9764
  6402                           	line	413
  6403                           	
  6404  0ACB                     l4283:	
  6405                           	
  6406  0ACB                     l9764:	
  6407  0ACB  3000               	movlw	0x0
  6408  0ACC  00C2               	movwf	(?___ftmul)^080h
  6409  0ACD  3000               	movlw	0x0
  6410  0ACE  00C3               	movwf	(?___ftmul+1)^080h
  6411  0ACF  303F               	movlw	0x3f
  6412  0AD0  00C4               	movwf	(?___ftmul+2)^080h
  6413  0AD1  3003               	movlw	(03h)
  6414  0AD2  00E2               	movwf	(??_fround+0)^080h+0
  6415  0AD3  0862               	movf	(??_fround+0)^080h+0,w
  6416  0AD4  00B0               	movwf	(?___bmul)^080h
  6417  0AD5  086E               	movf	(fround@prec)^080h,w
  6418  0AD6  160A  158A  2208   	fcall	___bmul
              120A  158A         
  6419  0ADB  3E29               	addlw	low((__npowers_-__stringbase))
  6420  0ADC  0084               	movwf	fsr0
  6421  0ADD  160A  118A  200A   	fcall	stringdir
              120A  158A         
  6422  0AE2  1683               	bsf	status, 5	;RP0=1, select bank1
  6423  0AE3  1303               	bcf	status, 6	;RP1=0, select bank1
  6424  0AE4  00C5               	movwf	0+(?___ftmul)^080h+03h
  6425  0AE5  160A  118A  200A   	fcall	stringdir
              120A  158A         
  6426  0AEA  00C6               	movwf	1+(?___ftmul)^080h+03h
  6427  0AEB  160A  118A  200A   	fcall	stringdir
              120A  158A         
  6428  0AF0  00C7               	movwf	2+(?___ftmul)^080h+03h
  6429  0AF1  160A  118A  2454   	fcall	___ftmul
              120A  158A         
  6430  0AF6  1683               	bsf	status, 5	;RP0=1, select bank1
  6431  0AF7  1303               	bcf	status, 6	;RP1=0, select bank1
  6432  0AF8  0842               	movf	(0+(?___ftmul))^080h,w
  6433  0AF9  00DF               	movwf	(?_fround)^080h
  6434  0AFA  0843               	movf	(1+(?___ftmul))^080h,w
  6435  0AFB  00E0               	movwf	(?_fround+1)^080h
  6436  0AFC  0844               	movf	(2+(?___ftmul))^080h,w
  6437  0AFD  00E1               	movwf	(?_fround+2)^080h
  6438  0AFE  2AFF               	goto	l4282
  6439                           	
  6440  0AFF                     l9766:	
  6441                           	line	414
  6442                           	
  6443  0AFF                     l4282:	
  6444  0AFF  0008               	return
  6445                           	opt stack 0
  6446                           GLOBAL	__end_of_fround
  6447  0B00                     	__end_of_fround:
  6448 ;; =============== function _fround ends ============
  6449                           
  6450                           	signat	_fround,4219
  6451                           	global	_JY62_InfiniteYaw
  6452                           psect	text935,local,class=CODE,delta=2
  6453                           global __ptext935
  6454  10B1                     __ptext935:
  6455                           
  6456 ;; *************** function _JY62_InfiniteYaw *****************
  6457 ;; Defined at:
  6458 ;;		line 86 in file "E:\MPLAB_IDE\JY62\JY62.c"
  6459 ;; Parameters:    Size  Location     Type
  6460 ;;  yaw             3   40[BANK1 ] float 
  6461 ;; Auto vars:     Size  Location     Type
  6462 ;;  new_yaw         3   47[BANK1 ] float 
  6463 ;; Return value:  Size  Location     Type
  6464 ;;                  3   40[BANK1 ] float 
  6465 ;; Registers used:
  6466 ;;		wreg, status,2, status,0, pclath, cstack
  6467 ;; Tracked objects:
  6468 ;;		On entry : 0/0
  6469 ;;		On exit  : 0/0
  6470 ;;		Unchanged: 0/0
  6471 ;; Data sizes:     COMMON   BANK0   BANK1   BANK3   BANK2
  6472 ;;      Params:         0       0       3       0       0
  6473 ;;      Locals:         0       0       3       0       0
  6474 ;;      Temps:          0       0       4       0       0
  6475 ;;      Totals:         0       0      10       0       0
  6476 ;;Total ram usage:       10 bytes
  6477 ;; Hardware stack levels used:    1
  6478 ;; Hardware stack levels required when called:    6
  6479 ;; This function calls:
  6480 ;;		___fttol
  6481 ;;		___awmod
  6482 ;;		___awtoft
  6483 ;; This function is called by:
  6484 ;;		_JY62_ShowData
  6485 ;; This function uses a non-reentrant model
  6486 ;;
  6487                           psect	text935
  6488                           	file	"E:\MPLAB_IDE\JY62\JY62.c"
  6489                           	line	86
  6490                           	global	__size_of_JY62_InfiniteYaw
  6491  004D                     	__size_of_JY62_InfiniteYaw	equ	__end_of_JY62_InfiniteYaw-_JY62_InfiniteYaw
  6492                           	
  6493  10B1                     _JY62_InfiniteYaw:	
  6494                           	opt	stack 0
  6495                           ; Regs used in _JY62_InfiniteYaw: [wreg+status,2+status,0+pclath+cstack]
  6496                           	line	98
  6497                           	
  6498  10B1                     l9740:	
  6499                           ;JY62.c: 97: float new_yaw;
  6500                           ;JY62.c: 98: new_yaw = 180 - (180 - (int)yaw) % 360;
  6501  10B1  3068               	movlw	low(0168h)
  6502  10B2  1683               	bsf	status, 5	;RP0=1, select bank1
  6503  10B3  1303               	bcf	status, 6	;RP1=0, select bank1
  6504  10B4  00A0               	movwf	(?___awmod)^080h
  6505  10B5  3001               	movlw	high(0168h)
  6506  10B6  00A1               	movwf	((?___awmod)^080h)+1
  6507  10B7  0848               	movf	(JY62_InfiniteYaw@yaw)^080h,w
  6508  10B8  00B4               	movwf	(?___fttol)^080h
  6509  10B9  0849               	movf	(JY62_InfiniteYaw@yaw+1)^080h,w
  6510  10BA  00B5               	movwf	(?___fttol+1)^080h
  6511  10BB  084A               	movf	(JY62_InfiniteYaw@yaw+2)^080h,w
  6512  10BC  00B6               	movwf	(?___fttol+2)^080h
  6513  10BD  160A  158A  275A   	fcall	___fttol
              160A  118A         
  6514  10C2  1683               	bsf	status, 5	;RP0=1, select bank1
  6515  10C3  1303               	bcf	status, 6	;RP1=0, select bank1
  6516  10C4  0934               	comf	0+(((0+(?___fttol))^080h)),w
  6517  10C5  00CB               	movwf	(??_JY62_InfiniteYaw+0)^080h+0
  6518  10C6  0935               	comf	1+(((0+(?___fttol))^080h)),w
  6519  10C7  00CC               	movwf	((??_JY62_InfiniteYaw+0)^080h+0+1)
  6520  10C8  0ACB               	incf	(??_JY62_InfiniteYaw+0)^080h+0,f
  6521  10C9  1903               	skipnz
  6522  10CA  0ACC               	incf	((??_JY62_InfiniteYaw+0)^080h+0+1),f
  6523  10CB  084B               	movf	0+(??_JY62_InfiniteYaw+0)^080h+0,w
  6524  10CC  3EB4               	addlw	low(0B4h)
  6525  10CD  00A2               	movwf	0+(?___awmod)^080h+02h
  6526  10CE  084C               	movf	1+(??_JY62_InfiniteYaw+0)^080h+0,w
  6527  10CF  1803               	skipnc
  6528  10D0  3E01               	addlw	1
  6529  10D1  3E00               	addlw	high(0B4h)
  6530  10D2  00A3               	movwf	1+0+(?___awmod)^080h+02h
  6531  10D3  160A  158A  24A6   	fcall	___awmod
              160A  118A         
  6532  10D8  1683               	bsf	status, 5	;RP0=1, select bank1
  6533  10D9  1303               	bcf	status, 6	;RP1=0, select bank1
  6534  10DA  0920               	comf	(0+(?___awmod))^080h,w
  6535  10DB  00CD               	movwf	(??_JY62_InfiniteYaw+2)^080h+0
  6536  10DC  0921               	comf	(1+(?___awmod))^080h,w
  6537  10DD  00CE               	movwf	((??_JY62_InfiniteYaw+2)^080h+0+1)
  6538  10DE  0ACD               	incf	(??_JY62_InfiniteYaw+2)^080h+0,f
  6539  10DF  1903               	skipnz
  6540  10E0  0ACE               	incf	((??_JY62_InfiniteYaw+2)^080h+0+1),f
  6541  10E1  084D               	movf	0+(??_JY62_InfiniteYaw+2)^080h+0,w
  6542  10E2  3EB4               	addlw	low(0B4h)
  6543  10E3  00C2               	movwf	(?___awtoft)^080h
  6544  10E4  084E               	movf	1+(??_JY62_InfiniteYaw+2)^080h+0,w
  6545  10E5  1803               	skipnc
  6546  10E6  3E01               	addlw	1
  6547  10E7  3E00               	addlw	high(0B4h)
  6548  10E8  00C3               	movwf	1+(?___awtoft)^080h
  6549  10E9  160A  158A  22F3   	fcall	___awtoft
              160A  118A         
  6550  10EE  1683               	bsf	status, 5	;RP0=1, select bank1
  6551  10EF  1303               	bcf	status, 6	;RP1=0, select bank1
  6552  10F0  0842               	movf	(0+(?___awtoft))^080h,w
  6553  10F1  00CF               	movwf	(JY62_InfiniteYaw@new_yaw)^080h
  6554  10F2  0843               	movf	(1+(?___awtoft))^080h,w
  6555  10F3  00D0               	movwf	(JY62_InfiniteYaw@new_yaw+1)^080h
  6556  10F4  0844               	movf	(2+(?___awtoft))^080h,w
  6557  10F5  00D1               	movwf	(JY62_InfiniteYaw@new_yaw+2)^080h
  6558                           	line	99
  6559                           	
  6560  10F6                     l9742:	
  6561                           ;JY62.c: 99: return new_yaw;
  6562  10F6  084F               	movf	(JY62_InfiniteYaw@new_yaw)^080h,w
  6563  10F7  00C8               	movwf	(?_JY62_InfiniteYaw)^080h
  6564  10F8  0850               	movf	(JY62_InfiniteYaw@new_yaw+1)^080h,w
  6565  10F9  00C9               	movwf	(?_JY62_InfiniteYaw+1)^080h
  6566  10FA  0851               	movf	(JY62_InfiniteYaw@new_yaw+2)^080h,w
  6567  10FB  00CA               	movwf	(?_JY62_InfiniteYaw+2)^080h
  6568  10FC  28FD               	goto	l2889
  6569                           	
  6570  10FD                     l9744:	
  6571                           	line	100
  6572                           	
  6573  10FD                     l2889:	
  6574  10FD  0008               	return
  6575                           	opt stack 0
  6576                           GLOBAL	__end_of_JY62_InfiniteYaw
  6577  10FE                     	__end_of_JY62_InfiniteYaw:
  6578 ;; =============== function _JY62_InfiniteYaw ends ============
  6579                           
  6580                           	signat	_JY62_InfiniteYaw,4219
  6581                           	global	_LCD_ShowString
  6582                           psect	text936,local,class=CODE,delta=2
  6583                           global __ptext936
  6584  1BEE                     __ptext936:
  6585                           
  6586 ;; *************** function _LCD_ShowString *****************
  6587 ;; Defined at:
  6588 ;;		line 48 in file "E:\MPLAB_IDE\JY62\LCD.c"
  6589 ;; Parameters:    Size  Location     Type
  6590 ;;  str             2    2[BANK1 ] PTR unsigned char 
  6591 ;;		 -> JY62_ShowData@str(11), STR_5(5), STR_4(7), STR_3(14), 
  6592 ;;		 -> STR_2(5), floatToStr@charbuf(10), 
  6593 ;;  row             1    4[BANK1 ] unsigned char 
  6594 ;;  col             1    5[BANK1 ] unsigned char 
  6595 ;; Auto vars:     Size  Location     Type
  6596 ;;  address         1    7[BANK1 ] unsigned char 
  6597 ;; Return value:  Size  Location     Type
  6598 ;;		None               void
  6599 ;; Registers used:
  6600 ;;		wreg, fsr0l, fsr0h, status,2, status,0, btemp+1, pclath, cstack
  6601 ;; Tracked objects:
  6602 ;;		On entry : 0/0
  6603 ;;		On exit  : 0/0
  6604 ;;		Unchanged: 0/0
  6605 ;; Data sizes:     COMMON   BANK0   BANK1   BANK3   BANK2
  6606 ;;      Params:         0       0       4       0       0
  6607 ;;      Locals:         0       0       1       0       0
  6608 ;;      Temps:          0       0       1       0       0
  6609 ;;      Totals:         0       0       6       0       0
  6610 ;;Total ram usage:        6 bytes
  6611 ;; Hardware stack levels used:    1
  6612 ;; Hardware stack levels required when called:    6
  6613 ;; This function calls:
  6614 ;;		_ENABLE
  6615 ;;		_ENABLE1
  6616 ;;		_DELAY
  6617 ;; This function is called by:
  6618 ;;		_main
  6619 ;;		_JY62_ShowData
  6620 ;;		_floatToStr
  6621 ;; This function uses a non-reentrant model
  6622 ;;
  6623                           psect	text936
  6624                           	file	"E:\MPLAB_IDE\JY62\LCD.c"
  6625                           	line	48
  6626                           	global	__size_of_LCD_ShowString
  6627  005A                     	__size_of_LCD_ShowString	equ	__end_of_LCD_ShowString-_LCD_ShowString
  6628                           	
  6629  1BEE                     _LCD_ShowString:	
  6630 ;; using string table level
  6631                           	opt	stack 1
  6632                           ; Regs used in _LCD_ShowString: [wreg-fsr0h+status,2+status,0+btemp+1+pclath+cstack]
  6633                           	line	50
  6634                           	
  6635  1BEE                     l9720:	
  6636                           ;LCD.c: 49: unsigned char address;
  6637                           ;LCD.c: 50: if (row == 0) {
  6638  1BEE  1683               	bsf	status, 5	;RP0=1, select bank1
  6639  1BEF  1303               	bcf	status, 6	;RP1=0, select bank1
  6640  1BF0  08A4               	movf	(LCD_ShowString@row)^080h,f
  6641  1BF1  1D03               	skipz
  6642  1BF2  2BF4               	goto	u5841
  6643  1BF3  2BF5               	goto	u5840
  6644  1BF4                     u5841:
  6645  1BF4  2BFB               	goto	l9724
  6646  1BF5                     u5840:
  6647                           	line	51
  6648                           	
  6649  1BF5                     l9722:	
  6650                           ;LCD.c: 51: address = 0x80 + col;
  6651  1BF5  0825               	movf	(LCD_ShowString@col)^080h,w
  6652  1BF6  3E80               	addlw	080h
  6653  1BF7  00A6               	movwf	(??_LCD_ShowString+0)^080h+0
  6654  1BF8  0826               	movf	(??_LCD_ShowString+0)^080h+0,w
  6655  1BF9  00A7               	movwf	(LCD_ShowString@address)^080h
  6656                           	line	52
  6657                           ;LCD.c: 52: } else {
  6658  1BFA  2C01               	goto	l9726
  6659                           	
  6660  1BFB                     l704:	
  6661                           	line	53
  6662                           	
  6663  1BFB                     l9724:	
  6664                           ;LCD.c: 53: address = 0xC0 + col;
  6665  1BFB  0825               	movf	(LCD_ShowString@col)^080h,w
  6666  1BFC  3EC0               	addlw	0C0h
  6667  1BFD  00A6               	movwf	(??_LCD_ShowString+0)^080h+0
  6668  1BFE  0826               	movf	(??_LCD_ShowString+0)^080h+0,w
  6669  1BFF  00A7               	movwf	(LCD_ShowString@address)^080h
  6670  1C00  2C01               	goto	l9726
  6671                           	line	54
  6672                           	
  6673  1C01                     l705:	
  6674                           	line	55
  6675                           	
  6676  1C01                     l9726:	
  6677                           ;LCD.c: 54: }
  6678                           ;LCD.c: 55: PORTD = address;
  6679  1C01  0827               	movf	(LCD_ShowString@address)^080h,w
  6680  1C02  1283               	bcf	status, 5	;RP0=0, select bank0
  6681  1C03  1303               	bcf	status, 6	;RP1=0, select bank0
  6682  1C04  0088               	movwf	(8)	;volatile
  6683                           	line	56
  6684                           	
  6685  1C05                     l9728:	
  6686                           ;LCD.c: 56: ENABLE();
  6687  1C05  160A  158A  21A1   	fcall	_ENABLE
              160A  158A         
  6688                           	line	58
  6689                           ;LCD.c: 58: while (*str != '\0') {
  6690  1C0A  2C30               	goto	l9738
  6691                           	
  6692  1C0B                     l707:	
  6693                           	line	59
  6694                           	
  6695  1C0B                     l9730:	
  6696                           ;LCD.c: 59: PORTD = *str++;
  6697  1C0B  1683               	bsf	status, 5	;RP0=1, select bank1
  6698  1C0C  1303               	bcf	status, 6	;RP1=0, select bank1
  6699  1C0D  0823               	movf	(LCD_ShowString@str+1)^080h,w
  6700  1C0E  1283               	bcf	status, 5	;RP0=0, select bank0
  6701  1C0F  1303               	bcf	status, 6	;RP1=0, select bank0
  6702  1C10  00FF               	movwf	btemp+1
  6703  1C11  1683               	bsf	status, 5	;RP0=1, select bank1
  6704  1C12  1303               	bcf	status, 6	;RP1=0, select bank1
  6705  1C13  0822               	movf	(LCD_ShowString@str)^080h,w
  6706  1C14  0084               	movwf	fsr0
  6707  1C15  1283               	bcf	status, 5	;RP0=0, select bank0
  6708  1C16  1303               	bcf	status, 6	;RP1=0, select bank0
  6709  1C17  160A  118A  2000   	fcall	stringtab
              160A  158A         
  6710  1C1C  0088               	movwf	(8)	;volatile
  6711                           	
  6712  1C1D                     l9732:	
  6713  1C1D  3001               	movlw	low(01h)
  6714  1C1E  1683               	bsf	status, 5	;RP0=1, select bank1
  6715  1C1F  1303               	bcf	status, 6	;RP1=0, select bank1
  6716  1C20  07A2               	addwf	(LCD_ShowString@str)^080h,f
  6717  1C21  1803               	skipnc
  6718  1C22  0AA3               	incf	(LCD_ShowString@str+1)^080h,f
  6719  1C23  3000               	movlw	high(01h)
  6720  1C24  07A3               	addwf	(LCD_ShowString@str+1)^080h,f
  6721                           	line	60
  6722                           	
  6723  1C25                     l9734:	
  6724                           ;LCD.c: 60: ENABLE1();
  6725  1C25  160A  158A  21AF   	fcall	_ENABLE1
              160A  158A         
  6726                           	line	61
  6727                           	
  6728  1C2A                     l9736:	
  6729                           ;LCD.c: 61: DELAY();
  6730  1C2A  160A  158A  2222   	fcall	_DELAY
              160A  158A         
  6731  1C2F  2C30               	goto	l9738
  6732                           	line	62
  6733                           	
  6734  1C30                     l706:	
  6735                           	line	58
  6736                           	
  6737  1C30                     l9738:	
  6738  1C30  1683               	bsf	status, 5	;RP0=1, select bank1
  6739  1C31  1303               	bcf	status, 6	;RP1=0, select bank1
  6740  1C32  0823               	movf	(LCD_ShowString@str+1)^080h,w
  6741  1C33  1283               	bcf	status, 5	;RP0=0, select bank0
  6742  1C34  1303               	bcf	status, 6	;RP1=0, select bank0
  6743  1C35  00FF               	movwf	btemp+1
  6744  1C36  1683               	bsf	status, 5	;RP0=1, select bank1
  6745  1C37  1303               	bcf	status, 6	;RP1=0, select bank1
  6746  1C38  0822               	movf	(LCD_ShowString@str)^080h,w
  6747  1C39  0084               	movwf	fsr0
  6748  1C3A  1283               	bcf	status, 5	;RP0=0, select bank0
  6749  1C3B  1303               	bcf	status, 6	;RP1=0, select bank0
  6750  1C3C  160A  118A  2000   	fcall	stringtab
              160A  158A         
  6751  1C41  3800               	iorlw	0
  6752  1C42  1D03               	skipz
  6753  1C43  2C45               	goto	u5851
  6754  1C44  2C46               	goto	u5850
  6755  1C45                     u5851:
  6756  1C45  2C0B               	goto	l9730
  6757  1C46                     u5850:
  6758  1C46  2C47               	goto	l709
  6759                           	
  6760  1C47                     l708:	
  6761                           	line	63
  6762                           	
  6763  1C47                     l709:	
  6764  1C47  0008               	return
  6765                           	opt stack 0
  6766                           GLOBAL	__end_of_LCD_ShowString
  6767  1C48                     	__end_of_LCD_ShowString:
  6768 ;; =============== function _LCD_ShowString ends ============
  6769                           
  6770                           	signat	_LCD_ShowString,12408
  6771                           	global	_LCD_Clear
  6772                           psect	text937,local,class=CODE,delta=2
  6773                           global __ptext937
  6774  19BD                     __ptext937:
  6775                           
  6776 ;; *************** function _LCD_Clear *****************
  6777 ;; Defined at:
  6778 ;;		line 42 in file "E:\MPLAB_IDE\JY62\LCD.c"
  6779 ;; Parameters:    Size  Location     Type
  6780 ;;		None
  6781 ;; Auto vars:     Size  Location     Type
  6782 ;;		None
  6783 ;; Return value:  Size  Location     Type
  6784 ;;		None               void
  6785 ;; Registers used:
  6786 ;;		wreg, status,2, status,0, pclath, cstack
  6787 ;; Tracked objects:
  6788 ;;		On entry : 0/0
  6789 ;;		On exit  : 0/0
  6790 ;;		Unchanged: 0/0
  6791 ;; Data sizes:     COMMON   BANK0   BANK1   BANK3   BANK2
  6792 ;;      Params:         0       0       0       0       0
  6793 ;;      Locals:         0       0       0       0       0
  6794 ;;      Temps:          0       0       0       0       0
  6795 ;;      Totals:         0       0       0       0       0
  6796 ;;Total ram usage:        0 bytes
  6797 ;; Hardware stack levels used:    1
  6798 ;; Hardware stack levels required when called:    6
  6799 ;; This function calls:
  6800 ;;		_ENABLE
  6801 ;;		_DELAY
  6802 ;; This function is called by:
  6803 ;;		_main
  6804 ;; This function uses a non-reentrant model
  6805 ;;
  6806                           psect	text937
  6807                           	file	"E:\MPLAB_IDE\JY62\LCD.c"
  6808                           	line	42
  6809                           	global	__size_of_LCD_Clear
  6810  000F                     	__size_of_LCD_Clear	equ	__end_of_LCD_Clear-_LCD_Clear
  6811                           	
  6812  19BD                     _LCD_Clear:	
  6813                           	opt	stack 1
  6814                           ; Regs used in _LCD_Clear: [wreg+status,2+status,0+pclath+cstack]
  6815                           	line	43
  6816                           	
  6817  19BD                     l9714:	
  6818                           ;LCD.c: 43: ENABLE();
  6819  19BD  160A  158A  21A1   	fcall	_ENABLE
              160A  158A         
  6820                           	line	44
  6821                           	
  6822  19C2                     l9716:	
  6823                           ;LCD.c: 44: PORTD = 0x01;
  6824  19C2  3001               	movlw	(01h)
  6825  19C3  1283               	bcf	status, 5	;RP0=0, select bank0
  6826  19C4  1303               	bcf	status, 6	;RP1=0, select bank0
  6827  19C5  0088               	movwf	(8)	;volatile
  6828                           	line	45
  6829                           	
  6830  19C6                     l9718:	
  6831                           ;LCD.c: 45: DELAY();
  6832  19C6  160A  158A  2222   	fcall	_DELAY
              160A  158A         
  6833                           	line	46
  6834                           	
  6835  19CB                     l701:	
  6836  19CB  0008               	return
  6837                           	opt stack 0
  6838                           GLOBAL	__end_of_LCD_Clear
  6839  19CC                     	__end_of_LCD_Clear:
  6840 ;; =============== function _LCD_Clear ends ============
  6841                           
  6842                           	signat	_LCD_Clear,88
  6843                           	global	_LCD_Init
  6844                           psect	text938,local,class=CODE,delta=2
  6845                           global __ptext938
  6846  1B55                     __ptext938:
  6847                           
  6848 ;; *************** function _LCD_Init *****************
  6849 ;; Defined at:
  6850 ;;		line 25 in file "E:\MPLAB_IDE\JY62\LCD.c"
  6851 ;; Parameters:    Size  Location     Type
  6852 ;;		None
  6853 ;; Auto vars:     Size  Location     Type
  6854 ;;		None
  6855 ;; Return value:  Size  Location     Type
  6856 ;;		None               void
  6857 ;; Registers used:
  6858 ;;		wreg, status,2, status,0, pclath, cstack
  6859 ;; Tracked objects:
  6860 ;;		On entry : 0/0
  6861 ;;		On exit  : 0/0
  6862 ;;		Unchanged: 0/0
  6863 ;; Data sizes:     COMMON   BANK0   BANK1   BANK3   BANK2
  6864 ;;      Params:         0       0       0       0       0
  6865 ;;      Locals:         0       0       0       0       0
  6866 ;;      Temps:          0       0       0       0       0
  6867 ;;      Totals:         0       0       0       0       0
  6868 ;;Total ram usage:        0 bytes
  6869 ;; Hardware stack levels used:    1
  6870 ;; Hardware stack levels required when called:    6
  6871 ;; This function calls:
  6872 ;;		_DELAY
  6873 ;;		_ENABLE
  6874 ;; This function is called by:
  6875 ;;		_main
  6876 ;; This function uses a non-reentrant model
  6877 ;;
  6878                           psect	text938
  6879                           	file	"E:\MPLAB_IDE\JY62\LCD.c"
  6880                           	line	25
  6881                           	global	__size_of_LCD_Init
  6882  0040                     	__size_of_LCD_Init	equ	__end_of_LCD_Init-_LCD_Init
  6883                           	
  6884  1B55                     _LCD_Init:	
  6885                           	opt	stack 1
  6886                           ; Regs used in _LCD_Init: [wreg+status,2+status,0+pclath+cstack]
  6887                           	line	26
  6888                           	
  6889  1B55                     l9684:	
  6890                           ;LCD.c: 26: TRISD = 0x00;
  6891  1B55  1683               	bsf	status, 5	;RP0=1, select bank1
  6892  1B56  1303               	bcf	status, 6	;RP1=0, select bank1
  6893  1B57  0188               	clrf	(136)^080h	;volatile
  6894                           	line	27
  6895                           	
  6896  1B58                     l9686:	
  6897                           ;LCD.c: 27: ADCON1=7;
  6898  1B58  3007               	movlw	(07h)
  6899  1B59  009F               	movwf	(159)^080h	;volatile
  6900                           	line	28
  6901                           	
  6902  1B5A                     l9688:	
  6903                           ;LCD.c: 28: TRISA=0;
  6904  1B5A  0185               	clrf	(133)^080h	;volatile
  6905                           	line	29
  6906                           	
  6907  1B5B                     l9690:	
  6908                           ;LCD.c: 29: PORTD=0;
  6909  1B5B  1283               	bcf	status, 5	;RP0=0, select bank0
  6910  1B5C  1303               	bcf	status, 6	;RP1=0, select bank0
  6911  1B5D  0188               	clrf	(8)	;volatile
  6912                           	line	30
  6913                           	
  6914  1B5E                     l9692:	
  6915                           ;LCD.c: 30: RA3=1;
  6916  1B5E  1585               	bsf	(43/8),(43)&7
  6917                           	line	31
  6918                           	
  6919  1B5F                     l9694:	
  6920                           ;LCD.c: 31: DELAY();
  6921  1B5F  160A  158A  2222   	fcall	_DELAY
              160A  158A         
  6922                           	line	33
  6923                           	
  6924  1B64                     l9696:	
  6925                           ;LCD.c: 33: TRISD=0; TRISA=0;
  6926  1B64  1683               	bsf	status, 5	;RP0=1, select bank1
  6927  1B65  1303               	bcf	status, 6	;RP1=0, select bank1
  6928  1B66  0188               	clrf	(136)^080h	;volatile
  6929                           	
  6930  1B67                     l9698:	
  6931  1B67  0185               	clrf	(133)^080h	;volatile
  6932                           	line	34
  6933                           	
  6934  1B68                     l9700:	
  6935                           ;LCD.c: 34: PORTD=0;
  6936  1B68  1283               	bcf	status, 5	;RP0=0, select bank0
  6937  1B69  1303               	bcf	status, 6	;RP1=0, select bank0
  6938  1B6A  0188               	clrf	(8)	;volatile
  6939                           	line	35
  6940                           	
  6941  1B6B                     l9702:	
  6942                           ;LCD.c: 35: DELAY();
  6943  1B6B  160A  158A  2222   	fcall	_DELAY
              160A  158A         
  6944                           	line	36
  6945                           ;LCD.c: 36: PORTD=1; ENABLE();
  6946  1B70  3001               	movlw	(01h)
  6947  1B71  1283               	bcf	status, 5	;RP0=0, select bank0
  6948  1B72  1303               	bcf	status, 6	;RP1=0, select bank0
  6949  1B73  0088               	movwf	(8)	;volatile
  6950                           	
  6951  1B74                     l9704:	
  6952  1B74  160A  158A  21A1   	fcall	_ENABLE
              160A  158A         
  6953                           	line	37
  6954                           	
  6955  1B79                     l9706:	
  6956                           ;LCD.c: 37: PORTD=0x38; ENABLE();
  6957  1B79  3038               	movlw	(038h)
  6958  1B7A  1283               	bcf	status, 5	;RP0=0, select bank0
  6959  1B7B  1303               	bcf	status, 6	;RP1=0, select bank0
  6960  1B7C  0088               	movwf	(8)	;volatile
  6961  1B7D  160A  158A  21A1   	fcall	_ENABLE
              160A  158A         
  6962                           	line	38
  6963                           	
  6964  1B82                     l9708:	
  6965                           ;LCD.c: 38: PORTD=0x0c; ENABLE();
  6966  1B82  300C               	movlw	(0Ch)
  6967  1B83  1283               	bcf	status, 5	;RP0=0, select bank0
  6968  1B84  1303               	bcf	status, 6	;RP1=0, select bank0
  6969  1B85  0088               	movwf	(8)	;volatile
  6970                           	
  6971  1B86                     l9710:	
  6972  1B86  160A  158A  21A1   	fcall	_ENABLE
              160A  158A         
  6973                           	line	39
  6974                           ;LCD.c: 39: PORTD=0x06; ENABLE();
  6975  1B8B  3006               	movlw	(06h)
  6976  1B8C  1283               	bcf	status, 5	;RP0=0, select bank0
  6977  1B8D  1303               	bcf	status, 6	;RP1=0, select bank0
  6978  1B8E  0088               	movwf	(8)	;volatile
  6979                           	
  6980  1B8F                     l9712:	
  6981  1B8F  160A  158A  21A1   	fcall	_ENABLE
              160A  158A         
  6982                           	line	40
  6983                           	
  6984  1B94                     l698:	
  6985  1B94  0008               	return
  6986                           	opt stack 0
  6987                           GLOBAL	__end_of_LCD_Init
  6988  1B95                     	__end_of_LCD_Init:
  6989 ;; =============== function _LCD_Init ends ============
  6990                           
  6991                           	signat	_LCD_Init,88
  6992                           	global	___lltoft
  6993                           psect	text939,local,class=CODE,delta=2
  6994                           global __ptext939
  6995  1B1F                     __ptext939:
  6996                           
  6997 ;; *************** function ___lltoft *****************
  6998 ;; Defined at:
  6999 ;;		line 36 in file "C:\Program Files (x86)\HI-TECH Software\PICC\9.82\sources\lltoft.c"
  7000 ;; Parameters:    Size  Location     Type
  7001 ;;  c               4    8[BANK1 ] unsigned long 
  7002 ;; Auto vars:     Size  Location     Type
  7003 ;;  exp             1   13[BANK1 ] unsigned char 
  7004 ;; Return value:  Size  Location     Type
  7005 ;;                  3    8[BANK1 ] float 
  7006 ;; Registers used:
  7007 ;;		wreg, status,2, status,0, pclath, cstack
  7008 ;; Tracked objects:
  7009 ;;		On entry : 0/0
  7010 ;;		On exit  : 0/0
  7011 ;;		Unchanged: 0/0
  7012 ;; Data sizes:     COMMON   BANK0   BANK1   BANK3   BANK2
  7013 ;;      Params:         0       0       4       0       0
  7014 ;;      Locals:         0       0       1       0       0
  7015 ;;      Temps:          0       0       1       0       0
  7016 ;;      Totals:         0       0       6       0       0
  7017 ;;Total ram usage:        6 bytes
  7018 ;; Hardware stack levels used:    1
  7019 ;; Hardware stack levels required when called:    5
  7020 ;; This function calls:
  7021 ;;		___ftpack
  7022 ;; This function is called by:
  7023 ;;		_sprintf
  7024 ;; This function uses a non-reentrant model
  7025 ;;
  7026                           psect	text939
  7027                           	file	"C:\Program Files (x86)\HI-TECH Software\PICC\9.82\sources\lltoft.c"
  7028                           	line	36
  7029                           	global	__size_of___lltoft
  7030  0036                     	__size_of___lltoft	equ	__end_of___lltoft-___lltoft
  7031                           	
  7032  1B1F                     ___lltoft:	
  7033                           	opt	stack 0
  7034                           ; Regs used in ___lltoft: [wreg+status,2+status,0+pclath+cstack]
  7035                           	line	38
  7036                           	
  7037  1B1F                     l9674:	
  7038  1B1F  308E               	movlw	(08Eh)
  7039  1B20  1683               	bsf	status, 5	;RP0=1, select bank1
  7040  1B21  1303               	bcf	status, 6	;RP1=0, select bank1
  7041  1B22  00AC               	movwf	(??___lltoft+0)^080h+0
  7042  1B23  082C               	movf	(??___lltoft+0)^080h+0,w
  7043  1B24  00AD               	movwf	(___lltoft@exp)^080h
  7044                           	line	41
  7045  1B25  2B34               	goto	l9678
  7046                           	
  7047  1B26                     l5328:	
  7048                           	line	42
  7049                           	
  7050  1B26                     l9676:	
  7051  1B26  3001               	movlw	01h
  7052  1B27                     u5825:
  7053  1B27  1003               	clrc
  7054  1B28  0CAB               	rrf	(___lltoft@c+3)^080h,f
  7055  1B29  0CAA               	rrf	(___lltoft@c+2)^080h,f
  7056  1B2A  0CA9               	rrf	(___lltoft@c+1)^080h,f
  7057  1B2B  0CA8               	rrf	(___lltoft@c)^080h,f
  7058  1B2C  3EFF               	addlw	-1
  7059  1B2D  1D03               	skipz
  7060  1B2E  2B27               	goto	u5825
  7061                           
  7062                           	line	43
  7063  1B2F  3001               	movlw	(01h)
  7064  1B30  00AC               	movwf	(??___lltoft+0)^080h+0
  7065  1B31  082C               	movf	(??___lltoft+0)^080h+0,w
  7066  1B32  07AD               	addwf	(___lltoft@exp)^080h,f
  7067  1B33  2B34               	goto	l9678
  7068                           	line	44
  7069                           	
  7070  1B34                     l5327:	
  7071                           	line	41
  7072                           	
  7073  1B34                     l9678:	
  7074  1B34  30FF               	movlw	high highword(-16777216)
  7075  1B35  052B               	andwf	(___lltoft@c+3)^080h,w
  7076  1B36  1D03               	btfss	status,2
  7077  1B37  2B39               	goto	u5831
  7078  1B38  2B3A               	goto	u5830
  7079  1B39                     u5831:
  7080  1B39  2B26               	goto	l9676
  7081  1B3A                     u5830:
  7082  1B3A  2B3B               	goto	l9680
  7083                           	
  7084  1B3B                     l5329:	
  7085                           	line	45
  7086                           	
  7087  1B3B                     l9680:	
  7088  1B3B  0828               	movf	(___lltoft@c)^080h,w
  7089  1B3C  00A0               	movwf	(?___ftpack)^080h
  7090  1B3D  0829               	movf	(___lltoft@c+1)^080h,w
  7091  1B3E  00A1               	movwf	(?___ftpack+1)^080h
  7092  1B3F  082A               	movf	(___lltoft@c+2)^080h,w
  7093  1B40  00A2               	movwf	(?___ftpack+2)^080h
  7094  1B41  082D               	movf	(___lltoft@exp)^080h,w
  7095  1B42  00AC               	movwf	(??___lltoft+0)^080h+0
  7096  1B43  082C               	movf	(??___lltoft+0)^080h+0,w
  7097  1B44  00A3               	movwf	0+(?___ftpack)^080h+03h
  7098  1B45  01A4               	clrf	0+(?___ftpack)^080h+04h
  7099  1B46  160A  158A  26DD   	fcall	___ftpack
              160A  158A         
  7100  1B4B  1683               	bsf	status, 5	;RP0=1, select bank1
  7101  1B4C  1303               	bcf	status, 6	;RP1=0, select bank1
  7102  1B4D  0820               	movf	(0+(?___ftpack))^080h,w
  7103  1B4E  00A8               	movwf	(?___lltoft)^080h
  7104  1B4F  0821               	movf	(1+(?___ftpack))^080h,w
  7105  1B50  00A9               	movwf	(?___lltoft+1)^080h
  7106  1B51  0822               	movf	(2+(?___ftpack))^080h,w
  7107  1B52  00AA               	movwf	(?___lltoft+2)^080h
  7108  1B53  2B54               	goto	l5330
  7109                           	
  7110  1B54                     l9682:	
  7111                           	line	46
  7112                           	
  7113  1B54                     l5330:	
  7114  1B54  0008               	return
  7115                           	opt stack 0
  7116                           GLOBAL	__end_of___lltoft
  7117  1B55                     	__end_of___lltoft:
  7118 ;; =============== function ___lltoft ends ============
  7119                           
  7120                           	signat	___lltoft,4219
  7121                           	global	___awtoft
  7122                           psect	text940,local,class=CODE,delta=2
  7123                           global __ptext940
  7124  1AF3                     __ptext940:
  7125                           
  7126 ;; *************** function ___awtoft *****************
  7127 ;; Defined at:
  7128 ;;		line 33 in file "C:\Program Files (x86)\HI-TECH Software\PICC\9.82\sources\awtoft.c"
  7129 ;; Parameters:    Size  Location     Type
  7130 ;;  c               2   34[BANK1 ] int 
  7131 ;; Auto vars:     Size  Location     Type
  7132 ;;  sign            1   39[BANK1 ] unsigned char 
  7133 ;; Return value:  Size  Location     Type
  7134 ;;                  3   34[BANK1 ] float 
  7135 ;; Registers used:
  7136 ;;		wreg, status,2, status,0, pclath, cstack
  7137 ;; Tracked objects:
  7138 ;;		On entry : 0/0
  7139 ;;		On exit  : 0/0
  7140 ;;		Unchanged: 0/0
  7141 ;; Data sizes:     COMMON   BANK0   BANK1   BANK3   BANK2
  7142 ;;      Params:         0       0       3       0       0
  7143 ;;      Locals:         0       0       1       0       0
  7144 ;;      Temps:          0       0       2       0       0
  7145 ;;      Totals:         0       0       6       0       0
  7146 ;;Total ram usage:        6 bytes
  7147 ;; Hardware stack levels used:    1
  7148 ;; Hardware stack levels required when called:    5
  7149 ;; This function calls:
  7150 ;;		___ftpack
  7151 ;; This function is called by:
  7152 ;;		_JY62_InfiniteYaw
  7153 ;; This function uses a non-reentrant model
  7154 ;;
  7155                           psect	text940
  7156                           	file	"C:\Program Files (x86)\HI-TECH Software\PICC\9.82\sources\awtoft.c"
  7157                           	line	33
  7158                           	global	__size_of___awtoft
  7159  002C                     	__size_of___awtoft	equ	__end_of___awtoft-___awtoft
  7160                           	
  7161  1AF3                     ___awtoft:	
  7162                           	opt	stack 0
  7163                           ; Regs used in ___awtoft: [wreg+status,2+status,0+pclath+cstack]
  7164                           	line	36
  7165                           	
  7166  1AF3                     l9666:	
  7167  1AF3  1683               	bsf	status, 5	;RP0=1, select bank1
  7168  1AF4  1303               	bcf	status, 6	;RP1=0, select bank1
  7169  1AF5  01C7               	clrf	(___awtoft@sign)^080h
  7170                           	line	37
  7171  1AF6  1FC3               	btfss	(___awtoft@c+1)^080h,7
  7172  1AF7  2AF9               	goto	u5811
  7173  1AF8  2AFA               	goto	u5810
  7174  1AF9                     u5811:
  7175  1AF9  2B03               	goto	l9670
  7176  1AFA                     u5810:
  7177                           	line	38
  7178                           	
  7179  1AFA                     l9668:	
  7180  1AFA  09C2               	comf	(___awtoft@c)^080h,f
  7181  1AFB  09C3               	comf	(___awtoft@c+1)^080h,f
  7182  1AFC  0AC2               	incf	(___awtoft@c)^080h,f
  7183  1AFD  1903               	skipnz
  7184  1AFE  0AC3               	incf	(___awtoft@c+1)^080h,f
  7185                           	line	39
  7186  1AFF  01C7               	clrf	(___awtoft@sign)^080h
  7187  1B00  1403               	bsf	status,0
  7188  1B01  0DC7               	rlf	(___awtoft@sign)^080h,f
  7189  1B02  2B03               	goto	l9670
  7190                           	line	40
  7191                           	
  7192  1B03                     l5226:	
  7193                           	line	41
  7194                           	
  7195  1B03                     l9670:	
  7196  1B03  0842               	movf	(___awtoft@c)^080h,w
  7197  1B04  00A0               	movwf	(?___ftpack)^080h
  7198  1B05  0843               	movf	(___awtoft@c+1)^080h,w
  7199  1B06  00A1               	movwf	(?___ftpack+1)^080h
  7200  1B07  01A2               	clrf	(?___ftpack+2)^080h
  7201  1B08  308E               	movlw	(08Eh)
  7202  1B09  00C5               	movwf	(??___awtoft+0)^080h+0
  7203  1B0A  0845               	movf	(??___awtoft+0)^080h+0,w
  7204  1B0B  00A3               	movwf	0+(?___ftpack)^080h+03h
  7205  1B0C  0847               	movf	(___awtoft@sign)^080h,w
  7206  1B0D  00C6               	movwf	(??___awtoft+1)^080h+0
  7207  1B0E  0846               	movf	(??___awtoft+1)^080h+0,w
  7208  1B0F  00A4               	movwf	0+(?___ftpack)^080h+04h
  7209  1B10  160A  158A  26DD   	fcall	___ftpack
              160A  158A         
  7210  1B15  1683               	bsf	status, 5	;RP0=1, select bank1
  7211  1B16  1303               	bcf	status, 6	;RP1=0, select bank1
  7212  1B17  0820               	movf	(0+(?___ftpack))^080h,w
  7213  1B18  00C2               	movwf	(?___awtoft)^080h
  7214  1B19  0821               	movf	(1+(?___ftpack))^080h,w
  7215  1B1A  00C3               	movwf	(?___awtoft+1)^080h
  7216  1B1B  0822               	movf	(2+(?___ftpack))^080h,w
  7217  1B1C  00C4               	movwf	(?___awtoft+2)^080h
  7218  1B1D  2B1E               	goto	l5227
  7219                           	
  7220  1B1E                     l9672:	
  7221                           	line	42
  7222                           	
  7223  1B1E                     l5227:	
  7224  1B1E  0008               	return
  7225                           	opt stack 0
  7226                           GLOBAL	__end_of___awtoft
  7227  1B1F                     	__end_of___awtoft:
  7228 ;; =============== function ___awtoft ends ============
  7229                           
  7230                           	signat	___awtoft,4219
  7231                           	global	___ftmul
  7232                           psect	text941,local,class=CODE,delta=2
  7233                           global __ptext941
  7234  1454                     __ptext941:
  7235                           
  7236 ;; *************** function ___ftmul *****************
  7237 ;; Defined at:
  7238 ;;		line 52 in file "C:\Program Files (x86)\HI-TECH Software\PICC\9.82\sources\ftmul.c"
  7239 ;; Parameters:    Size  Location     Type
  7240 ;;  f1              3   34[BANK1 ] float 
  7241 ;;  f2              3   37[BANK1 ] float 
  7242 ;; Auto vars:     Size  Location     Type
  7243 ;;  f3_as_produc    3   45[BANK1 ] unsigned um
  7244 ;;  sign            1   49[BANK1 ] unsigned char 
  7245 ;;  cntr            1   48[BANK1 ] unsigned char 
  7246 ;;  exp             1   44[BANK1 ] unsigned char 
  7247 ;; Return value:  Size  Location     Type
  7248 ;;                  3   34[BANK1 ] float 
  7249 ;; Registers used:
  7250 ;;		wreg, status,2, status,0, pclath, cstack
  7251 ;; Tracked objects:
  7252 ;;		On entry : 0/0
  7253 ;;		On exit  : 0/0
  7254 ;;		Unchanged: 0/0
  7255 ;; Data sizes:     COMMON   BANK0   BANK1   BANK3   BANK2
  7256 ;;      Params:         0       0       6       0       0
  7257 ;;      Locals:         0       0       6       0       0
  7258 ;;      Temps:          0       0       4       0       0
  7259 ;;      Totals:         0       0      16       0       0
  7260 ;;Total ram usage:       16 bytes
  7261 ;; Hardware stack levels used:    1
  7262 ;; Hardware stack levels required when called:    5
  7263 ;; This function calls:
  7264 ;;		___ftpack
  7265 ;; This function is called by:
  7266 ;;		_fround
  7267 ;;		_scale
  7268 ;;		_sprintf
  7269 ;; This function uses a non-reentrant model
  7270 ;;
  7271                           psect	text941
  7272                           	file	"C:\Program Files (x86)\HI-TECH Software\PICC\9.82\sources\ftmul.c"
  7273                           	line	52
  7274                           	global	__size_of___ftmul
  7275  00EE                     	__size_of___ftmul	equ	__end_of___ftmul-___ftmul
  7276                           	
  7277  1454                     ___ftmul:	
  7278 ;; hardware stack exceeded
  7279                           	opt	stack 0
  7280                           ; Regs used in ___ftmul: [wreg+status,2+status,0+pclath+cstack]
  7281                           	line	56
  7282                           	
  7283  1454                     l9616:	
  7284  1454  1683               	bsf	status, 5	;RP0=1, select bank1
  7285  1455  1303               	bcf	status, 6	;RP1=0, select bank1
  7286  1456  0842               	movf	(___ftmul@f1)^080h,w
  7287  1457  00C8               	movwf	((??___ftmul+0)^080h+0)
  7288  1458  0843               	movf	(___ftmul@f1+1)^080h,w
  7289  1459  00C9               	movwf	((??___ftmul+0)^080h+0+1)
  7290  145A  0844               	movf	(___ftmul@f1+2)^080h,w
  7291  145B  00CA               	movwf	((??___ftmul+0)^080h+0+2)
  7292  145C  1003               	clrc
  7293  145D  0D49               	rlf	(??___ftmul+0)^080h+1,w
  7294  145E  0D4A               	rlf	(??___ftmul+0)^080h+2,w
  7295  145F  00CB               	movwf	(??___ftmul+3)^080h+0
  7296  1460  084B               	movf	(??___ftmul+3)^080h+0,w
  7297  1461  00CC               	movwf	(___ftmul@exp)^080h
  7298  1462  08CC               	movf	((___ftmul@exp)^080h),f
  7299  1463  1D03               	skipz
  7300  1464  2C66               	goto	u5671
  7301  1465  2C67               	goto	u5670
  7302  1466                     u5671:
  7303  1466  2C6F               	goto	l9622
  7304  1467                     u5670:
  7305                           	line	57
  7306                           	
  7307  1467                     l9618:	
  7308  1467  3000               	movlw	0x0
  7309  1468  00C2               	movwf	(?___ftmul)^080h
  7310  1469  3000               	movlw	0x0
  7311  146A  00C3               	movwf	(?___ftmul+1)^080h
  7312  146B  3000               	movlw	0x0
  7313  146C  00C4               	movwf	(?___ftmul+2)^080h
  7314  146D  2D41               	goto	l5189
  7315                           	
  7316  146E                     l9620:	
  7317  146E  2D41               	goto	l5189
  7318                           	
  7319  146F                     l5188:	
  7320                           	line	58
  7321                           	
  7322  146F                     l9622:	
  7323  146F  0845               	movf	(___ftmul@f2)^080h,w
  7324  1470  00C8               	movwf	((??___ftmul+0)^080h+0)
  7325  1471  0846               	movf	(___ftmul@f2+1)^080h,w
  7326  1472  00C9               	movwf	((??___ftmul+0)^080h+0+1)
  7327  1473  0847               	movf	(___ftmul@f2+2)^080h,w
  7328  1474  00CA               	movwf	((??___ftmul+0)^080h+0+2)
  7329  1475  1003               	clrc
  7330  1476  0D49               	rlf	(??___ftmul+0)^080h+1,w
  7331  1477  0D4A               	rlf	(??___ftmul+0)^080h+2,w
  7332  1478  00CB               	movwf	(??___ftmul+3)^080h+0
  7333  1479  084B               	movf	(??___ftmul+3)^080h+0,w
  7334  147A  00D1               	movwf	(___ftmul@sign)^080h
  7335  147B  08D1               	movf	((___ftmul@sign)^080h),f
  7336  147C  1D03               	skipz
  7337  147D  2C7F               	goto	u5681
  7338  147E  2C80               	goto	u5680
  7339  147F                     u5681:
  7340  147F  2C88               	goto	l9628
  7341  1480                     u5680:
  7342                           	line	59
  7343                           	
  7344  1480                     l9624:	
  7345  1480  3000               	movlw	0x0
  7346  1481  00C2               	movwf	(?___ftmul)^080h
  7347  1482  3000               	movlw	0x0
  7348  1483  00C3               	movwf	(?___ftmul+1)^080h
  7349  1484  3000               	movlw	0x0
  7350  1485  00C4               	movwf	(?___ftmul+2)^080h
  7351  1486  2D41               	goto	l5189
  7352                           	
  7353  1487                     l9626:	
  7354  1487  2D41               	goto	l5189
  7355                           	
  7356  1488                     l5190:	
  7357                           	line	60
  7358                           	
  7359  1488                     l9628:	
  7360  1488  0851               	movf	(___ftmul@sign)^080h,w
  7361  1489  3E7B               	addlw	07Bh
  7362  148A  00C8               	movwf	(??___ftmul+0)^080h+0
  7363  148B  0848               	movf	(??___ftmul+0)^080h+0,w
  7364  148C  07CC               	addwf	(___ftmul@exp)^080h,f
  7365                           	line	61
  7366  148D  0842               	movf	(___ftmul@f1)^080h,w
  7367  148E  00C8               	movwf	((??___ftmul+0)^080h+0)
  7368  148F  0843               	movf	(___ftmul@f1+1)^080h,w
  7369  1490  00C9               	movwf	((??___ftmul+0)^080h+0+1)
  7370  1491  0844               	movf	(___ftmul@f1+2)^080h,w
  7371  1492  00CA               	movwf	((??___ftmul+0)^080h+0+2)
  7372  1493  3010               	movlw	010h
  7373  1494                     u5695:
  7374  1494  1003               	clrc
  7375  1495  0CCA               	rrf	(??___ftmul+0)^080h+2,f
  7376  1496  0CC9               	rrf	(??___ftmul+0)^080h+1,f
  7377  1497  0CC8               	rrf	(??___ftmul+0)^080h+0,f
  7378  1498                     u5690:
  7379  1498  3EFF               	addlw	-1
  7380  1499  1D03               	skipz
  7381  149A  2C94               	goto	u5695
  7382  149B  0848               	movf	0+(??___ftmul+0)^080h+0,w
  7383  149C  00CB               	movwf	(??___ftmul+3)^080h+0
  7384  149D  084B               	movf	(??___ftmul+3)^080h+0,w
  7385  149E  00D1               	movwf	(___ftmul@sign)^080h
  7386                           	line	62
  7387  149F  0845               	movf	(___ftmul@f2)^080h,w
  7388  14A0  00C8               	movwf	((??___ftmul+0)^080h+0)
  7389  14A1  0846               	movf	(___ftmul@f2+1)^080h,w
  7390  14A2  00C9               	movwf	((??___ftmul+0)^080h+0+1)
  7391  14A3  0847               	movf	(___ftmul@f2+2)^080h,w
  7392  14A4  00CA               	movwf	((??___ftmul+0)^080h+0+2)
  7393  14A5  3010               	movlw	010h
  7394  14A6                     u5705:
  7395  14A6  1003               	clrc
  7396  14A7  0CCA               	rrf	(??___ftmul+0)^080h+2,f
  7397  14A8  0CC9               	rrf	(??___ftmul+0)^080h+1,f
  7398  14A9  0CC8               	rrf	(??___ftmul+0)^080h+0,f
  7399  14AA                     u5700:
  7400  14AA  3EFF               	addlw	-1
  7401  14AB  1D03               	skipz
  7402  14AC  2CA6               	goto	u5705
  7403  14AD  0848               	movf	0+(??___ftmul+0)^080h+0,w
  7404  14AE  00CB               	movwf	(??___ftmul+3)^080h+0
  7405  14AF  084B               	movf	(??___ftmul+3)^080h+0,w
  7406  14B0  06D1               	xorwf	(___ftmul@sign)^080h,f
  7407                           	line	63
  7408  14B1  3080               	movlw	(080h)
  7409  14B2  00C8               	movwf	(??___ftmul+0)^080h+0
  7410  14B3  0848               	movf	(??___ftmul+0)^080h+0,w
  7411  14B4  05D1               	andwf	(___ftmul@sign)^080h,f
  7412                           	line	64
  7413                           	
  7414  14B5                     l9630:	
  7415  14B5  17C3               	bsf	(___ftmul@f1)^080h+(15/8),(15)&7
  7416                           	line	66
  7417                           	
  7418  14B6                     l9632:	
  7419  14B6  17C6               	bsf	(___ftmul@f2)^080h+(15/8),(15)&7
  7420                           	line	67
  7421                           	
  7422  14B7                     l9634:	
  7423  14B7  30FF               	movlw	0FFh
  7424  14B8  05C5               	andwf	(___ftmul@f2)^080h,f
  7425  14B9  30FF               	movlw	0FFh
  7426  14BA  05C6               	andwf	(___ftmul@f2+1)^080h,f
  7427  14BB  3000               	movlw	0
  7428  14BC  05C7               	andwf	(___ftmul@f2+2)^080h,f
  7429                           	line	68
  7430                           	
  7431  14BD                     l9636:	
  7432  14BD  3000               	movlw	0
  7433  14BE  00CD               	movwf	(___ftmul@f3_as_product)^080h
  7434  14BF  3000               	movlw	0
  7435  14C0  00CE               	movwf	(___ftmul@f3_as_product+1)^080h
  7436  14C1  3000               	movlw	0
  7437  14C2  00CF               	movwf	(___ftmul@f3_as_product+2)^080h
  7438                           	line	69
  7439                           	
  7440  14C3                     l9638:	
  7441  14C3  3007               	movlw	(07h)
  7442  14C4  00C8               	movwf	(??___ftmul+0)^080h+0
  7443  14C5  0848               	movf	(??___ftmul+0)^080h+0,w
  7444  14C6  00D0               	movwf	(___ftmul@cntr)^080h
  7445  14C7  2CC8               	goto	l9640
  7446                           	line	70
  7447                           	
  7448  14C8                     l5191:	
  7449                           	line	71
  7450                           	
  7451  14C8                     l9640:	
  7452  14C8  1C42               	btfss	(___ftmul@f1)^080h,(0)&7
  7453  14C9  2CCB               	goto	u5711
  7454  14CA  2CCC               	goto	u5710
  7455  14CB                     u5711:
  7456  14CB  2CDD               	goto	l9644
  7457  14CC                     u5710:
  7458                           	line	72
  7459                           	
  7460  14CC                     l9642:	
  7461  14CC  0845               	movf	(___ftmul@f2)^080h,w
  7462  14CD  07CD               	addwf	(___ftmul@f3_as_product)^080h,f
  7463  14CE  0846               	movf	(___ftmul@f2+1)^080h,w
  7464  14CF  1103               	clrz
  7465  14D0  1803               	skipnc
  7466  14D1  0A46               	incf	(___ftmul@f2+1)^080h,w
  7467  14D2  1903               	skipnz
  7468  14D3  2CD5               	goto	u5721
  7469  14D4  07CE               	addwf	(___ftmul@f3_as_product+1)^080h,f
  7470  14D5                     u5721:
  7471  14D5  0847               	movf	(___ftmul@f2+2)^080h,w
  7472  14D6  1103               	clrz
  7473  14D7  1803               	skipnc
  7474  14D8  0A47               	incf	(___ftmul@f2+2)^080h,w
  7475  14D9  1903               	skipnz
  7476  14DA  2CDC               	goto	u5722
  7477  14DB  07CF               	addwf	(___ftmul@f3_as_product+2)^080h,f
  7478  14DC                     u5722:
  7479                           
  7480  14DC  2CDD               	goto	l9644
  7481                           	
  7482  14DD                     l5192:	
  7483                           	line	73
  7484                           	
  7485  14DD                     l9644:	
  7486  14DD  3001               	movlw	01h
  7487  14DE                     u5735:
  7488  14DE  1003               	clrc
  7489  14DF  0CC4               	rrf	(___ftmul@f1+2)^080h,f
  7490  14E0  0CC3               	rrf	(___ftmul@f1+1)^080h,f
  7491  14E1  0CC2               	rrf	(___ftmul@f1)^080h,f
  7492  14E2  3EFF               	addlw	-1
  7493  14E3  1D03               	skipz
  7494  14E4  2CDE               	goto	u5735
  7495                           
  7496                           	line	74
  7497                           	
  7498  14E5                     l9646:	
  7499  14E5  3001               	movlw	01h
  7500  14E6                     u5745:
  7501  14E6  1003               	clrc
  7502  14E7  0DC5               	rlf	(___ftmul@f2)^080h,f
  7503  14E8  0DC6               	rlf	(___ftmul@f2+1)^080h,f
  7504  14E9  0DC7               	rlf	(___ftmul@f2+2)^080h,f
  7505  14EA  3EFF               	addlw	-1
  7506  14EB  1D03               	skipz
  7507  14EC  2CE6               	goto	u5745
  7508                           	line	75
  7509                           	
  7510  14ED                     l9648:	
  7511  14ED  3001               	movlw	low(01h)
  7512  14EE  02D0               	subwf	(___ftmul@cntr)^080h,f
  7513  14EF  1D03               	btfss	status,2
  7514  14F0  2CF2               	goto	u5751
  7515  14F1  2CF3               	goto	u5750
  7516  14F2                     u5751:
  7517  14F2  2CC8               	goto	l9640
  7518  14F3                     u5750:
  7519  14F3  2CF4               	goto	l9650
  7520                           	
  7521  14F4                     l5193:	
  7522                           	line	76
  7523                           	
  7524  14F4                     l9650:	
  7525  14F4  3009               	movlw	(09h)
  7526  14F5  00C8               	movwf	(??___ftmul+0)^080h+0
  7527  14F6  0848               	movf	(??___ftmul+0)^080h+0,w
  7528  14F7  00D0               	movwf	(___ftmul@cntr)^080h
  7529  14F8  2CF9               	goto	l9652
  7530                           	line	77
  7531                           	
  7532  14F9                     l5194:	
  7533                           	line	78
  7534                           	
  7535  14F9                     l9652:	
  7536  14F9  1C42               	btfss	(___ftmul@f1)^080h,(0)&7
  7537  14FA  2CFC               	goto	u5761
  7538  14FB  2CFD               	goto	u5760
  7539  14FC                     u5761:
  7540  14FC  2D0E               	goto	l9656
  7541  14FD                     u5760:
  7542                           	line	79
  7543                           	
  7544  14FD                     l9654:	
  7545  14FD  0845               	movf	(___ftmul@f2)^080h,w
  7546  14FE  07CD               	addwf	(___ftmul@f3_as_product)^080h,f
  7547  14FF  0846               	movf	(___ftmul@f2+1)^080h,w
  7548  1500  1103               	clrz
  7549  1501  1803               	skipnc
  7550  1502  0A46               	incf	(___ftmul@f2+1)^080h,w
  7551  1503  1903               	skipnz
  7552  1504  2D06               	goto	u5771
  7553  1505  07CE               	addwf	(___ftmul@f3_as_product+1)^080h,f
  7554  1506                     u5771:
  7555  1506  0847               	movf	(___ftmul@f2+2)^080h,w
  7556  1507  1103               	clrz
  7557  1508  1803               	skipnc
  7558  1509  0A47               	incf	(___ftmul@f2+2)^080h,w
  7559  150A  1903               	skipnz
  7560  150B  2D0D               	goto	u5772
  7561  150C  07CF               	addwf	(___ftmul@f3_as_product+2)^080h,f
  7562  150D                     u5772:
  7563                           
  7564  150D  2D0E               	goto	l9656
  7565                           	
  7566  150E                     l5195:	
  7567                           	line	80
  7568                           	
  7569  150E                     l9656:	
  7570  150E  3001               	movlw	01h
  7571  150F                     u5785:
  7572  150F  1003               	clrc
  7573  1510  0CC4               	rrf	(___ftmul@f1+2)^080h,f
  7574  1511  0CC3               	rrf	(___ftmul@f1+1)^080h,f
  7575  1512  0CC2               	rrf	(___ftmul@f1)^080h,f
  7576  1513  3EFF               	addlw	-1
  7577  1514  1D03               	skipz
  7578  1515  2D0F               	goto	u5785
  7579                           
  7580                           	line	81
  7581                           	
  7582  1516                     l9658:	
  7583  1516  3001               	movlw	01h
  7584  1517                     u5795:
  7585  1517  1003               	clrc
  7586  1518  0CCF               	rrf	(___ftmul@f3_as_product+2)^080h,f
  7587  1519  0CCE               	rrf	(___ftmul@f3_as_product+1)^080h,f
  7588  151A  0CCD               	rrf	(___ftmul@f3_as_product)^080h,f
  7589  151B  3EFF               	addlw	-1
  7590  151C  1D03               	skipz
  7591  151D  2D17               	goto	u5795
  7592                           
  7593                           	line	82
  7594                           	
  7595  151E                     l9660:	
  7596  151E  3001               	movlw	low(01h)
  7597  151F  02D0               	subwf	(___ftmul@cntr)^080h,f
  7598  1520  1D03               	btfss	status,2
  7599  1521  2D23               	goto	u5801
  7600  1522  2D24               	goto	u5800
  7601  1523                     u5801:
  7602  1523  2CF9               	goto	l9652
  7603  1524                     u5800:
  7604  1524  2D25               	goto	l9662
  7605                           	
  7606  1525                     l5196:	
  7607                           	line	83
  7608                           	
  7609  1525                     l9662:	
  7610  1525  084D               	movf	(___ftmul@f3_as_product)^080h,w
  7611  1526  00A0               	movwf	(?___ftpack)^080h
  7612  1527  084E               	movf	(___ftmul@f3_as_product+1)^080h,w
  7613  1528  00A1               	movwf	(?___ftpack+1)^080h
  7614  1529  084F               	movf	(___ftmul@f3_as_product+2)^080h,w
  7615  152A  00A2               	movwf	(?___ftpack+2)^080h
  7616  152B  084C               	movf	(___ftmul@exp)^080h,w
  7617  152C  00C8               	movwf	(??___ftmul+0)^080h+0
  7618  152D  0848               	movf	(??___ftmul+0)^080h+0,w
  7619  152E  00A3               	movwf	0+(?___ftpack)^080h+03h
  7620  152F  0851               	movf	(___ftmul@sign)^080h,w
  7621  1530  00C9               	movwf	(??___ftmul+1)^080h+0
  7622  1531  0849               	movf	(??___ftmul+1)^080h+0,w
  7623  1532  00A4               	movwf	0+(?___ftpack)^080h+04h
  7624  1533  160A  158A  26DD   	fcall	___ftpack
              160A  118A         
  7625  1538  1683               	bsf	status, 5	;RP0=1, select bank1
  7626  1539  1303               	bcf	status, 6	;RP1=0, select bank1
  7627  153A  0820               	movf	(0+(?___ftpack))^080h,w
  7628  153B  00C2               	movwf	(?___ftmul)^080h
  7629  153C  0821               	movf	(1+(?___ftpack))^080h,w
  7630  153D  00C3               	movwf	(?___ftmul+1)^080h
  7631  153E  0822               	movf	(2+(?___ftpack))^080h,w
  7632  153F  00C4               	movwf	(?___ftmul+2)^080h
  7633  1540  2D41               	goto	l5189
  7634                           	
  7635  1541                     l9664:	
  7636                           	line	84
  7637                           	
  7638  1541                     l5189:	
  7639  1541  0008               	return
  7640                           	opt stack 0
  7641                           GLOBAL	__end_of___ftmul
  7642  1542                     	__end_of___ftmul:
  7643 ;; =============== function ___ftmul ends ============
  7644                           
  7645                           	signat	___ftmul,8315
  7646                           	global	___ftadd
  7647                           psect	text942,local,class=CODE,delta=2
  7648                           global __ptext942
  7649  0803                     __ptext942:
  7650                           
  7651 ;; *************** function ___ftadd *****************
  7652 ;; Defined at:
  7653 ;;		line 87 in file "C:\Program Files (x86)\HI-TECH Software\PICC\9.82\sources\ftadd.c"
  7654 ;; Parameters:    Size  Location     Type
  7655 ;;  f1              3   50[BANK1 ] float 
  7656 ;;  f2              3   53[BANK1 ] float 
  7657 ;; Auto vars:     Size  Location     Type
  7658 ;;  exp1            1   62[BANK1 ] unsigned char 
  7659 ;;  exp2            1   61[BANK1 ] unsigned char 
  7660 ;;  sign            1   60[BANK1 ] unsigned char 
  7661 ;; Return value:  Size  Location     Type
  7662 ;;                  3   50[BANK1 ] float 
  7663 ;; Registers used:
  7664 ;;		wreg, status,2, status,0, pclath, cstack
  7665 ;; Tracked objects:
  7666 ;;		On entry : 0/0
  7667 ;;		On exit  : 0/0
  7668 ;;		Unchanged: 0/0
  7669 ;; Data sizes:     COMMON   BANK0   BANK1   BANK3   BANK2
  7670 ;;      Params:         0       0       6       0       0
  7671 ;;      Locals:         0       0       3       0       0
  7672 ;;      Temps:          0       0       4       0       0
  7673 ;;      Totals:         0       0      13       0       0
  7674 ;;Total ram usage:       13 bytes
  7675 ;; Hardware stack levels used:    1
  7676 ;; Hardware stack levels required when called:    5
  7677 ;; This function calls:
  7678 ;;		___ftpack
  7679 ;; This function is called by:
  7680 ;;		_sprintf
  7681 ;;		___ftsub
  7682 ;; This function uses a non-reentrant model
  7683 ;;
  7684                           psect	text942
  7685                           	file	"C:\Program Files (x86)\HI-TECH Software\PICC\9.82\sources\ftadd.c"
  7686                           	line	87
  7687                           	global	__size_of___ftadd
  7688  0146                     	__size_of___ftadd	equ	__end_of___ftadd-___ftadd
  7689                           	
  7690  0803                     ___ftadd:	
  7691 ;; hardware stack exceeded
  7692                           	opt	stack 0
  7693                           ; Regs used in ___ftadd: [wreg+status,2+status,0+pclath+cstack]
  7694                           	line	90
  7695                           	
  7696  0803                     l9546:	
  7697  0803  1683               	bsf	status, 5	;RP0=1, select bank1
  7698  0804  1303               	bcf	status, 6	;RP1=0, select bank1
  7699  0805  0852               	movf	(___ftadd@f1)^080h,w
  7700  0806  00D8               	movwf	((??___ftadd+0)^080h+0)
  7701  0807  0853               	movf	(___ftadd@f1+1)^080h,w
  7702  0808  00D9               	movwf	((??___ftadd+0)^080h+0+1)
  7703  0809  0854               	movf	(___ftadd@f1+2)^080h,w
  7704  080A  00DA               	movwf	((??___ftadd+0)^080h+0+2)
  7705  080B  1003               	clrc
  7706  080C  0D59               	rlf	(??___ftadd+0)^080h+1,w
  7707  080D  0D5A               	rlf	(??___ftadd+0)^080h+2,w
  7708  080E  00DB               	movwf	(??___ftadd+3)^080h+0
  7709  080F  085B               	movf	(??___ftadd+3)^080h+0,w
  7710  0810  00DE               	movwf	(___ftadd@exp1)^080h
  7711                           	line	91
  7712  0811  0855               	movf	(___ftadd@f2)^080h,w
  7713  0812  00D8               	movwf	((??___ftadd+0)^080h+0)
  7714  0813  0856               	movf	(___ftadd@f2+1)^080h,w
  7715  0814  00D9               	movwf	((??___ftadd+0)^080h+0+1)
  7716  0815  0857               	movf	(___ftadd@f2+2)^080h,w
  7717  0816  00DA               	movwf	((??___ftadd+0)^080h+0+2)
  7718  0817  1003               	clrc
  7719  0818  0D59               	rlf	(??___ftadd+0)^080h+1,w
  7720  0819  0D5A               	rlf	(??___ftadd+0)^080h+2,w
  7721  081A  00DB               	movwf	(??___ftadd+3)^080h+0
  7722  081B  085B               	movf	(??___ftadd+3)^080h+0,w
  7723  081C  00DD               	movwf	(___ftadd@exp2)^080h
  7724                           	line	92
  7725                           	
  7726  081D                     l9548:	
  7727  081D  085E               	movf	(___ftadd@exp1)^080h,w
  7728  081E  1D03               	skipz
  7729  081F  2821               	goto	u5430
  7730  0820  2832               	goto	l9554
  7731  0821                     u5430:
  7732                           	
  7733  0821                     l9550:	
  7734  0821  085D               	movf	(___ftadd@exp2)^080h,w
  7735  0822  025E               	subwf	(___ftadd@exp1)^080h,w
  7736  0823  1803               	skipnc
  7737  0824  2826               	goto	u5441
  7738  0825  2827               	goto	u5440
  7739  0826                     u5441:
  7740  0826  283A               	goto	l9558
  7741  0827                     u5440:
  7742                           	
  7743  0827                     l9552:	
  7744  0827  035E               	decf	(___ftadd@exp1)^080h,w
  7745  0828  3AFF               	xorlw	0ffh
  7746  0829  075D               	addwf	(___ftadd@exp2)^080h,w
  7747  082A  00D8               	movwf	(??___ftadd+0)^080h+0
  7748  082B  3019               	movlw	(019h)
  7749  082C  0258               	subwf	0+(??___ftadd+0)^080h+0,w
  7750  082D  1C03               	skipc
  7751  082E  2830               	goto	u5451
  7752  082F  2831               	goto	u5450
  7753  0830                     u5451:
  7754  0830  283A               	goto	l9558
  7755  0831                     u5450:
  7756  0831  2832               	goto	l9554
  7757                           	
  7758  0832                     l5136:	
  7759                           	line	93
  7760                           	
  7761  0832                     l9554:	
  7762  0832  0855               	movf	(___ftadd@f2)^080h,w
  7763  0833  00D2               	movwf	(?___ftadd)^080h
  7764  0834  0856               	movf	(___ftadd@f2+1)^080h,w
  7765  0835  00D3               	movwf	(?___ftadd+1)^080h
  7766  0836  0857               	movf	(___ftadd@f2+2)^080h,w
  7767  0837  00D4               	movwf	(?___ftadd+2)^080h
  7768  0838  2948               	goto	l5137
  7769                           	
  7770  0839                     l9556:	
  7771  0839  2948               	goto	l5137
  7772                           	
  7773  083A                     l5134:	
  7774                           	line	94
  7775                           	
  7776  083A                     l9558:	
  7777  083A  085D               	movf	(___ftadd@exp2)^080h,w
  7778  083B  1D03               	skipz
  7779  083C  283E               	goto	u5460
  7780  083D  284E               	goto	l5140
  7781  083E                     u5460:
  7782                           	
  7783  083E                     l9560:	
  7784  083E  085E               	movf	(___ftadd@exp1)^080h,w
  7785  083F  025D               	subwf	(___ftadd@exp2)^080h,w
  7786  0840  1803               	skipnc
  7787  0841  2843               	goto	u5471
  7788  0842  2844               	goto	u5470
  7789  0843                     u5471:
  7790  0843  284F               	goto	l9564
  7791  0844                     u5470:
  7792                           	
  7793  0844                     l9562:	
  7794  0844  035D               	decf	(___ftadd@exp2)^080h,w
  7795  0845  3AFF               	xorlw	0ffh
  7796  0846  075E               	addwf	(___ftadd@exp1)^080h,w
  7797  0847  00D8               	movwf	(??___ftadd+0)^080h+0
  7798  0848  3019               	movlw	(019h)
  7799  0849  0258               	subwf	0+(??___ftadd+0)^080h+0,w
  7800  084A  1C03               	skipc
  7801  084B  284D               	goto	u5481
  7802  084C  284E               	goto	u5480
  7803  084D                     u5481:
  7804  084D  284F               	goto	l9564
  7805  084E                     u5480:
  7806                           	
  7807  084E                     l5140:	
  7808                           	line	95
  7809  084E  2948               	goto	l5137
  7810                           	
  7811  084F                     l5138:	
  7812                           	line	96
  7813                           	
  7814  084F                     l9564:	
  7815  084F  3006               	movlw	(06h)
  7816  0850  00D8               	movwf	(??___ftadd+0)^080h+0
  7817  0851  0858               	movf	(??___ftadd+0)^080h+0,w
  7818  0852  00DC               	movwf	(___ftadd@sign)^080h
  7819                           	line	97
  7820                           	
  7821  0853                     l9566:	
  7822  0853  1FD4               	btfss	(___ftadd@f1+2)^080h,(23)&7
  7823  0854  2856               	goto	u5491
  7824  0855  2857               	goto	u5490
  7825  0856                     u5491:
  7826  0856  2858               	goto	l5141
  7827  0857                     u5490:
  7828                           	line	98
  7829                           	
  7830  0857                     l9568:	
  7831  0857  17DC               	bsf	(___ftadd@sign)^080h+(7/8),(7)&7
  7832                           	
  7833  0858                     l5141:	
  7834                           	line	99
  7835  0858  1FD7               	btfss	(___ftadd@f2+2)^080h,(23)&7
  7836  0859  285B               	goto	u5501
  7837  085A  285C               	goto	u5500
  7838  085B                     u5501:
  7839  085B  285D               	goto	l5142
  7840  085C                     u5500:
  7841                           	line	100
  7842                           	
  7843  085C                     l9570:	
  7844  085C  175C               	bsf	(___ftadd@sign)^080h+(6/8),(6)&7
  7845                           	
  7846  085D                     l5142:	
  7847                           	line	101
  7848  085D  17D3               	bsf	(___ftadd@f1)^080h+(15/8),(15)&7
  7849                           	line	102
  7850                           	
  7851  085E                     l9572:	
  7852  085E  30FF               	movlw	0FFh
  7853  085F  05D2               	andwf	(___ftadd@f1)^080h,f
  7854  0860  30FF               	movlw	0FFh
  7855  0861  05D3               	andwf	(___ftadd@f1+1)^080h,f
  7856  0862  3000               	movlw	0
  7857  0863  05D4               	andwf	(___ftadd@f1+2)^080h,f
  7858                           	line	103
  7859                           	
  7860  0864                     l9574:	
  7861  0864  17D6               	bsf	(___ftadd@f2)^080h+(15/8),(15)&7
  7862                           	line	104
  7863  0865  30FF               	movlw	0FFh
  7864  0866  05D5               	andwf	(___ftadd@f2)^080h,f
  7865  0867  30FF               	movlw	0FFh
  7866  0868  05D6               	andwf	(___ftadd@f2+1)^080h,f
  7867  0869  3000               	movlw	0
  7868  086A  05D7               	andwf	(___ftadd@f2+2)^080h,f
  7869                           	line	106
  7870  086B  085D               	movf	(___ftadd@exp2)^080h,w
  7871  086C  025E               	subwf	(___ftadd@exp1)^080h,w
  7872  086D  1803               	skipnc
  7873  086E  2870               	goto	u5511
  7874  086F  2871               	goto	u5510
  7875  0870                     u5511:
  7876  0870  28A2               	goto	l9586
  7877  0871                     u5510:
  7878  0871  2872               	goto	l9576
  7879                           	line	109
  7880                           	
  7881  0872                     l5144:	
  7882                           	line	110
  7883                           	
  7884  0872                     l9576:	
  7885  0872  3001               	movlw	01h
  7886  0873                     u5525:
  7887  0873  1003               	clrc
  7888  0874  0DD5               	rlf	(___ftadd@f2)^080h,f
  7889  0875  0DD6               	rlf	(___ftadd@f2+1)^080h,f
  7890  0876  0DD7               	rlf	(___ftadd@f2+2)^080h,f
  7891  0877  3EFF               	addlw	-1
  7892  0878  1D03               	skipz
  7893  0879  2873               	goto	u5525
  7894                           	line	111
  7895  087A  3001               	movlw	low(01h)
  7896  087B  02DD               	subwf	(___ftadd@exp2)^080h,f
  7897                           	line	112
  7898                           	
  7899  087C                     l9578:	
  7900  087C  085D               	movf	(___ftadd@exp2)^080h,w
  7901  087D  065E               	xorwf	(___ftadd@exp1)^080h,w
  7902  087E  1903               	skipnz
  7903  087F  2881               	goto	u5531
  7904  0880  2882               	goto	u5530
  7905  0881                     u5531:
  7906  0881  289A               	goto	l9584
  7907  0882                     u5530:
  7908                           	
  7909  0882                     l9580:	
  7910  0882  3001               	movlw	low(01h)
  7911  0883  02DC               	subwf	(___ftadd@sign)^080h,f
  7912  0884  085C               	movf	((___ftadd@sign)^080h),w
  7913  0885  3907               	andlw	07h
  7914  0886  1D03               	btfss	status,2
  7915  0887  2889               	goto	u5541
  7916  0888  288A               	goto	u5540
  7917  0889                     u5541:
  7918  0889  2872               	goto	l9576
  7919  088A                     u5540:
  7920  088A  289A               	goto	l9584
  7921                           	
  7922  088B                     l5146:	
  7923  088B  289A               	goto	l9584
  7924                           	
  7925  088C                     l5147:	
  7926                           	line	113
  7927  088C  289A               	goto	l9584
  7928                           	
  7929  088D                     l5149:	
  7930                           	line	114
  7931                           	
  7932  088D                     l9582:	
  7933  088D  3001               	movlw	01h
  7934  088E                     u5555:
  7935  088E  1003               	clrc
  7936  088F  0CD4               	rrf	(___ftadd@f1+2)^080h,f
  7937  0890  0CD3               	rrf	(___ftadd@f1+1)^080h,f
  7938  0891  0CD2               	rrf	(___ftadd@f1)^080h,f
  7939  0892  3EFF               	addlw	-1
  7940  0893  1D03               	skipz
  7941  0894  288E               	goto	u5555
  7942                           
  7943                           	line	115
  7944  0895  3001               	movlw	(01h)
  7945  0896  00D8               	movwf	(??___ftadd+0)^080h+0
  7946  0897  0858               	movf	(??___ftadd+0)^080h+0,w
  7947  0898  07DE               	addwf	(___ftadd@exp1)^080h,f
  7948  0899  289A               	goto	l9584
  7949                           	line	116
  7950                           	
  7951  089A                     l5148:	
  7952                           	line	113
  7953                           	
  7954  089A                     l9584:	
  7955  089A  085E               	movf	(___ftadd@exp1)^080h,w
  7956  089B  065D               	xorwf	(___ftadd@exp2)^080h,w
  7957  089C  1D03               	skipz
  7958  089D  289F               	goto	u5561
  7959  089E  28A0               	goto	u5560
  7960  089F                     u5561:
  7961  089F  288D               	goto	l9582
  7962  08A0                     u5560:
  7963  08A0  28D9               	goto	l5151
  7964                           	
  7965  08A1                     l5150:	
  7966                           	line	117
  7967  08A1  28D9               	goto	l5151
  7968                           	
  7969  08A2                     l5143:	
  7970                           	
  7971  08A2                     l9586:	
  7972  08A2  085E               	movf	(___ftadd@exp1)^080h,w
  7973  08A3  025D               	subwf	(___ftadd@exp2)^080h,w
  7974  08A4  1803               	skipnc
  7975  08A5  28A7               	goto	u5571
  7976  08A6  28A8               	goto	u5570
  7977  08A7                     u5571:
  7978  08A7  28D9               	goto	l5151
  7979  08A8                     u5570:
  7980  08A8  28A9               	goto	l9588
  7981                           	line	120
  7982                           	
  7983  08A9                     l5153:	
  7984                           	line	121
  7985                           	
  7986  08A9                     l9588:	
  7987  08A9  3001               	movlw	01h
  7988  08AA                     u5585:
  7989  08AA  1003               	clrc
  7990  08AB  0DD2               	rlf	(___ftadd@f1)^080h,f
  7991  08AC  0DD3               	rlf	(___ftadd@f1+1)^080h,f
  7992  08AD  0DD4               	rlf	(___ftadd@f1+2)^080h,f
  7993  08AE  3EFF               	addlw	-1
  7994  08AF  1D03               	skipz
  7995  08B0  28AA               	goto	u5585
  7996                           	line	122
  7997  08B1  3001               	movlw	low(01h)
  7998  08B2  02DE               	subwf	(___ftadd@exp1)^080h,f
  7999                           	line	123
  8000                           	
  8001  08B3                     l9590:	
  8002  08B3  085D               	movf	(___ftadd@exp2)^080h,w
  8003  08B4  065E               	xorwf	(___ftadd@exp1)^080h,w
  8004  08B5  1903               	skipnz
  8005  08B6  28B8               	goto	u5591
  8006  08B7  28B9               	goto	u5590
  8007  08B8                     u5591:
  8008  08B8  28D1               	goto	l9596
  8009  08B9                     u5590:
  8010                           	
  8011  08B9                     l9592:	
  8012  08B9  3001               	movlw	low(01h)
  8013  08BA  02DC               	subwf	(___ftadd@sign)^080h,f
  8014  08BB  085C               	movf	((___ftadd@sign)^080h),w
  8015  08BC  3907               	andlw	07h
  8016  08BD  1D03               	btfss	status,2
  8017  08BE  28C0               	goto	u5601
  8018  08BF  28C1               	goto	u5600
  8019  08C0                     u5601:
  8020  08C0  28A9               	goto	l9588
  8021  08C1                     u5600:
  8022  08C1  28D1               	goto	l9596
  8023                           	
  8024  08C2                     l5155:	
  8025  08C2  28D1               	goto	l9596
  8026                           	
  8027  08C3                     l5156:	
  8028                           	line	124
  8029  08C3  28D1               	goto	l9596
  8030                           	
  8031  08C4                     l5158:	
  8032                           	line	125
  8033                           	
  8034  08C4                     l9594:	
  8035  08C4  3001               	movlw	01h
  8036  08C5                     u5615:
  8037  08C5  1003               	clrc
  8038  08C6  0CD7               	rrf	(___ftadd@f2+2)^080h,f
  8039  08C7  0CD6               	rrf	(___ftadd@f2+1)^080h,f
  8040  08C8  0CD5               	rrf	(___ftadd@f2)^080h,f
  8041  08C9  3EFF               	addlw	-1
  8042  08CA  1D03               	skipz
  8043  08CB  28C5               	goto	u5615
  8044                           
  8045                           	line	126
  8046  08CC  3001               	movlw	(01h)
  8047  08CD  00D8               	movwf	(??___ftadd+0)^080h+0
  8048  08CE  0858               	movf	(??___ftadd+0)^080h+0,w
  8049  08CF  07DD               	addwf	(___ftadd@exp2)^080h,f
  8050  08D0  28D1               	goto	l9596
  8051                           	line	127
  8052                           	
  8053  08D1                     l5157:	
  8054                           	line	124
  8055                           	
  8056  08D1                     l9596:	
  8057  08D1  085E               	movf	(___ftadd@exp1)^080h,w
  8058  08D2  065D               	xorwf	(___ftadd@exp2)^080h,w
  8059  08D3  1D03               	skipz
  8060  08D4  28D6               	goto	u5621
  8061  08D5  28D7               	goto	u5620
  8062  08D6                     u5621:
  8063  08D6  28C4               	goto	l9594
  8064  08D7                     u5620:
  8065  08D7  28D9               	goto	l5151
  8066                           	
  8067  08D8                     l5159:	
  8068  08D8  28D9               	goto	l5151
  8069                           	line	128
  8070                           	
  8071  08D9                     l5152:	
  8072                           	line	129
  8073                           	
  8074  08D9                     l5151:	
  8075  08D9  1FDC               	btfss	(___ftadd@sign)^080h,(7)&7
  8076  08DA  28DC               	goto	u5631
  8077  08DB  28DD               	goto	u5630
  8078  08DC                     u5631:
  8079  08DC  28EE               	goto	l9600
  8080  08DD                     u5630:
  8081                           	line	131
  8082                           	
  8083  08DD                     l9598:	
  8084  08DD  30FF               	movlw	0FFh
  8085  08DE  06D2               	xorwf	(___ftadd@f1)^080h,f
  8086  08DF  30FF               	movlw	0FFh
  8087  08E0  06D3               	xorwf	(___ftadd@f1+1)^080h,f
  8088  08E1  30FF               	movlw	0FFh
  8089  08E2  06D4               	xorwf	(___ftadd@f1+2)^080h,f
  8090                           	line	132
  8091  08E3  3001               	movlw	01h
  8092  08E4  07D2               	addwf	(___ftadd@f1)^080h,f
  8093  08E5  3000               	movlw	0
  8094  08E6  1803               	skipnc
  8095  08E7  3001               movlw 1
  8096  08E8  07D3               	addwf	(___ftadd@f1+1)^080h,f
  8097  08E9  3000               	movlw	0
  8098  08EA  1803               	skipnc
  8099  08EB  3001               movlw 1
  8100  08EC  07D4               	addwf	(___ftadd@f1+2)^080h,f
  8101  08ED  28EE               	goto	l9600
  8102                           	line	133
  8103                           	
  8104  08EE                     l5160:	
  8105                           	line	134
  8106                           	
  8107  08EE                     l9600:	
  8108  08EE  1F5C               	btfss	(___ftadd@sign)^080h,(6)&7
  8109  08EF  28F1               	goto	u5641
  8110  08F0  28F2               	goto	u5640
  8111  08F1                     u5641:
  8112  08F1  2903               	goto	l9604
  8113  08F2                     u5640:
  8114                           	line	136
  8115                           	
  8116  08F2                     l9602:	
  8117  08F2  30FF               	movlw	0FFh
  8118  08F3  06D5               	xorwf	(___ftadd@f2)^080h,f
  8119  08F4  30FF               	movlw	0FFh
  8120  08F5  06D6               	xorwf	(___ftadd@f2+1)^080h,f
  8121  08F6  30FF               	movlw	0FFh
  8122  08F7  06D7               	xorwf	(___ftadd@f2+2)^080h,f
  8123                           	line	137
  8124  08F8  3001               	movlw	01h
  8125  08F9  07D5               	addwf	(___ftadd@f2)^080h,f
  8126  08FA  3000               	movlw	0
  8127  08FB  1803               	skipnc
  8128  08FC  3001               movlw 1
  8129  08FD  07D6               	addwf	(___ftadd@f2+1)^080h,f
  8130  08FE  3000               	movlw	0
  8131  08FF  1803               	skipnc
  8132  0900  3001               movlw 1
  8133  0901  07D7               	addwf	(___ftadd@f2+2)^080h,f
  8134  0902  2903               	goto	l9604
  8135                           	line	138
  8136                           	
  8137  0903                     l5161:	
  8138                           	line	139
  8139                           	
  8140  0903                     l9604:	
  8141  0903  01DC               	clrf	(___ftadd@sign)^080h
  8142                           	line	140
  8143  0904  0852               	movf	(___ftadd@f1)^080h,w
  8144  0905  07D5               	addwf	(___ftadd@f2)^080h,f
  8145  0906  0853               	movf	(___ftadd@f1+1)^080h,w
  8146  0907  1103               	clrz
  8147  0908  1803               	skipnc
  8148  0909  0A53               	incf	(___ftadd@f1+1)^080h,w
  8149  090A  1903               	skipnz
  8150  090B  290D               	goto	u5651
  8151  090C  07D6               	addwf	(___ftadd@f2+1)^080h,f
  8152  090D                     u5651:
  8153  090D  0854               	movf	(___ftadd@f1+2)^080h,w
  8154  090E  1103               	clrz
  8155  090F  1803               	skipnc
  8156  0910  0A54               	incf	(___ftadd@f1+2)^080h,w
  8157  0911  1903               	skipnz
  8158  0912  2914               	goto	u5652
  8159  0913  07D7               	addwf	(___ftadd@f2+2)^080h,f
  8160  0914                     u5652:
  8161                           
  8162                           	line	141
  8163                           	
  8164  0914                     l9606:	
  8165  0914  1FD7               	btfss	(___ftadd@f2+2)^080h,(23)&7
  8166  0915  2917               	goto	u5661
  8167  0916  2918               	goto	u5660
  8168  0917                     u5661:
  8169  0917  292C               	goto	l9612
  8170  0918                     u5660:
  8171                           	line	142
  8172                           	
  8173  0918                     l9608:	
  8174  0918  30FF               	movlw	0FFh
  8175  0919  06D5               	xorwf	(___ftadd@f2)^080h,f
  8176  091A  30FF               	movlw	0FFh
  8177  091B  06D6               	xorwf	(___ftadd@f2+1)^080h,f
  8178  091C  30FF               	movlw	0FFh
  8179  091D  06D7               	xorwf	(___ftadd@f2+2)^080h,f
  8180                           	line	143
  8181  091E  3001               	movlw	01h
  8182  091F  07D5               	addwf	(___ftadd@f2)^080h,f
  8183  0920  3000               	movlw	0
  8184  0921  1803               	skipnc
  8185  0922  3001               movlw 1
  8186  0923  07D6               	addwf	(___ftadd@f2+1)^080h,f
  8187  0924  3000               	movlw	0
  8188  0925  1803               	skipnc
  8189  0926  3001               movlw 1
  8190  0927  07D7               	addwf	(___ftadd@f2+2)^080h,f
  8191                           	line	144
  8192                           	
  8193  0928                     l9610:	
  8194  0928  01DC               	clrf	(___ftadd@sign)^080h
  8195  0929  1403               	bsf	status,0
  8196  092A  0DDC               	rlf	(___ftadd@sign)^080h,f
  8197  092B  292C               	goto	l9612
  8198                           	line	145
  8199                           	
  8200  092C                     l5162:	
  8201                           	line	146
  8202                           	
  8203  092C                     l9612:	
  8204  092C  0855               	movf	(___ftadd@f2)^080h,w
  8205  092D  00A0               	movwf	(?___ftpack)^080h
  8206  092E  0856               	movf	(___ftadd@f2+1)^080h,w
  8207  092F  00A1               	movwf	(?___ftpack+1)^080h
  8208  0930  0857               	movf	(___ftadd@f2+2)^080h,w
  8209  0931  00A2               	movwf	(?___ftpack+2)^080h
  8210  0932  085E               	movf	(___ftadd@exp1)^080h,w
  8211  0933  00D8               	movwf	(??___ftadd+0)^080h+0
  8212  0934  0858               	movf	(??___ftadd+0)^080h+0,w
  8213  0935  00A3               	movwf	0+(?___ftpack)^080h+03h
  8214  0936  085C               	movf	(___ftadd@sign)^080h,w
  8215  0937  00D9               	movwf	(??___ftadd+1)^080h+0
  8216  0938  0859               	movf	(??___ftadd+1)^080h+0,w
  8217  0939  00A4               	movwf	0+(?___ftpack)^080h+04h
  8218  093A  160A  158A  26DD   	fcall	___ftpack
              120A  158A         
  8219  093F  1683               	bsf	status, 5	;RP0=1, select bank1
  8220  0940  1303               	bcf	status, 6	;RP1=0, select bank1
  8221  0941  0820               	movf	(0+(?___ftpack))^080h,w
  8222  0942  00D2               	movwf	(?___ftadd)^080h
  8223  0943  0821               	movf	(1+(?___ftpack))^080h,w
  8224  0944  00D3               	movwf	(?___ftadd+1)^080h
  8225  0945  0822               	movf	(2+(?___ftpack))^080h,w
  8226  0946  00D4               	movwf	(?___ftadd+2)^080h
  8227  0947  2948               	goto	l5137
  8228                           	
  8229  0948                     l9614:	
  8230                           	line	148
  8231                           	
  8232  0948                     l5137:	
  8233  0948  0008               	return
  8234                           	opt stack 0
  8235                           GLOBAL	__end_of___ftadd
  8236  0949                     	__end_of___ftadd:
  8237 ;; =============== function ___ftadd ends ============
  8238                           
  8239                           	signat	___ftadd,8315
  8240                           	global	_ENABLE1
  8241                           psect	text943,local,class=CODE,delta=2
  8242                           global __ptext943
  8243  19AF                     __ptext943:
  8244                           
  8245 ;; *************** function _ENABLE1 *****************
  8246 ;; Defined at:
  8247 ;;		line 17 in file "E:\MPLAB_IDE\JY62\LCD.c"
  8248 ;; Parameters:    Size  Location     Type
  8249 ;;		None
  8250 ;; Auto vars:     Size  Location     Type
  8251 ;;		None
  8252 ;; Return value:  Size  Location     Type
  8253 ;;		None               void
  8254 ;; Registers used:
  8255 ;;		wreg, status,2, status,0, pclath, cstack
  8256 ;; Tracked objects:
  8257 ;;		On entry : 0/0
  8258 ;;		On exit  : 0/0
  8259 ;;		Unchanged: 0/0
  8260 ;; Data sizes:     COMMON   BANK0   BANK1   BANK3   BANK2
  8261 ;;      Params:         0       0       0       0       0
  8262 ;;      Locals:         0       0       0       0       0
  8263 ;;      Temps:          0       0       0       0       0
  8264 ;;      Totals:         0       0       0       0       0
  8265 ;;Total ram usage:        0 bytes
  8266 ;; Hardware stack levels used:    1
  8267 ;; Hardware stack levels required when called:    5
  8268 ;; This function calls:
  8269 ;;		_DELAY
  8270 ;; This function is called by:
  8271 ;;		_LCD_ShowString
  8272 ;;		_KEY_ShowTest
  8273 ;; This function uses a non-reentrant model
  8274 ;;
  8275                           psect	text943
  8276                           	file	"E:\MPLAB_IDE\JY62\LCD.c"
  8277                           	line	17
  8278                           	global	__size_of_ENABLE1
  8279  000E                     	__size_of_ENABLE1	equ	__end_of_ENABLE1-_ENABLE1
  8280                           	
  8281  19AF                     _ENABLE1:	
  8282                           	opt	stack 0
  8283                           ; Regs used in _ENABLE1: [wreg+status,2+status,0+pclath+cstack]
  8284                           	line	18
  8285                           	
  8286  19AF                     l9540:	
  8287                           ;LCD.c: 18: RA5 = 1;
  8288  19AF  1283               	bcf	status, 5	;RP0=0, select bank0
  8289  19B0  1303               	bcf	status, 6	;RP1=0, select bank0
  8290  19B1  1685               	bsf	(45/8),(45)&7
  8291                           	line	19
  8292                           ;LCD.c: 19: RA4 = 0;
  8293  19B2  1205               	bcf	(44/8),(44)&7
  8294                           	line	20
  8295                           ;LCD.c: 20: RA3 = 0;
  8296  19B3  1185               	bcf	(43/8),(43)&7
  8297                           	line	21
  8298                           	
  8299  19B4                     l9542:	
  8300                           ;LCD.c: 21: DELAY();
  8301  19B4  160A  158A  2222   	fcall	_DELAY
              160A  158A         
  8302                           	line	22
  8303                           	
  8304  19B9                     l9544:	
  8305                           ;LCD.c: 22: RA3 = 1;
  8306  19B9  1283               	bcf	status, 5	;RP0=0, select bank0
  8307  19BA  1303               	bcf	status, 6	;RP1=0, select bank0
  8308  19BB  1585               	bsf	(43/8),(43)&7
  8309                           	line	23
  8310                           	
  8311  19BC                     l695:	
  8312  19BC  0008               	return
  8313                           	opt stack 0
  8314                           GLOBAL	__end_of_ENABLE1
  8315  19BD                     	__end_of_ENABLE1:
  8316 ;; =============== function _ENABLE1 ends ============
  8317                           
  8318                           	signat	_ENABLE1,88
  8319                           	global	_ENABLE
  8320                           psect	text944,local,class=CODE,delta=2
  8321                           global __ptext944
  8322  19A1                     __ptext944:
  8323                           
  8324 ;; *************** function _ENABLE *****************
  8325 ;; Defined at:
  8326 ;;		line 9 in file "E:\MPLAB_IDE\JY62\LCD.c"
  8327 ;; Parameters:    Size  Location     Type
  8328 ;;		None
  8329 ;; Auto vars:     Size  Location     Type
  8330 ;;		None
  8331 ;; Return value:  Size  Location     Type
  8332 ;;		None               void
  8333 ;; Registers used:
  8334 ;;		wreg, status,2, status,0, pclath, cstack
  8335 ;; Tracked objects:
  8336 ;;		On entry : 0/0
  8337 ;;		On exit  : 0/0
  8338 ;;		Unchanged: 0/0
  8339 ;; Data sizes:     COMMON   BANK0   BANK1   BANK3   BANK2
  8340 ;;      Params:         0       0       0       0       0
  8341 ;;      Locals:         0       0       0       0       0
  8342 ;;      Temps:          0       0       0       0       0
  8343 ;;      Totals:         0       0       0       0       0
  8344 ;;Total ram usage:        0 bytes
  8345 ;; Hardware stack levels used:    1
  8346 ;; Hardware stack levels required when called:    5
  8347 ;; This function calls:
  8348 ;;		_DELAY
  8349 ;; This function is called by:
  8350 ;;		_LCD_Init
  8351 ;;		_LCD_Clear
  8352 ;;		_LCD_ShowString
  8353 ;;		_KEY_Scan
  8354 ;;		_KEY_ShowTest
  8355 ;; This function uses a non-reentrant model
  8356 ;;
  8357                           psect	text944
  8358                           	file	"E:\MPLAB_IDE\JY62\LCD.c"
  8359                           	line	9
  8360                           	global	__size_of_ENABLE
  8361  000E                     	__size_of_ENABLE	equ	__end_of_ENABLE-_ENABLE
  8362                           	
  8363  19A1                     _ENABLE:	
  8364                           	opt	stack 0
  8365                           ; Regs used in _ENABLE: [wreg+status,2+status,0+pclath+cstack]
  8366                           	line	10
  8367                           	
  8368  19A1                     l9534:	
  8369                           ;LCD.c: 10: RA5 = 0;
  8370  19A1  1283               	bcf	status, 5	;RP0=0, select bank0
  8371  19A2  1303               	bcf	status, 6	;RP1=0, select bank0
  8372  19A3  1285               	bcf	(45/8),(45)&7
  8373                           	line	11
  8374                           ;LCD.c: 11: RA4 = 0;
  8375  19A4  1205               	bcf	(44/8),(44)&7
  8376                           	line	12
  8377                           ;LCD.c: 12: RA3 = 0;
  8378  19A5  1185               	bcf	(43/8),(43)&7
  8379                           	line	13
  8380                           	
  8381  19A6                     l9536:	
  8382                           ;LCD.c: 13: DELAY();
  8383  19A6  160A  158A  2222   	fcall	_DELAY
              160A  158A         
  8384                           	line	14
  8385                           	
  8386  19AB                     l9538:	
  8387                           ;LCD.c: 14: RA3 = 1;
  8388  19AB  1283               	bcf	status, 5	;RP0=0, select bank0
  8389  19AC  1303               	bcf	status, 6	;RP1=0, select bank0
  8390  19AD  1585               	bsf	(43/8),(43)&7
  8391                           	line	15
  8392                           	
  8393  19AE                     l692:	
  8394  19AE  0008               	return
  8395                           	opt stack 0
  8396                           GLOBAL	__end_of_ENABLE
  8397  19AF                     	__end_of_ENABLE:
  8398 ;; =============== function _ENABLE ends ============
  8399                           
  8400                           	signat	_ENABLE,88
  8401                           	global	___awmod
  8402                           psect	text945,local,class=CODE,delta=2
  8403                           global __ptext945
  8404  1CA6                     __ptext945:
  8405                           
  8406 ;; *************** function ___awmod *****************
  8407 ;; Defined at:
  8408 ;;		line 5 in file "C:\Program Files (x86)\HI-TECH Software\PICC\9.82\sources\awmod.c"
  8409 ;; Parameters:    Size  Location     Type
  8410 ;;  divisor         2    0[BANK1 ] int 
  8411 ;;  dividend        2    2[BANK1 ] int 
  8412 ;; Auto vars:     Size  Location     Type
  8413 ;;  sign            1    6[BANK1 ] unsigned char 
  8414 ;;  counter         1    5[BANK1 ] unsigned char 
  8415 ;; Return value:  Size  Location     Type
  8416 ;;                  2    0[BANK1 ] int 
  8417 ;; Registers used:
  8418 ;;		wreg, status,2, status,0
  8419 ;; Tracked objects:
  8420 ;;		On entry : 0/0
  8421 ;;		On exit  : 0/0
  8422 ;;		Unchanged: 0/0
  8423 ;; Data sizes:     COMMON   BANK0   BANK1   BANK3   BANK2
  8424 ;;      Params:         0       0       4       0       0
  8425 ;;      Locals:         0       0       2       0       0
  8426 ;;      Temps:          0       0       1       0       0
  8427 ;;      Totals:         0       0       7       0       0
  8428 ;;Total ram usage:        7 bytes
  8429 ;; Hardware stack levels used:    1
  8430 ;; Hardware stack levels required when called:    4
  8431 ;; This function calls:
  8432 ;;		Nothing
  8433 ;; This function is called by:
  8434 ;;		_JY62_InfiniteYaw
  8435 ;;		_fround
  8436 ;;		_scale
  8437 ;; This function uses a non-reentrant model
  8438 ;;
  8439                           psect	text945
  8440                           	file	"C:\Program Files (x86)\HI-TECH Software\PICC\9.82\sources\awmod.c"
  8441                           	line	5
  8442                           	global	__size_of___awmod
  8443  0068                     	__size_of___awmod	equ	__end_of___awmod-___awmod
  8444                           	
  8445  1CA6                     ___awmod:	
  8446                           	opt	stack 0
  8447                           ; Regs used in ___awmod: [wreg+status,2+status,0]
  8448                           	line	8
  8449                           	
  8450  1CA6                     l9376:	
  8451  1CA6  1683               	bsf	status, 5	;RP0=1, select bank1
  8452  1CA7  1303               	bcf	status, 6	;RP1=0, select bank1
  8453  1CA8  01A6               	clrf	(___awmod@sign)^080h
  8454                           	line	9
  8455  1CA9  1FA3               	btfss	(___awmod@dividend+1)^080h,7
  8456  1CAA  2CAC               	goto	u5041
  8457  1CAB  2CAD               	goto	u5040
  8458  1CAC                     u5041:
  8459  1CAC  2CB6               	goto	l9380
  8460  1CAD                     u5040:
  8461                           	line	10
  8462                           	
  8463  1CAD                     l9378:	
  8464  1CAD  09A2               	comf	(___awmod@dividend)^080h,f
  8465  1CAE  09A3               	comf	(___awmod@dividend+1)^080h,f
  8466  1CAF  0AA2               	incf	(___awmod@dividend)^080h,f
  8467  1CB0  1903               	skipnz
  8468  1CB1  0AA3               	incf	(___awmod@dividend+1)^080h,f
  8469                           	line	11
  8470  1CB2  01A6               	clrf	(___awmod@sign)^080h
  8471  1CB3  1403               	bsf	status,0
  8472  1CB4  0DA6               	rlf	(___awmod@sign)^080h,f
  8473  1CB5  2CB6               	goto	l9380
  8474                           	line	12
  8475                           	
  8476  1CB6                     l5298:	
  8477                           	line	13
  8478                           	
  8479  1CB6                     l9380:	
  8480  1CB6  1FA1               	btfss	(___awmod@divisor+1)^080h,7
  8481  1CB7  2CB9               	goto	u5051
  8482  1CB8  2CBA               	goto	u5050
  8483  1CB9                     u5051:
  8484  1CB9  2CC0               	goto	l9384
  8485  1CBA                     u5050:
  8486                           	line	14
  8487                           	
  8488  1CBA                     l9382:	
  8489  1CBA  09A0               	comf	(___awmod@divisor)^080h,f
  8490  1CBB  09A1               	comf	(___awmod@divisor+1)^080h,f
  8491  1CBC  0AA0               	incf	(___awmod@divisor)^080h,f
  8492  1CBD  1903               	skipnz
  8493  1CBE  0AA1               	incf	(___awmod@divisor+1)^080h,f
  8494  1CBF  2CC0               	goto	l9384
  8495                           	
  8496  1CC0                     l5299:	
  8497                           	line	15
  8498                           	
  8499  1CC0                     l9384:	
  8500  1CC0  0821               	movf	(___awmod@divisor+1)^080h,w
  8501  1CC1  0420               	iorwf	(___awmod@divisor)^080h,w
  8502  1CC2  1903               	skipnz
  8503  1CC3  2CC5               	goto	u5061
  8504  1CC4  2CC6               	goto	u5060
  8505  1CC5                     u5061:
  8506  1CC5  2CFC               	goto	l9402
  8507  1CC6                     u5060:
  8508                           	line	16
  8509                           	
  8510  1CC6                     l9386:	
  8511  1CC6  01A5               	clrf	(___awmod@counter)^080h
  8512  1CC7  1403               	bsf	status,0
  8513  1CC8  0DA5               	rlf	(___awmod@counter)^080h,f
  8514                           	line	17
  8515  1CC9  2CD6               	goto	l9392
  8516                           	
  8517  1CCA                     l5302:	
  8518                           	line	18
  8519                           	
  8520  1CCA                     l9388:	
  8521  1CCA  3001               	movlw	01h
  8522                           	
  8523  1CCB                     u5075:
  8524  1CCB  1003               	clrc
  8525  1CCC  0DA0               	rlf	(___awmod@divisor)^080h,f
  8526  1CCD  0DA1               	rlf	(___awmod@divisor+1)^080h,f
  8527  1CCE  3EFF               	addlw	-1
  8528  1CCF  1D03               	skipz
  8529  1CD0  2CCB               	goto	u5075
  8530                           	line	19
  8531                           	
  8532  1CD1                     l9390:	
  8533  1CD1  3001               	movlw	(01h)
  8534  1CD2  00A4               	movwf	(??___awmod+0)^080h+0
  8535  1CD3  0824               	movf	(??___awmod+0)^080h+0,w
  8536  1CD4  07A5               	addwf	(___awmod@counter)^080h,f
  8537  1CD5  2CD6               	goto	l9392
  8538                           	line	20
  8539                           	
  8540  1CD6                     l5301:	
  8541                           	line	17
  8542                           	
  8543  1CD6                     l9392:	
  8544  1CD6  1FA1               	btfss	(___awmod@divisor+1)^080h,(15)&7
  8545  1CD7  2CD9               	goto	u5081
  8546  1CD8  2CDA               	goto	u5080
  8547  1CD9                     u5081:
  8548  1CD9  2CCA               	goto	l9388
  8549  1CDA                     u5080:
  8550  1CDA  2CDC               	goto	l9394
  8551                           	
  8552  1CDB                     l5303:	
  8553  1CDB  2CDC               	goto	l9394
  8554                           	line	21
  8555                           	
  8556  1CDC                     l5304:	
  8557                           	line	22
  8558                           	
  8559  1CDC                     l9394:	
  8560  1CDC  0821               	movf	(___awmod@divisor+1)^080h,w
  8561  1CDD  0223               	subwf	(___awmod@dividend+1)^080h,w
  8562  1CDE  1D03               	skipz
  8563  1CDF  2CE2               	goto	u5095
  8564  1CE0  0820               	movf	(___awmod@divisor)^080h,w
  8565  1CE1  0222               	subwf	(___awmod@dividend)^080h,w
  8566  1CE2                     u5095:
  8567  1CE2  1C03               	skipc
  8568  1CE3  2CE5               	goto	u5091
  8569  1CE4  2CE6               	goto	u5090
  8570  1CE5                     u5091:
  8571  1CE5  2CED               	goto	l9398
  8572  1CE6                     u5090:
  8573                           	line	23
  8574                           	
  8575  1CE6                     l9396:	
  8576  1CE6  0820               	movf	(___awmod@divisor)^080h,w
  8577  1CE7  02A2               	subwf	(___awmod@dividend)^080h,f
  8578  1CE8  0821               	movf	(___awmod@divisor+1)^080h,w
  8579  1CE9  1C03               	skipc
  8580  1CEA  03A3               	decf	(___awmod@dividend+1)^080h,f
  8581  1CEB  02A3               	subwf	(___awmod@dividend+1)^080h,f
  8582  1CEC  2CED               	goto	l9398
  8583                           	
  8584  1CED                     l5305:	
  8585                           	line	24
  8586                           	
  8587  1CED                     l9398:	
  8588  1CED  3001               	movlw	01h
  8589                           	
  8590  1CEE                     u5105:
  8591  1CEE  1003               	clrc
  8592  1CEF  0CA1               	rrf	(___awmod@divisor+1)^080h,f
  8593  1CF0  0CA0               	rrf	(___awmod@divisor)^080h,f
  8594  1CF1  3EFF               	addlw	-1
  8595  1CF2  1D03               	skipz
  8596  1CF3  2CEE               	goto	u5105
  8597                           	line	25
  8598                           	
  8599  1CF4                     l9400:	
  8600  1CF4  3001               	movlw	low(01h)
  8601  1CF5  02A5               	subwf	(___awmod@counter)^080h,f
  8602  1CF6  1D03               	btfss	status,2
  8603  1CF7  2CF9               	goto	u5111
  8604  1CF8  2CFA               	goto	u5110
  8605  1CF9                     u5111:
  8606  1CF9  2CDC               	goto	l9394
  8607  1CFA                     u5110:
  8608  1CFA  2CFC               	goto	l9402
  8609                           	
  8610  1CFB                     l5306:	
  8611  1CFB  2CFC               	goto	l9402
  8612                           	line	26
  8613                           	
  8614  1CFC                     l5300:	
  8615                           	line	27
  8616                           	
  8617  1CFC                     l9402:	
  8618  1CFC  0826               	movf	(___awmod@sign)^080h,w
  8619  1CFD  1D03               	skipz
  8620  1CFE  2D00               	goto	u5120
  8621  1CFF  2D06               	goto	l9406
  8622  1D00                     u5120:
  8623                           	line	28
  8624                           	
  8625  1D00                     l9404:	
  8626  1D00  09A2               	comf	(___awmod@dividend)^080h,f
  8627  1D01  09A3               	comf	(___awmod@dividend+1)^080h,f
  8628  1D02  0AA2               	incf	(___awmod@dividend)^080h,f
  8629  1D03  1903               	skipnz
  8630  1D04  0AA3               	incf	(___awmod@dividend+1)^080h,f
  8631  1D05  2D06               	goto	l9406
  8632                           	
  8633  1D06                     l5307:	
  8634                           	line	29
  8635                           	
  8636  1D06                     l9406:	
  8637  1D06  0823               	movf	(___awmod@dividend+1)^080h,w
  8638  1D07  01A1               	clrf	(?___awmod+1)^080h
  8639  1D08  07A1               	addwf	(?___awmod+1)^080h
  8640  1D09  0822               	movf	(___awmod@dividend)^080h,w
  8641  1D0A  01A0               	clrf	(?___awmod)^080h
  8642  1D0B  07A0               	addwf	(?___awmod)^080h
  8643                           
  8644  1D0C  2D0D               	goto	l5308
  8645                           	
  8646  1D0D                     l9408:	
  8647                           	line	30
  8648                           	
  8649  1D0D                     l5308:	
  8650  1D0D  0008               	return
  8651                           	opt stack 0
  8652                           GLOBAL	__end_of___awmod
  8653  1D0E                     	__end_of___awmod:
  8654 ;; =============== function ___awmod ends ============
  8655                           
  8656                           	signat	___awmod,8314
  8657                           	global	___lldiv
  8658                           psect	text946,local,class=CODE,delta=2
  8659                           global __ptext946
  8660  1D7C                     __ptext946:
  8661                           
  8662 ;; *************** function ___lldiv *****************
  8663 ;; Defined at:
  8664 ;;		line 5 in file "C:\Program Files (x86)\HI-TECH Software\PICC\9.82\sources\lldiv.c"
  8665 ;; Parameters:    Size  Location     Type
  8666 ;;  divisor         4    0[BANK1 ] unsigned long 
  8667 ;;  dividend        4    4[BANK1 ] unsigned long 
  8668 ;; Auto vars:     Size  Location     Type
  8669 ;;  quotient        4    9[BANK1 ] unsigned long 
  8670 ;;  counter         1   13[BANK1 ] unsigned char 
  8671 ;; Return value:  Size  Location     Type
  8672 ;;                  4    0[BANK1 ] unsigned long 
  8673 ;; Registers used:
  8674 ;;		wreg, status,2, status,0
  8675 ;; Tracked objects:
  8676 ;;		On entry : 0/0
  8677 ;;		On exit  : 0/0
  8678 ;;		Unchanged: 0/0
  8679 ;; Data sizes:     COMMON   BANK0   BANK1   BANK3   BANK2
  8680 ;;      Params:         0       0       8       0       0
  8681 ;;      Locals:         0       0       5       0       0
  8682 ;;      Temps:          0       0       1       0       0
  8683 ;;      Totals:         0       0      14       0       0
  8684 ;;Total ram usage:       14 bytes
  8685 ;; Hardware stack levels used:    1
  8686 ;; Hardware stack levels required when called:    4
  8687 ;; This function calls:
  8688 ;;		Nothing
  8689 ;; This function is called by:
  8690 ;;		_sprintf
  8691 ;; This function uses a non-reentrant model
  8692 ;;
  8693                           psect	text946
  8694                           	file	"C:\Program Files (x86)\HI-TECH Software\PICC\9.82\sources\lldiv.c"
  8695                           	line	5
  8696                           	global	__size_of___lldiv
  8697  0070                     	__size_of___lldiv	equ	__end_of___lldiv-___lldiv
  8698                           	
  8699  1D7C                     ___lldiv:	
  8700                           	opt	stack 1
  8701                           ; Regs used in ___lldiv: [wreg+status,2+status,0]
  8702                           	line	9
  8703                           	
  8704  1D7C                     l9352:	
  8705  1D7C  3000               	movlw	0
  8706  1D7D  1683               	bsf	status, 5	;RP0=1, select bank1
  8707  1D7E  1303               	bcf	status, 6	;RP1=0, select bank1
  8708  1D7F  00AC               	movwf	(___lldiv@quotient+3)^080h
  8709  1D80  3000               	movlw	0
  8710  1D81  00AB               	movwf	(___lldiv@quotient+2)^080h
  8711  1D82  3000               	movlw	0
  8712  1D83  00AA               	movwf	(___lldiv@quotient+1)^080h
  8713  1D84  3000               	movlw	0
  8714  1D85  00A9               	movwf	(___lldiv@quotient)^080h
  8715                           
  8716                           	line	10
  8717  1D86  0823               	movf	(___lldiv@divisor+3)^080h,w
  8718  1D87  0422               	iorwf	(___lldiv@divisor+2)^080h,w
  8719  1D88  0421               	iorwf	(___lldiv@divisor+1)^080h,w
  8720  1D89  0420               	iorwf	(___lldiv@divisor)^080h,w
  8721  1D8A  1903               	skipnz
  8722  1D8B  2D8D               	goto	u4971
  8723  1D8C  2D8E               	goto	u4970
  8724  1D8D                     u4971:
  8725  1D8D  2DE2               	goto	l9372
  8726  1D8E                     u4970:
  8727                           	line	11
  8728                           	
  8729  1D8E                     l9354:	
  8730  1D8E  01AD               	clrf	(___lldiv@counter)^080h
  8731  1D8F  1403               	bsf	status,0
  8732  1D90  0DAD               	rlf	(___lldiv@counter)^080h,f
  8733                           	line	12
  8734  1D91  2DA0               	goto	l9358
  8735                           	
  8736  1D92                     l5264:	
  8737                           	line	13
  8738                           	
  8739  1D92                     l9356:	
  8740  1D92  3001               	movlw	01h
  8741  1D93  00A8               	movwf	(??___lldiv+0)^080h+0
  8742  1D94                     u4985:
  8743  1D94  1003               	clrc
  8744  1D95  0DA0               	rlf	(___lldiv@divisor)^080h,f
  8745  1D96  0DA1               	rlf	(___lldiv@divisor+1)^080h,f
  8746  1D97  0DA2               	rlf	(___lldiv@divisor+2)^080h,f
  8747  1D98  0DA3               	rlf	(___lldiv@divisor+3)^080h,f
  8748  1D99  0BA8               	decfsz	(??___lldiv+0)^080h+0
  8749  1D9A  2D94               	goto	u4985
  8750                           	line	14
  8751  1D9B  3001               	movlw	(01h)
  8752  1D9C  00A8               	movwf	(??___lldiv+0)^080h+0
  8753  1D9D  0828               	movf	(??___lldiv+0)^080h+0,w
  8754  1D9E  07AD               	addwf	(___lldiv@counter)^080h,f
  8755  1D9F  2DA0               	goto	l9358
  8756                           	line	15
  8757                           	
  8758  1DA0                     l5263:	
  8759                           	line	12
  8760                           	
  8761  1DA0                     l9358:	
  8762  1DA0  1FA3               	btfss	(___lldiv@divisor+3)^080h,(31)&7
  8763  1DA1  2DA3               	goto	u4991
  8764  1DA2  2DA4               	goto	u4990
  8765  1DA3                     u4991:
  8766  1DA3  2D92               	goto	l9356
  8767  1DA4                     u4990:
  8768  1DA4  2DA6               	goto	l9360
  8769                           	
  8770  1DA5                     l5265:	
  8771  1DA5  2DA6               	goto	l9360
  8772                           	line	16
  8773                           	
  8774  1DA6                     l5266:	
  8775                           	line	17
  8776                           	
  8777  1DA6                     l9360:	
  8778  1DA6  3001               	movlw	01h
  8779  1DA7  00A8               	movwf	(??___lldiv+0)^080h+0
  8780  1DA8                     u5005:
  8781  1DA8  1003               	clrc
  8782  1DA9  0DA9               	rlf	(___lldiv@quotient)^080h,f
  8783  1DAA  0DAA               	rlf	(___lldiv@quotient+1)^080h,f
  8784  1DAB  0DAB               	rlf	(___lldiv@quotient+2)^080h,f
  8785  1DAC  0DAC               	rlf	(___lldiv@quotient+3)^080h,f
  8786  1DAD  0BA8               	decfsz	(??___lldiv+0)^080h+0
  8787  1DAE  2DA8               	goto	u5005
  8788                           	line	18
  8789                           	
  8790  1DAF                     l9362:	
  8791  1DAF  0823               	movf	(___lldiv@divisor+3)^080h,w
  8792  1DB0  0227               	subwf	(___lldiv@dividend+3)^080h,w
  8793  1DB1  1D03               	skipz
  8794  1DB2  2DBD               	goto	u5015
  8795  1DB3  0822               	movf	(___lldiv@divisor+2)^080h,w
  8796  1DB4  0226               	subwf	(___lldiv@dividend+2)^080h,w
  8797  1DB5  1D03               	skipz
  8798  1DB6  2DBD               	goto	u5015
  8799  1DB7  0821               	movf	(___lldiv@divisor+1)^080h,w
  8800  1DB8  0225               	subwf	(___lldiv@dividend+1)^080h,w
  8801  1DB9  1D03               	skipz
  8802  1DBA  2DBD               	goto	u5015
  8803  1DBB  0820               	movf	(___lldiv@divisor)^080h,w
  8804  1DBC  0224               	subwf	(___lldiv@dividend)^080h,w
  8805  1DBD                     u5015:
  8806  1DBD  1C03               	skipc
  8807  1DBE  2DC0               	goto	u5011
  8808  1DBF  2DC1               	goto	u5010
  8809  1DC0                     u5011:
  8810  1DC0  2DD1               	goto	l9368
  8811  1DC1                     u5010:
  8812                           	line	19
  8813                           	
  8814  1DC1                     l9364:	
  8815  1DC1  0820               	movf	(___lldiv@divisor)^080h,w
  8816  1DC2  02A4               	subwf	(___lldiv@dividend)^080h,f
  8817  1DC3  0821               	movf	(___lldiv@divisor+1)^080h,w
  8818  1DC4  1C03               	skipc
  8819  1DC5  0F21               	incfsz	(___lldiv@divisor+1)^080h,w
  8820  1DC6  02A5               	subwf	(___lldiv@dividend+1)^080h,f
  8821  1DC7  0822               	movf	(___lldiv@divisor+2)^080h,w
  8822  1DC8  1C03               	skipc
  8823  1DC9  0F22               	incfsz	(___lldiv@divisor+2)^080h,w
  8824  1DCA  02A6               	subwf	(___lldiv@dividend+2)^080h,f
  8825  1DCB  0823               	movf	(___lldiv@divisor+3)^080h,w
  8826  1DCC  1C03               	skipc
  8827  1DCD  0F23               	incfsz	(___lldiv@divisor+3)^080h,w
  8828  1DCE  02A7               	subwf	(___lldiv@dividend+3)^080h,f
  8829                           	line	20
  8830                           	
  8831  1DCF                     l9366:	
  8832  1DCF  1429               	bsf	(___lldiv@quotient)^080h+(0/8),(0)&7
  8833  1DD0  2DD1               	goto	l9368
  8834                           	line	21
  8835                           	
  8836  1DD1                     l5267:	
  8837                           	line	22
  8838                           	
  8839  1DD1                     l9368:	
  8840  1DD1  3001               	movlw	01h
  8841  1DD2                     u5025:
  8842  1DD2  1003               	clrc
  8843  1DD3  0CA3               	rrf	(___lldiv@divisor+3)^080h,f
  8844  1DD4  0CA2               	rrf	(___lldiv@divisor+2)^080h,f
  8845  1DD5  0CA1               	rrf	(___lldiv@divisor+1)^080h,f
  8846  1DD6  0CA0               	rrf	(___lldiv@divisor)^080h,f
  8847  1DD7  3EFF               	addlw	-1
  8848  1DD8  1D03               	skipz
  8849  1DD9  2DD2               	goto	u5025
  8850                           
  8851                           	line	23
  8852                           	
  8853  1DDA                     l9370:	
  8854  1DDA  3001               	movlw	low(01h)
  8855  1DDB  02AD               	subwf	(___lldiv@counter)^080h,f
  8856  1DDC  1D03               	btfss	status,2
  8857  1DDD  2DDF               	goto	u5031
  8858  1DDE  2DE0               	goto	u5030
  8859  1DDF                     u5031:
  8860  1DDF  2DA6               	goto	l9360
  8861  1DE0                     u5030:
  8862  1DE0  2DE2               	goto	l9372
  8863                           	
  8864  1DE1                     l5268:	
  8865  1DE1  2DE2               	goto	l9372
  8866                           	line	24
  8867                           	
  8868  1DE2                     l5262:	
  8869                           	line	25
  8870                           	
  8871  1DE2                     l9372:	
  8872  1DE2  082C               	movf	(___lldiv@quotient+3)^080h,w
  8873  1DE3  00A3               	movwf	(?___lldiv+3)^080h
  8874  1DE4  082B               	movf	(___lldiv@quotient+2)^080h,w
  8875  1DE5  00A2               	movwf	(?___lldiv+2)^080h
  8876  1DE6  082A               	movf	(___lldiv@quotient+1)^080h,w
  8877  1DE7  00A1               	movwf	(?___lldiv+1)^080h
  8878  1DE8  0829               	movf	(___lldiv@quotient)^080h,w
  8879  1DE9  00A0               	movwf	(?___lldiv)^080h
  8880                           
  8881  1DEA  2DEB               	goto	l5269
  8882                           	
  8883  1DEB                     l9374:	
  8884                           	line	26
  8885                           	
  8886  1DEB                     l5269:	
  8887  1DEB  0008               	return
  8888                           	opt stack 0
  8889                           GLOBAL	__end_of___lldiv
  8890  1DEC                     	__end_of___lldiv:
  8891 ;; =============== function ___lldiv ends ============
  8892                           
  8893                           	signat	___lldiv,8316
  8894                           	global	___ftge
  8895                           psect	text947,local,class=CODE,delta=2
  8896                           global __ptext947
  8897  1D0E                     __ptext947:
  8898                           
  8899 ;; *************** function ___ftge *****************
  8900 ;; Defined at:
  8901 ;;		line 5 in file "C:\Program Files (x86)\HI-TECH Software\PICC\9.82\sources\ftge.c"
  8902 ;; Parameters:    Size  Location     Type
  8903 ;;  ff1             3    0[BANK1 ] float 
  8904 ;;  ff2             3    3[BANK1 ] float 
  8905 ;; Auto vars:     Size  Location     Type
  8906 ;;		None
  8907 ;; Return value:  Size  Location     Type
  8908 ;;		None               void
  8909 ;; Registers used:
  8910 ;;		wreg, status,2, status,0
  8911 ;; Tracked objects:
  8912 ;;		On entry : 0/0
  8913 ;;		On exit  : 0/0
  8914 ;;		Unchanged: 0/0
  8915 ;; Data sizes:     COMMON   BANK0   BANK1   BANK3   BANK2
  8916 ;;      Params:         0       0       6       0       0
  8917 ;;      Locals:         0       0       0       0       0
  8918 ;;      Temps:          0       0       6       0       0
  8919 ;;      Totals:         0       0      12       0       0
  8920 ;;Total ram usage:       12 bytes
  8921 ;; Hardware stack levels used:    1
  8922 ;; Hardware stack levels required when called:    4
  8923 ;; This function calls:
  8924 ;;		Nothing
  8925 ;; This function is called by:
  8926 ;;		_sprintf
  8927 ;; This function uses a non-reentrant model
  8928 ;;
  8929                           psect	text947
  8930                           	file	"C:\Program Files (x86)\HI-TECH Software\PICC\9.82\sources\ftge.c"
  8931                           	line	5
  8932                           	global	__size_of___ftge
  8933  006E                     	__size_of___ftge	equ	__end_of___ftge-___ftge
  8934                           	
  8935  1D0E                     ___ftge:	
  8936                           	opt	stack 1
  8937                           ; Regs used in ___ftge: [wreg+status,2+status,0]
  8938                           	line	6
  8939                           	
  8940  1D0E                     l9332:	
  8941  1D0E  1683               	bsf	status, 5	;RP0=1, select bank1
  8942  1D0F  1303               	bcf	status, 6	;RP1=0, select bank1
  8943  1D10  1FA2               	btfss	(___ftge@ff1+2)^080h,(23)&7
  8944  1D11  2D13               	goto	u4921
  8945  1D12  2D14               	goto	u4920
  8946  1D13                     u4921:
  8947  1D13  2D3A               	goto	l9336
  8948  1D14                     u4920:
  8949                           	line	7
  8950                           	
  8951  1D14                     l9334:	
  8952  1D14  3000               	movlw	0
  8953  1D15  00A6               	movwf	((??___ftge+0)^080h+0)
  8954  1D16  3000               	movlw	0
  8955  1D17  00A7               	movwf	((??___ftge+0)^080h+0+1)
  8956  1D18  3080               	movlw	080h
  8957  1D19  00A8               	movwf	((??___ftge+0)^080h+0+2)
  8958  1D1A  0920               	comf	(___ftge@ff1)^080h,w
  8959  1D1B  00A9               	movwf	(??___ftge+3)^080h+0
  8960  1D1C  0921               	comf	(___ftge@ff1+1)^080h,w
  8961  1D1D  00AA               	movwf	((??___ftge+3)^080h+0+1)
  8962  1D1E  0922               	comf	(___ftge@ff1+2)^080h,w
  8963  1D1F  00AB               	movwf	((??___ftge+3)^080h+0+2)
  8964  1D20  0AA9               	incf	(??___ftge+3)^080h+0,f
  8965  1D21  1903               	skipnz
  8966  1D22  0AAA               	incf	((??___ftge+3)^080h+0+1),f
  8967  1D23  1903               	skipnz
  8968  1D24  0AAB               	incf	((??___ftge+3)^080h+0+2),f
  8969  1D25  0829               	movf	0+(??___ftge+3)^080h+0,w
  8970  1D26  07A6               	addwf	(??___ftge+0)^080h+0,f
  8971  1D27  082A               	movf	1+(??___ftge+3)^080h+0,w
  8972  1D28  1803               	skipnc
  8973  1D29  0F2A               	incfsz	1+(??___ftge+3)^080h+0,w
  8974  1D2A  2D2C               	goto	u4931
  8975  1D2B  2D2D               	goto	u4932
  8976  1D2C                     u4931:
  8977  1D2C  07A7               	addwf	(??___ftge+0)^080h+1,f
  8978                           	
  8979  1D2D                     u4932:
  8980  1D2D  082B               	movf	2+(??___ftge+3)^080h+0,w
  8981  1D2E  1803               	skipnc
  8982  1D2F  0F2B               	incfsz	2+(??___ftge+3)^080h+0,w
  8983  1D30  2D32               	goto	u4933
  8984  1D31  2D33               	goto	u4934
  8985  1D32                     u4933:
  8986  1D32  07A8               	addwf	(??___ftge+0)^080h+2,f
  8987                           	
  8988  1D33                     u4934:
  8989  1D33  0826               	movf	0+(??___ftge+0)^080h+0,w
  8990  1D34  00A0               	movwf	(___ftge@ff1)^080h
  8991  1D35  0827               	movf	1+(??___ftge+0)^080h+0,w
  8992  1D36  00A1               	movwf	(___ftge@ff1+1)^080h
  8993  1D37  0828               	movf	2+(??___ftge+0)^080h+0,w
  8994  1D38  00A2               	movwf	(___ftge@ff1+2)^080h
  8995  1D39  2D3A               	goto	l9336
  8996                           	
  8997  1D3A                     l5257:	
  8998                           	line	8
  8999                           	
  9000  1D3A                     l9336:	
  9001  1D3A  1FA5               	btfss	(___ftge@ff2+2)^080h,(23)&7
  9002  1D3B  2D3D               	goto	u4941
  9003  1D3C  2D3E               	goto	u4940
  9004  1D3D                     u4941:
  9005  1D3D  2D64               	goto	l9340
  9006  1D3E                     u4940:
  9007                           	line	9
  9008                           	
  9009  1D3E                     l9338:	
  9010  1D3E  3000               	movlw	0
  9011  1D3F  00A6               	movwf	((??___ftge+0)^080h+0)
  9012  1D40  3000               	movlw	0
  9013  1D41  00A7               	movwf	((??___ftge+0)^080h+0+1)
  9014  1D42  3080               	movlw	080h
  9015  1D43  00A8               	movwf	((??___ftge+0)^080h+0+2)
  9016  1D44  0923               	comf	(___ftge@ff2)^080h,w
  9017  1D45  00A9               	movwf	(??___ftge+3)^080h+0
  9018  1D46  0924               	comf	(___ftge@ff2+1)^080h,w
  9019  1D47  00AA               	movwf	((??___ftge+3)^080h+0+1)
  9020  1D48  0925               	comf	(___ftge@ff2+2)^080h,w
  9021  1D49  00AB               	movwf	((??___ftge+3)^080h+0+2)
  9022  1D4A  0AA9               	incf	(??___ftge+3)^080h+0,f
  9023  1D4B  1903               	skipnz
  9024  1D4C  0AAA               	incf	((??___ftge+3)^080h+0+1),f
  9025  1D4D  1903               	skipnz
  9026  1D4E  0AAB               	incf	((??___ftge+3)^080h+0+2),f
  9027  1D4F  0829               	movf	0+(??___ftge+3)^080h+0,w
  9028  1D50  07A6               	addwf	(??___ftge+0)^080h+0,f
  9029  1D51  082A               	movf	1+(??___ftge+3)^080h+0,w
  9030  1D52  1803               	skipnc
  9031  1D53  0F2A               	incfsz	1+(??___ftge+3)^080h+0,w
  9032  1D54  2D56               	goto	u4951
  9033  1D55  2D57               	goto	u4952
  9034  1D56                     u4951:
  9035  1D56  07A7               	addwf	(??___ftge+0)^080h+1,f
  9036                           	
  9037  1D57                     u4952:
  9038  1D57  082B               	movf	2+(??___ftge+3)^080h+0,w
  9039  1D58  1803               	skipnc
  9040  1D59  0F2B               	incfsz	2+(??___ftge+3)^080h+0,w
  9041  1D5A  2D5C               	goto	u4953
  9042  1D5B  2D5D               	goto	u4954
  9043  1D5C                     u4953:
  9044  1D5C  07A8               	addwf	(??___ftge+0)^080h+2,f
  9045                           	
  9046  1D5D                     u4954:
  9047  1D5D  0826               	movf	0+(??___ftge+0)^080h+0,w
  9048  1D5E  00A3               	movwf	(___ftge@ff2)^080h
  9049  1D5F  0827               	movf	1+(??___ftge+0)^080h+0,w
  9050  1D60  00A4               	movwf	(___ftge@ff2+1)^080h
  9051  1D61  0828               	movf	2+(??___ftge+0)^080h+0,w
  9052  1D62  00A5               	movwf	(___ftge@ff2+2)^080h
  9053  1D63  2D64               	goto	l9340
  9054                           	
  9055  1D64                     l5258:	
  9056                           	line	10
  9057                           	
  9058  1D64                     l9340:	
  9059  1D64  3080               	movlw	080h
  9060  1D65  06A2               	xorwf	(___ftge@ff1+2)^080h,f
  9061                           	line	11
  9062                           	
  9063  1D66                     l9342:	
  9064  1D66  3080               	movlw	080h
  9065  1D67  06A5               	xorwf	(___ftge@ff2+2)^080h,f
  9066                           	line	12
  9067                           	
  9068  1D68                     l9344:	
  9069  1D68  0825               	movf	(___ftge@ff2+2)^080h,w
  9070  1D69  0222               	subwf	(___ftge@ff1+2)^080h,w
  9071  1D6A  1D03               	skipz
  9072  1D6B  2D72               	goto	u4965
  9073  1D6C  0824               	movf	(___ftge@ff2+1)^080h,w
  9074  1D6D  0221               	subwf	(___ftge@ff1+1)^080h,w
  9075  1D6E  1D03               	skipz
  9076  1D6F  2D72               	goto	u4965
  9077  1D70  0823               	movf	(___ftge@ff2)^080h,w
  9078  1D71  0220               	subwf	(___ftge@ff1)^080h,w
  9079  1D72                     u4965:
  9080  1D72  1803               	skipnc
  9081  1D73  2D75               	goto	u4961
  9082  1D74  2D76               	goto	u4960
  9083  1D75                     u4961:
  9084  1D75  2D78               	goto	l9348
  9085  1D76                     u4960:
  9086                           	
  9087  1D76                     l9346:	
  9088  1D76  1003               	clrc
  9089                           	
  9090  1D77  2D7B               	goto	l5259
  9091                           	
  9092  1D78                     l8798:	
  9093                           	
  9094  1D78                     l9348:	
  9095  1D78  1403               	setc
  9096                           	
  9097  1D79  2D7B               	goto	l5259
  9098                           	
  9099  1D7A                     l8800:	
  9100  1D7A  2D7B               	goto	l5259
  9101                           	
  9102  1D7B                     l9350:	
  9103                           	line	13
  9104                           	
  9105  1D7B                     l5259:	
  9106  1D7B  0008               	return
  9107                           	opt stack 0
  9108                           GLOBAL	__end_of___ftge
  9109  1D7C                     	__end_of___ftge:
  9110 ;; =============== function ___ftge ends ============
  9111                           
  9112                           	signat	___ftge,8312
  9113                           	global	___ftneg
  9114                           psect	text948,local,class=CODE,delta=2
  9115                           global __ptext948
  9116  1993                     __ptext948:
  9117                           
  9118 ;; *************** function ___ftneg *****************
  9119 ;; Defined at:
  9120 ;;		line 16 in file "C:\Program Files (x86)\HI-TECH Software\PICC\9.82\sources\ftneg.c"
  9121 ;; Parameters:    Size  Location     Type
  9122 ;;  f1              3    0[BANK1 ] float 
  9123 ;; Auto vars:     Size  Location     Type
  9124 ;;		None
  9125 ;; Return value:  Size  Location     Type
  9126 ;;                  3    0[BANK1 ] float 
  9127 ;; Registers used:
  9128 ;;		wreg
  9129 ;; Tracked objects:
  9130 ;;		On entry : 0/0
  9131 ;;		On exit  : 0/0
  9132 ;;		Unchanged: 0/0
  9133 ;; Data sizes:     COMMON   BANK0   BANK1   BANK3   BANK2
  9134 ;;      Params:         0       0       3       0       0
  9135 ;;      Locals:         0       0       0       0       0
  9136 ;;      Temps:          0       0       0       0       0
  9137 ;;      Totals:         0       0       3       0       0
  9138 ;;Total ram usage:        3 bytes
  9139 ;; Hardware stack levels used:    1
  9140 ;; Hardware stack levels required when called:    4
  9141 ;; This function calls:
  9142 ;;		Nothing
  9143 ;; This function is called by:
  9144 ;;		_sprintf
  9145 ;; This function uses a non-reentrant model
  9146 ;;
  9147                           psect	text948
  9148                           	file	"C:\Program Files (x86)\HI-TECH Software\PICC\9.82\sources\ftneg.c"
  9149                           	line	16
  9150                           	global	__size_of___ftneg
  9151  000E                     	__size_of___ftneg	equ	__end_of___ftneg-___ftneg
  9152                           	
  9153  1993                     ___ftneg:	
  9154                           	opt	stack 1
  9155                           ; Regs used in ___ftneg: [wreg]
  9156                           	line	17
  9157                           	
  9158  1993                     l9324:	
  9159  1993  1683               	bsf	status, 5	;RP0=1, select bank1
  9160  1994  1303               	bcf	status, 6	;RP1=0, select bank1
  9161  1995  0822               	movf	(___ftneg@f1+2)^080h,w
  9162  1996  0421               	iorwf	(___ftneg@f1+1)^080h,w
  9163  1997  0420               	iorwf	(___ftneg@f1)^080h,w
  9164  1998  1903               	skipnz
  9165  1999  299B               	goto	u4911
  9166  199A  299C               	goto	u4910
  9167  199B                     u4911:
  9168  199B  299F               	goto	l9328
  9169  199C                     u4910:
  9170                           	line	18
  9171                           	
  9172  199C                     l9326:	
  9173  199C  3080               	movlw	080h
  9174  199D  06A2               	xorwf	(___ftneg@f1+2)^080h,f
  9175  199E  299F               	goto	l9328
  9176                           	
  9177  199F                     l5253:	
  9178                           	line	19
  9179                           	
  9180  199F                     l9328:	
  9181  199F  29A0               	goto	l5254
  9182                           	
  9183  19A0                     l9330:	
  9184                           	line	20
  9185                           	
  9186  19A0                     l5254:	
  9187  19A0  0008               	return
  9188                           	opt stack 0
  9189                           GLOBAL	__end_of___ftneg
  9190  19A1                     	__end_of___ftneg:
  9191 ;; =============== function ___ftneg ends ============
  9192                           
  9193                           	signat	___ftneg,4219
  9194                           	global	___llmod
  9195                           psect	text949,local,class=CODE,delta=2
  9196                           global __ptext949
  9197  1C48                     __ptext949:
  9198                           
  9199 ;; *************** function ___llmod *****************
  9200 ;; Defined at:
  9201 ;;		line 5 in file "C:\Program Files (x86)\HI-TECH Software\PICC\9.82\sources\llmod.c"
  9202 ;; Parameters:    Size  Location     Type
  9203 ;;  divisor         4   14[BANK1 ] unsigned long 
  9204 ;;  dividend        4   18[BANK1 ] unsigned long 
  9205 ;; Auto vars:     Size  Location     Type
  9206 ;;  counter         1   23[BANK1 ] unsigned char 
  9207 ;; Return value:  Size  Location     Type
  9208 ;;                  4   14[BANK1 ] unsigned long 
  9209 ;; Registers used:
  9210 ;;		wreg, status,2, status,0
  9211 ;; Tracked objects:
  9212 ;;		On entry : 0/0
  9213 ;;		On exit  : 0/0
  9214 ;;		Unchanged: 0/0
  9215 ;; Data sizes:     COMMON   BANK0   BANK1   BANK3   BANK2
  9216 ;;      Params:         0       0       8       0       0
  9217 ;;      Locals:         0       0       1       0       0
  9218 ;;      Temps:          0       0       1       0       0
  9219 ;;      Totals:         0       0      10       0       0
  9220 ;;Total ram usage:       10 bytes
  9221 ;; Hardware stack levels used:    1
  9222 ;; Hardware stack levels required when called:    4
  9223 ;; This function calls:
  9224 ;;		Nothing
  9225 ;; This function is called by:
  9226 ;;		_sprintf
  9227 ;; This function uses a non-reentrant model
  9228 ;;
  9229                           psect	text949
  9230                           	file	"C:\Program Files (x86)\HI-TECH Software\PICC\9.82\sources\llmod.c"
  9231                           	line	5
  9232                           	global	__size_of___llmod
  9233  005E                     	__size_of___llmod	equ	__end_of___llmod-___llmod
  9234                           	
  9235  1C48                     ___llmod:	
  9236                           	opt	stack 1
  9237                           ; Regs used in ___llmod: [wreg+status,2+status,0]
  9238                           	line	8
  9239                           	
  9240  1C48                     l9304:	
  9241  1C48  1683               	bsf	status, 5	;RP0=1, select bank1
  9242  1C49  1303               	bcf	status, 6	;RP1=0, select bank1
  9243  1C4A  0831               	movf	(___llmod@divisor+3)^080h,w
  9244  1C4B  0430               	iorwf	(___llmod@divisor+2)^080h,w
  9245  1C4C  042F               	iorwf	(___llmod@divisor+1)^080h,w
  9246  1C4D  042E               	iorwf	(___llmod@divisor)^080h,w
  9247  1C4E  1903               	skipnz
  9248  1C4F  2C51               	goto	u4851
  9249  1C50  2C52               	goto	u4850
  9250  1C51                     u4851:
  9251  1C51  2C9C               	goto	l9320
  9252  1C52                     u4850:
  9253                           	line	9
  9254                           	
  9255  1C52                     l9306:	
  9256  1C52  01B7               	clrf	(___llmod@counter)^080h
  9257  1C53  1403               	bsf	status,0
  9258  1C54  0DB7               	rlf	(___llmod@counter)^080h,f
  9259                           	line	10
  9260  1C55  2C64               	goto	l9310
  9261                           	
  9262  1C56                     l5245:	
  9263                           	line	11
  9264                           	
  9265  1C56                     l9308:	
  9266  1C56  3001               	movlw	01h
  9267  1C57  00B6               	movwf	(??___llmod+0)^080h+0
  9268  1C58                     u4865:
  9269  1C58  1003               	clrc
  9270  1C59  0DAE               	rlf	(___llmod@divisor)^080h,f
  9271  1C5A  0DAF               	rlf	(___llmod@divisor+1)^080h,f
  9272  1C5B  0DB0               	rlf	(___llmod@divisor+2)^080h,f
  9273  1C5C  0DB1               	rlf	(___llmod@divisor+3)^080h,f
  9274  1C5D  0BB6               	decfsz	(??___llmod+0)^080h+0
  9275  1C5E  2C58               	goto	u4865
  9276                           	line	12
  9277  1C5F  3001               	movlw	(01h)
  9278  1C60  00B6               	movwf	(??___llmod+0)^080h+0
  9279  1C61  0836               	movf	(??___llmod+0)^080h+0,w
  9280  1C62  07B7               	addwf	(___llmod@counter)^080h,f
  9281  1C63  2C64               	goto	l9310
  9282                           	line	13
  9283                           	
  9284  1C64                     l5244:	
  9285                           	line	10
  9286                           	
  9287  1C64                     l9310:	
  9288  1C64  1FB1               	btfss	(___llmod@divisor+3)^080h,(31)&7
  9289  1C65  2C67               	goto	u4871
  9290  1C66  2C68               	goto	u4870
  9291  1C67                     u4871:
  9292  1C67  2C56               	goto	l9308
  9293  1C68                     u4870:
  9294  1C68  2C6A               	goto	l9312
  9295                           	
  9296  1C69                     l5246:	
  9297  1C69  2C6A               	goto	l9312
  9298                           	line	14
  9299                           	
  9300  1C6A                     l5247:	
  9301                           	line	15
  9302                           	
  9303  1C6A                     l9312:	
  9304  1C6A  0831               	movf	(___llmod@divisor+3)^080h,w
  9305  1C6B  0235               	subwf	(___llmod@dividend+3)^080h,w
  9306  1C6C  1D03               	skipz
  9307  1C6D  2C78               	goto	u4885
  9308  1C6E  0830               	movf	(___llmod@divisor+2)^080h,w
  9309  1C6F  0234               	subwf	(___llmod@dividend+2)^080h,w
  9310  1C70  1D03               	skipz
  9311  1C71  2C78               	goto	u4885
  9312  1C72  082F               	movf	(___llmod@divisor+1)^080h,w
  9313  1C73  0233               	subwf	(___llmod@dividend+1)^080h,w
  9314  1C74  1D03               	skipz
  9315  1C75  2C78               	goto	u4885
  9316  1C76  082E               	movf	(___llmod@divisor)^080h,w
  9317  1C77  0232               	subwf	(___llmod@dividend)^080h,w
  9318  1C78                     u4885:
  9319  1C78  1C03               	skipc
  9320  1C79  2C7B               	goto	u4881
  9321  1C7A  2C7C               	goto	u4880
  9322  1C7B                     u4881:
  9323  1C7B  2C8B               	goto	l9316
  9324  1C7C                     u4880:
  9325                           	line	16
  9326                           	
  9327  1C7C                     l9314:	
  9328  1C7C  082E               	movf	(___llmod@divisor)^080h,w
  9329  1C7D  02B2               	subwf	(___llmod@dividend)^080h,f
  9330  1C7E  082F               	movf	(___llmod@divisor+1)^080h,w
  9331  1C7F  1C03               	skipc
  9332  1C80  0F2F               	incfsz	(___llmod@divisor+1)^080h,w
  9333  1C81  02B3               	subwf	(___llmod@dividend+1)^080h,f
  9334  1C82  0830               	movf	(___llmod@divisor+2)^080h,w
  9335  1C83  1C03               	skipc
  9336  1C84  0F30               	incfsz	(___llmod@divisor+2)^080h,w
  9337  1C85  02B4               	subwf	(___llmod@dividend+2)^080h,f
  9338  1C86  0831               	movf	(___llmod@divisor+3)^080h,w
  9339  1C87  1C03               	skipc
  9340  1C88  0F31               	incfsz	(___llmod@divisor+3)^080h,w
  9341  1C89  02B5               	subwf	(___llmod@dividend+3)^080h,f
  9342  1C8A  2C8B               	goto	l9316
  9343                           	
  9344  1C8B                     l5248:	
  9345                           	line	17
  9346                           	
  9347  1C8B                     l9316:	
  9348  1C8B  3001               	movlw	01h
  9349  1C8C                     u4895:
  9350  1C8C  1003               	clrc
  9351  1C8D  0CB1               	rrf	(___llmod@divisor+3)^080h,f
  9352  1C8E  0CB0               	rrf	(___llmod@divisor+2)^080h,f
  9353  1C8F  0CAF               	rrf	(___llmod@divisor+1)^080h,f
  9354  1C90  0CAE               	rrf	(___llmod@divisor)^080h,f
  9355  1C91  3EFF               	addlw	-1
  9356  1C92  1D03               	skipz
  9357  1C93  2C8C               	goto	u4895
  9358                           
  9359                           	line	18
  9360                           	
  9361  1C94                     l9318:	
  9362  1C94  3001               	movlw	low(01h)
  9363  1C95  02B7               	subwf	(___llmod@counter)^080h,f
  9364  1C96  1D03               	btfss	status,2
  9365  1C97  2C99               	goto	u4901
  9366  1C98  2C9A               	goto	u4900
  9367  1C99                     u4901:
  9368  1C99  2C6A               	goto	l9312
  9369  1C9A                     u4900:
  9370  1C9A  2C9C               	goto	l9320
  9371                           	
  9372  1C9B                     l5249:	
  9373  1C9B  2C9C               	goto	l9320
  9374                           	line	19
  9375                           	
  9376  1C9C                     l5243:	
  9377                           	line	20
  9378                           	
  9379  1C9C                     l9320:	
  9380  1C9C  0835               	movf	(___llmod@dividend+3)^080h,w
  9381  1C9D  00B1               	movwf	(?___llmod+3)^080h
  9382  1C9E  0834               	movf	(___llmod@dividend+2)^080h,w
  9383  1C9F  00B0               	movwf	(?___llmod+2)^080h
  9384  1CA0  0833               	movf	(___llmod@dividend+1)^080h,w
  9385  1CA1  00AF               	movwf	(?___llmod+1)^080h
  9386  1CA2  0832               	movf	(___llmod@dividend)^080h,w
  9387  1CA3  00AE               	movwf	(?___llmod)^080h
  9388                           
  9389  1CA4  2CA5               	goto	l5250
  9390                           	
  9391  1CA5                     l9322:	
  9392                           	line	21
  9393                           	
  9394  1CA5                     l5250:	
  9395  1CA5  0008               	return
  9396                           	opt stack 0
  9397                           GLOBAL	__end_of___llmod
  9398  1CA6                     	__end_of___llmod:
  9399 ;; =============== function ___llmod ends ============
  9400                           
  9401                           	signat	___llmod,8316
  9402                           	global	___awdiv
  9403                           psect	text950,local,class=CODE,delta=2
  9404                           global __ptext950
  9405  1DEC                     __ptext950:
  9406                           
  9407 ;; *************** function ___awdiv *****************
  9408 ;; Defined at:
  9409 ;;		line 5 in file "C:\Program Files (x86)\HI-TECH Software\PICC\9.82\sources\awdiv.c"
  9410 ;; Parameters:    Size  Location     Type
  9411 ;;  divisor         2    7[BANK1 ] int 
  9412 ;;  dividend        2    9[BANK1 ] int 
  9413 ;; Auto vars:     Size  Location     Type
  9414 ;;  quotient        2   14[BANK1 ] int 
  9415 ;;  sign            1   13[BANK1 ] unsigned char 
  9416 ;;  counter         1   12[BANK1 ] unsigned char 
  9417 ;; Return value:  Size  Location     Type
  9418 ;;                  2    7[BANK1 ] int 
  9419 ;; Registers used:
  9420 ;;		wreg, status,2, status,0
  9421 ;; Tracked objects:
  9422 ;;		On entry : 0/0
  9423 ;;		On exit  : 0/0
  9424 ;;		Unchanged: 0/0
  9425 ;; Data sizes:     COMMON   BANK0   BANK1   BANK3   BANK2
  9426 ;;      Params:         0       0       4       0       0
  9427 ;;      Locals:         0       0       4       0       0
  9428 ;;      Temps:          0       0       1       0       0
  9429 ;;      Totals:         0       0       9       0       0
  9430 ;;Total ram usage:        9 bytes
  9431 ;; Hardware stack levels used:    1
  9432 ;; Hardware stack levels required when called:    4
  9433 ;; This function calls:
  9434 ;;		Nothing
  9435 ;; This function is called by:
  9436 ;;		_fround
  9437 ;;		_scale
  9438 ;;		_sprintf
  9439 ;; This function uses a non-reentrant model
  9440 ;;
  9441                           psect	text950
  9442                           	file	"C:\Program Files (x86)\HI-TECH Software\PICC\9.82\sources\awdiv.c"
  9443                           	line	5
  9444                           	global	__size_of___awdiv
  9445  0076                     	__size_of___awdiv	equ	__end_of___awdiv-___awdiv
  9446                           	
  9447  1DEC                     ___awdiv:	
  9448                           	opt	stack 0
  9449                           ; Regs used in ___awdiv: [wreg+status,2+status,0]
  9450                           	line	9
  9451                           	
  9452  1DEC                     l9264:	
  9453  1DEC  1683               	bsf	status, 5	;RP0=1, select bank1
  9454  1DED  1303               	bcf	status, 6	;RP1=0, select bank1
  9455  1DEE  01AD               	clrf	(___awdiv@sign)^080h
  9456                           	line	10
  9457  1DEF  1FA8               	btfss	(___awdiv@divisor+1)^080h,7
  9458  1DF0  2DF2               	goto	u4751
  9459  1DF1  2DF3               	goto	u4750
  9460  1DF2                     u4751:
  9461  1DF2  2DFC               	goto	l9268
  9462  1DF3                     u4750:
  9463                           	line	11
  9464                           	
  9465  1DF3                     l9266:	
  9466  1DF3  09A7               	comf	(___awdiv@divisor)^080h,f
  9467  1DF4  09A8               	comf	(___awdiv@divisor+1)^080h,f
  9468  1DF5  0AA7               	incf	(___awdiv@divisor)^080h,f
  9469  1DF6  1903               	skipnz
  9470  1DF7  0AA8               	incf	(___awdiv@divisor+1)^080h,f
  9471                           	line	12
  9472  1DF8  01AD               	clrf	(___awdiv@sign)^080h
  9473  1DF9  1403               	bsf	status,0
  9474  1DFA  0DAD               	rlf	(___awdiv@sign)^080h,f
  9475  1DFB  2DFC               	goto	l9268
  9476                           	line	13
  9477                           	
  9478  1DFC                     l5230:	
  9479                           	line	14
  9480                           	
  9481  1DFC                     l9268:	
  9482  1DFC  1FAA               	btfss	(___awdiv@dividend+1)^080h,7
  9483  1DFD  2DFF               	goto	u4761
  9484  1DFE  2E00               	goto	u4760
  9485  1DFF                     u4761:
  9486  1DFF  2E0A               	goto	l9274
  9487  1E00                     u4760:
  9488                           	line	15
  9489                           	
  9490  1E00                     l9270:	
  9491  1E00  09A9               	comf	(___awdiv@dividend)^080h,f
  9492  1E01  09AA               	comf	(___awdiv@dividend+1)^080h,f
  9493  1E02  0AA9               	incf	(___awdiv@dividend)^080h,f
  9494  1E03  1903               	skipnz
  9495  1E04  0AAA               	incf	(___awdiv@dividend+1)^080h,f
  9496                           	line	16
  9497                           	
  9498  1E05                     l9272:	
  9499  1E05  3001               	movlw	(01h)
  9500  1E06  00AB               	movwf	(??___awdiv+0)^080h+0
  9501  1E07  082B               	movf	(??___awdiv+0)^080h+0,w
  9502  1E08  06AD               	xorwf	(___awdiv@sign)^080h,f
  9503  1E09  2E0A               	goto	l9274
  9504                           	line	17
  9505                           	
  9506  1E0A                     l5231:	
  9507                           	line	18
  9508                           	
  9509  1E0A                     l9274:	
  9510  1E0A  01AE               	clrf	(___awdiv@quotient)^080h
  9511  1E0B  01AF               	clrf	(___awdiv@quotient+1)^080h
  9512                           	line	19
  9513                           	
  9514  1E0C                     l9276:	
  9515  1E0C  0828               	movf	(___awdiv@divisor+1)^080h,w
  9516  1E0D  0427               	iorwf	(___awdiv@divisor)^080h,w
  9517  1E0E  1903               	skipnz
  9518  1E0F  2E11               	goto	u4771
  9519  1E10  2E12               	goto	u4770
  9520  1E11                     u4771:
  9521  1E11  2E50               	goto	l9296
  9522  1E12                     u4770:
  9523                           	line	20
  9524                           	
  9525  1E12                     l9278:	
  9526  1E12  01AC               	clrf	(___awdiv@counter)^080h
  9527  1E13  1403               	bsf	status,0
  9528  1E14  0DAC               	rlf	(___awdiv@counter)^080h,f
  9529                           	line	21
  9530  1E15  2E22               	goto	l9284
  9531                           	
  9532  1E16                     l5234:	
  9533                           	line	22
  9534                           	
  9535  1E16                     l9280:	
  9536  1E16  3001               	movlw	01h
  9537                           	
  9538  1E17                     u4785:
  9539  1E17  1003               	clrc
  9540  1E18  0DA7               	rlf	(___awdiv@divisor)^080h,f
  9541  1E19  0DA8               	rlf	(___awdiv@divisor+1)^080h,f
  9542  1E1A  3EFF               	addlw	-1
  9543  1E1B  1D03               	skipz
  9544  1E1C  2E17               	goto	u4785
  9545                           	line	23
  9546                           	
  9547  1E1D                     l9282:	
  9548  1E1D  3001               	movlw	(01h)
  9549  1E1E  00AB               	movwf	(??___awdiv+0)^080h+0
  9550  1E1F  082B               	movf	(??___awdiv+0)^080h+0,w
  9551  1E20  07AC               	addwf	(___awdiv@counter)^080h,f
  9552  1E21  2E22               	goto	l9284
  9553                           	line	24
  9554                           	
  9555  1E22                     l5233:	
  9556                           	line	21
  9557                           	
  9558  1E22                     l9284:	
  9559  1E22  1FA8               	btfss	(___awdiv@divisor+1)^080h,(15)&7
  9560  1E23  2E25               	goto	u4791
  9561  1E24  2E26               	goto	u4790
  9562  1E25                     u4791:
  9563  1E25  2E16               	goto	l9280
  9564  1E26                     u4790:
  9565  1E26  2E28               	goto	l9286
  9566                           	
  9567  1E27                     l5235:	
  9568  1E27  2E28               	goto	l9286
  9569                           	line	25
  9570                           	
  9571  1E28                     l5236:	
  9572                           	line	26
  9573                           	
  9574  1E28                     l9286:	
  9575  1E28  3001               	movlw	01h
  9576                           	
  9577  1E29                     u4805:
  9578  1E29  1003               	clrc
  9579  1E2A  0DAE               	rlf	(___awdiv@quotient)^080h,f
  9580  1E2B  0DAF               	rlf	(___awdiv@quotient+1)^080h,f
  9581  1E2C  3EFF               	addlw	-1
  9582  1E2D  1D03               	skipz
  9583  1E2E  2E29               	goto	u4805
  9584                           	line	27
  9585  1E2F  0828               	movf	(___awdiv@divisor+1)^080h,w
  9586  1E30  022A               	subwf	(___awdiv@dividend+1)^080h,w
  9587  1E31  1D03               	skipz
  9588  1E32  2E35               	goto	u4815
  9589  1E33  0827               	movf	(___awdiv@divisor)^080h,w
  9590  1E34  0229               	subwf	(___awdiv@dividend)^080h,w
  9591  1E35                     u4815:
  9592  1E35  1C03               	skipc
  9593  1E36  2E38               	goto	u4811
  9594  1E37  2E39               	goto	u4810
  9595  1E38                     u4811:
  9596  1E38  2E41               	goto	l9292
  9597  1E39                     u4810:
  9598                           	line	28
  9599                           	
  9600  1E39                     l9288:	
  9601  1E39  0827               	movf	(___awdiv@divisor)^080h,w
  9602  1E3A  02A9               	subwf	(___awdiv@dividend)^080h,f
  9603  1E3B  0828               	movf	(___awdiv@divisor+1)^080h,w
  9604  1E3C  1C03               	skipc
  9605  1E3D  03AA               	decf	(___awdiv@dividend+1)^080h,f
  9606  1E3E  02AA               	subwf	(___awdiv@dividend+1)^080h,f
  9607                           	line	29
  9608                           	
  9609  1E3F                     l9290:	
  9610  1E3F  142E               	bsf	(___awdiv@quotient)^080h+(0/8),(0)&7
  9611  1E40  2E41               	goto	l9292
  9612                           	line	30
  9613                           	
  9614  1E41                     l5237:	
  9615                           	line	31
  9616                           	
  9617  1E41                     l9292:	
  9618  1E41  3001               	movlw	01h
  9619                           	
  9620  1E42                     u4825:
  9621  1E42  1003               	clrc
  9622  1E43  0CA8               	rrf	(___awdiv@divisor+1)^080h,f
  9623  1E44  0CA7               	rrf	(___awdiv@divisor)^080h,f
  9624  1E45  3EFF               	addlw	-1
  9625  1E46  1D03               	skipz
  9626  1E47  2E42               	goto	u4825
  9627                           	line	32
  9628                           	
  9629  1E48                     l9294:	
  9630  1E48  3001               	movlw	low(01h)
  9631  1E49  02AC               	subwf	(___awdiv@counter)^080h,f
  9632  1E4A  1D03               	btfss	status,2
  9633  1E4B  2E4D               	goto	u4831
  9634  1E4C  2E4E               	goto	u4830
  9635  1E4D                     u4831:
  9636  1E4D  2E28               	goto	l9286
  9637  1E4E                     u4830:
  9638  1E4E  2E50               	goto	l9296
  9639                           	
  9640  1E4F                     l5238:	
  9641  1E4F  2E50               	goto	l9296
  9642                           	line	33
  9643                           	
  9644  1E50                     l5232:	
  9645                           	line	34
  9646                           	
  9647  1E50                     l9296:	
  9648  1E50  082D               	movf	(___awdiv@sign)^080h,w
  9649  1E51  1D03               	skipz
  9650  1E52  2E54               	goto	u4840
  9651  1E53  2E5A               	goto	l9300
  9652  1E54                     u4840:
  9653                           	line	35
  9654                           	
  9655  1E54                     l9298:	
  9656  1E54  09AE               	comf	(___awdiv@quotient)^080h,f
  9657  1E55  09AF               	comf	(___awdiv@quotient+1)^080h,f
  9658  1E56  0AAE               	incf	(___awdiv@quotient)^080h,f
  9659  1E57  1903               	skipnz
  9660  1E58  0AAF               	incf	(___awdiv@quotient+1)^080h,f
  9661  1E59  2E5A               	goto	l9300
  9662                           	
  9663  1E5A                     l5239:	
  9664                           	line	36
  9665                           	
  9666  1E5A                     l9300:	
  9667  1E5A  082F               	movf	(___awdiv@quotient+1)^080h,w
  9668  1E5B  01A8               	clrf	(?___awdiv+1)^080h
  9669  1E5C  07A8               	addwf	(?___awdiv+1)^080h
  9670  1E5D  082E               	movf	(___awdiv@quotient)^080h,w
  9671  1E5E  01A7               	clrf	(?___awdiv)^080h
  9672  1E5F  07A7               	addwf	(?___awdiv)^080h
  9673                           
  9674  1E60  2E61               	goto	l5240
  9675                           	
  9676  1E61                     l9302:	
  9677                           	line	37
  9678                           	
  9679  1E61                     l5240:	
  9680  1E61  0008               	return
  9681                           	opt stack 0
  9682                           GLOBAL	__end_of___awdiv
  9683  1E62                     	__end_of___awdiv:
  9684 ;; =============== function ___awdiv ends ============
  9685                           
  9686                           	signat	___awdiv,8314
  9687                           	global	___fttol
  9688                           psect	text951,local,class=CODE,delta=2
  9689                           global __ptext951
  9690  1F5A                     __ptext951:
  9691                           
  9692 ;; *************** function ___fttol *****************
  9693 ;; Defined at:
  9694 ;;		line 45 in file "C:\Program Files (x86)\HI-TECH Software\PICC\9.82\sources\fttol.c"
  9695 ;; Parameters:    Size  Location     Type
  9696 ;;  f1              3   20[BANK1 ] float 
  9697 ;; Auto vars:     Size  Location     Type
  9698 ;;  lval            4   29[BANK1 ] unsigned long 
  9699 ;;  exp1            1   33[BANK1 ] unsigned char 
  9700 ;;  sign1           1   28[BANK1 ] unsigned char 
  9701 ;; Return value:  Size  Location     Type
  9702 ;;                  4   20[BANK1 ] long 
  9703 ;; Registers used:
  9704 ;;		wreg, status,2, status,0
  9705 ;; Tracked objects:
  9706 ;;		On entry : 0/0
  9707 ;;		On exit  : 0/0
  9708 ;;		Unchanged: 0/0
  9709 ;; Data sizes:     COMMON   BANK0   BANK1   BANK3   BANK2
  9710 ;;      Params:         0       0       4       0       0
  9711 ;;      Locals:         0       0       6       0       0
  9712 ;;      Temps:          0       0       4       0       0
  9713 ;;      Totals:         0       0      14       0       0
  9714 ;;Total ram usage:       14 bytes
  9715 ;; Hardware stack levels used:    1
  9716 ;; Hardware stack levels required when called:    4
  9717 ;; This function calls:
  9718 ;;		Nothing
  9719 ;; This function is called by:
  9720 ;;		_JY62_InfiniteYaw
  9721 ;;		_JY62_ShowData
  9722 ;;		_sprintf
  9723 ;; This function uses a non-reentrant model
  9724 ;;
  9725                           psect	text951
  9726                           	file	"C:\Program Files (x86)\HI-TECH Software\PICC\9.82\sources\fttol.c"
  9727                           	line	45
  9728                           	global	__size_of___fttol
  9729  00A6                     	__size_of___fttol	equ	__end_of___fttol-___fttol
  9730                           	
  9731  1F5A                     ___fttol:	
  9732                           	opt	stack 1
  9733                           ; Regs used in ___fttol: [wreg+status,2+status,0]
  9734                           	line	49
  9735                           	
  9736  1F5A                     l9208:	
  9737  1F5A  1683               	bsf	status, 5	;RP0=1, select bank1
  9738  1F5B  1303               	bcf	status, 6	;RP1=0, select bank1
  9739  1F5C  0834               	movf	(___fttol@f1)^080h,w
  9740  1F5D  00B8               	movwf	((??___fttol+0)^080h+0)
  9741  1F5E  0835               	movf	(___fttol@f1+1)^080h,w
  9742  1F5F  00B9               	movwf	((??___fttol+0)^080h+0+1)
  9743  1F60  0836               	movf	(___fttol@f1+2)^080h,w
  9744  1F61  00BA               	movwf	((??___fttol+0)^080h+0+2)
  9745  1F62  1003               	clrc
  9746  1F63  0D39               	rlf	(??___fttol+0)^080h+1,w
  9747  1F64  0D3A               	rlf	(??___fttol+0)^080h+2,w
  9748  1F65  00BB               	movwf	(??___fttol+3)^080h+0
  9749  1F66  083B               	movf	(??___fttol+3)^080h+0,w
  9750  1F67  00C1               	movwf	(___fttol@exp1)^080h
  9751  1F68  08C1               	movf	((___fttol@exp1)^080h),f
  9752  1F69  1D03               	skipz
  9753  1F6A  2F6C               	goto	u4641
  9754  1F6B  2F6D               	goto	u4640
  9755  1F6C                     u4641:
  9756  1F6C  2F77               	goto	l9214
  9757  1F6D                     u4640:
  9758                           	line	50
  9759                           	
  9760  1F6D                     l9210:	
  9761  1F6D  3000               	movlw	0
  9762  1F6E  00B7               	movwf	(?___fttol+3)^080h
  9763  1F6F  3000               	movlw	0
  9764  1F70  00B6               	movwf	(?___fttol+2)^080h
  9765  1F71  3000               	movlw	0
  9766  1F72  00B5               	movwf	(?___fttol+1)^080h
  9767  1F73  3000               	movlw	0
  9768  1F74  00B4               	movwf	(?___fttol)^080h
  9769                           
  9770  1F75  2FFF               	goto	l5200
  9771                           	
  9772  1F76                     l9212:	
  9773  1F76  2FFF               	goto	l5200
  9774                           	
  9775  1F77                     l5199:	
  9776                           	line	51
  9777                           	
  9778  1F77                     l9214:	
  9779  1F77  0834               	movf	(___fttol@f1)^080h,w
  9780  1F78  00B8               	movwf	((??___fttol+0)^080h+0)
  9781  1F79  0835               	movf	(___fttol@f1+1)^080h,w
  9782  1F7A  00B9               	movwf	((??___fttol+0)^080h+0+1)
  9783  1F7B  0836               	movf	(___fttol@f1+2)^080h,w
  9784  1F7C  00BA               	movwf	((??___fttol+0)^080h+0+2)
  9785  1F7D  3017               	movlw	017h
  9786  1F7E                     u4655:
  9787  1F7E  1003               	clrc
  9788  1F7F  0CBA               	rrf	(??___fttol+0)^080h+2,f
  9789  1F80  0CB9               	rrf	(??___fttol+0)^080h+1,f
  9790  1F81  0CB8               	rrf	(??___fttol+0)^080h+0,f
  9791  1F82                     u4650:
  9792  1F82  3EFF               	addlw	-1
  9793  1F83  1D03               	skipz
  9794  1F84  2F7E               	goto	u4655
  9795  1F85  0838               	movf	0+(??___fttol+0)^080h+0,w
  9796  1F86  00BB               	movwf	(??___fttol+3)^080h+0
  9797  1F87  083B               	movf	(??___fttol+3)^080h+0,w
  9798  1F88  00BC               	movwf	(___fttol@sign1)^080h
  9799                           	line	52
  9800                           	
  9801  1F89                     l9216:	
  9802  1F89  17B5               	bsf	(___fttol@f1)^080h+(15/8),(15)&7
  9803                           	line	53
  9804                           	
  9805  1F8A                     l9218:	
  9806  1F8A  30FF               	movlw	0FFh
  9807  1F8B  05B4               	andwf	(___fttol@f1)^080h,f
  9808  1F8C  30FF               	movlw	0FFh
  9809  1F8D  05B5               	andwf	(___fttol@f1+1)^080h,f
  9810  1F8E  3000               	movlw	0
  9811  1F8F  05B6               	andwf	(___fttol@f1+2)^080h,f
  9812                           	line	54
  9813                           	
  9814  1F90                     l9220:	
  9815  1F90  0834               	movf	(___fttol@f1)^080h,w
  9816  1F91  00BD               	movwf	(___fttol@lval)^080h
  9817  1F92  0835               	movf	(___fttol@f1+1)^080h,w
  9818  1F93  00BE               	movwf	((___fttol@lval)^080h)+1
  9819  1F94  0836               	movf	(___fttol@f1+2)^080h,w
  9820  1F95  00BF               	movwf	((___fttol@lval)^080h)+2
  9821  1F96  01C0               	clrf	((___fttol@lval)^080h)+3
  9822                           	line	55
  9823                           	
  9824  1F97                     l9222:	
  9825  1F97  308E               	movlw	low(08Eh)
  9826  1F98  02C1               	subwf	(___fttol@exp1)^080h,f
  9827                           	line	56
  9828                           	
  9829  1F99                     l9224:	
  9830  1F99  1FC1               	btfss	(___fttol@exp1)^080h,7
  9831  1F9A  2F9C               	goto	u4661
  9832  1F9B  2F9D               	goto	u4660
  9833  1F9C                     u4661:
  9834  1F9C  2FC2               	goto	l9234
  9835  1F9D                     u4660:
  9836                           	line	57
  9837                           	
  9838  1F9D                     l9226:	
  9839  1F9D  0841               	movf	(___fttol@exp1)^080h,w
  9840  1F9E  3A80               	xorlw	80h
  9841  1F9F  3E8F               	addlw	-((-15)^80h)
  9842  1FA0  1803               	skipnc
  9843  1FA1  2FA3               	goto	u4671
  9844  1FA2  2FA4               	goto	u4670
  9845  1FA3                     u4671:
  9846  1FA3  2FAF               	goto	l9232
  9847  1FA4                     u4670:
  9848                           	line	58
  9849                           	
  9850  1FA4                     l9228:	
  9851  1FA4  3000               	movlw	0
  9852  1FA5  00B7               	movwf	(?___fttol+3)^080h
  9853  1FA6  3000               	movlw	0
  9854  1FA7  00B6               	movwf	(?___fttol+2)^080h
  9855  1FA8  3000               	movlw	0
  9856  1FA9  00B5               	movwf	(?___fttol+1)^080h
  9857  1FAA  3000               	movlw	0
  9858  1FAB  00B4               	movwf	(?___fttol)^080h
  9859                           
  9860  1FAC  2FFF               	goto	l5200
  9861                           	
  9862  1FAD                     l9230:	
  9863  1FAD  2FFF               	goto	l5200
  9864                           	
  9865  1FAE                     l5202:	
  9866  1FAE  2FAF               	goto	l9232
  9867                           	line	59
  9868                           	
  9869  1FAF                     l5203:	
  9870                           	line	60
  9871                           	
  9872  1FAF                     l9232:	
  9873  1FAF  3001               	movlw	01h
  9874  1FB0                     u4685:
  9875  1FB0  1003               	clrc
  9876  1FB1  0CC0               	rrf	(___fttol@lval+3)^080h,f
  9877  1FB2  0CBF               	rrf	(___fttol@lval+2)^080h,f
  9878  1FB3  0CBE               	rrf	(___fttol@lval+1)^080h,f
  9879  1FB4  0CBD               	rrf	(___fttol@lval)^080h,f
  9880  1FB5  3EFF               	addlw	-1
  9881  1FB6  1D03               	skipz
  9882  1FB7  2FB0               	goto	u4685
  9883                           
  9884                           	line	61
  9885  1FB8  3001               	movlw	(01h)
  9886  1FB9  00B8               	movwf	(??___fttol+0)^080h+0
  9887  1FBA  0838               	movf	(??___fttol+0)^080h+0,w
  9888  1FBB  07C1               	addwf	(___fttol@exp1)^080h,f
  9889  1FBC  1D03               	btfss	status,2
  9890  1FBD  2FBF               	goto	u4691
  9891  1FBE  2FC0               	goto	u4690
  9892  1FBF                     u4691:
  9893  1FBF  2FAF               	goto	l9232
  9894  1FC0                     u4690:
  9895  1FC0  2FE6               	goto	l9244
  9896                           	
  9897  1FC1                     l5204:	
  9898                           	line	62
  9899  1FC1  2FE6               	goto	l9244
  9900                           	
  9901  1FC2                     l5201:	
  9902                           	line	63
  9903                           	
  9904  1FC2                     l9234:	
  9905  1FC2  3018               	movlw	(018h)
  9906  1FC3  0241               	subwf	(___fttol@exp1)^080h,w
  9907  1FC4  1C03               	skipc
  9908  1FC5  2FC7               	goto	u4701
  9909  1FC6  2FC8               	goto	u4700
  9910  1FC7                     u4701:
  9911  1FC7  2FDF               	goto	l9242
  9912  1FC8                     u4700:
  9913                           	line	64
  9914                           	
  9915  1FC8                     l9236:	
  9916  1FC8  3000               	movlw	0
  9917  1FC9  00B7               	movwf	(?___fttol+3)^080h
  9918  1FCA  3000               	movlw	0
  9919  1FCB  00B6               	movwf	(?___fttol+2)^080h
  9920  1FCC  3000               	movlw	0
  9921  1FCD  00B5               	movwf	(?___fttol+1)^080h
  9922  1FCE  3000               	movlw	0
  9923  1FCF  00B4               	movwf	(?___fttol)^080h
  9924                           
  9925  1FD0  2FFF               	goto	l5200
  9926                           	
  9927  1FD1                     l9238:	
  9928  1FD1  2FFF               	goto	l5200
  9929                           	
  9930  1FD2                     l5206:	
  9931                           	line	65
  9932  1FD2  2FDF               	goto	l9242
  9933                           	
  9934  1FD3                     l5208:	
  9935                           	line	66
  9936                           	
  9937  1FD3                     l9240:	
  9938  1FD3  3001               	movlw	01h
  9939  1FD4  00B8               	movwf	(??___fttol+0)^080h+0
  9940  1FD5                     u4715:
  9941  1FD5  1003               	clrc
  9942  1FD6  0DBD               	rlf	(___fttol@lval)^080h,f
  9943  1FD7  0DBE               	rlf	(___fttol@lval+1)^080h,f
  9944  1FD8  0DBF               	rlf	(___fttol@lval+2)^080h,f
  9945  1FD9  0DC0               	rlf	(___fttol@lval+3)^080h,f
  9946  1FDA  0BB8               	decfsz	(??___fttol+0)^080h+0
  9947  1FDB  2FD5               	goto	u4715
  9948                           	line	67
  9949  1FDC  3001               	movlw	low(01h)
  9950  1FDD  02C1               	subwf	(___fttol@exp1)^080h,f
  9951  1FDE  2FDF               	goto	l9242
  9952                           	line	68
  9953                           	
  9954  1FDF                     l5207:	
  9955                           	line	65
  9956                           	
  9957  1FDF                     l9242:	
  9958  1FDF  08C1               	movf	(___fttol@exp1)^080h,f
  9959  1FE0  1D03               	skipz
  9960  1FE1  2FE3               	goto	u4721
  9961  1FE2  2FE4               	goto	u4720
  9962  1FE3                     u4721:
  9963  1FE3  2FD3               	goto	l9240
  9964  1FE4                     u4720:
  9965  1FE4  2FE6               	goto	l9244
  9966                           	
  9967  1FE5                     l5209:	
  9968  1FE5  2FE6               	goto	l9244
  9969                           	line	69
  9970                           	
  9971  1FE6                     l5205:	
  9972                           	line	70
  9973                           	
  9974  1FE6                     l9244:	
  9975  1FE6  083C               	movf	(___fttol@sign1)^080h,w
  9976  1FE7  1D03               	skipz
  9977  1FE8  2FEA               	goto	u4730
  9978  1FE9  2FF6               	goto	l9248
  9979  1FEA                     u4730:
  9980                           	line	71
  9981                           	
  9982  1FEA                     l9246:	
  9983  1FEA  09BD               	comf	(___fttol@lval)^080h,f
  9984  1FEB  09BE               	comf	(___fttol@lval+1)^080h,f
  9985  1FEC  09BF               	comf	(___fttol@lval+2)^080h,f
  9986  1FED  09C0               	comf	(___fttol@lval+3)^080h,f
  9987  1FEE  0ABD               	incf	(___fttol@lval)^080h,f
  9988  1FEF  1903               	skipnz
  9989  1FF0  0ABE               	incf	(___fttol@lval+1)^080h,f
  9990  1FF1  1903               	skipnz
  9991  1FF2  0ABF               	incf	(___fttol@lval+2)^080h,f
  9992  1FF3  1903               	skipnz
  9993  1FF4  0AC0               	incf	(___fttol@lval+3)^080h,f
  9994  1FF5  2FF6               	goto	l9248
  9995                           	
  9996  1FF6                     l5210:	
  9997                           	line	72
  9998                           	
  9999  1FF6                     l9248:	
 10000  1FF6  0840               	movf	(___fttol@lval+3)^080h,w
 10001  1FF7  00B7               	movwf	(?___fttol+3)^080h
 10002  1FF8  083F               	movf	(___fttol@lval+2)^080h,w
 10003  1FF9  00B6               	movwf	(?___fttol+2)^080h
 10004  1FFA  083E               	movf	(___fttol@lval+1)^080h,w
 10005  1FFB  00B5               	movwf	(?___fttol+1)^080h
 10006  1FFC  083D               	movf	(___fttol@lval)^080h,w
 10007  1FFD  00B4               	movwf	(?___fttol)^080h
 10008                           
 10009  1FFE  2FFF               	goto	l5200
 10010                           	
 10011  1FFF                     l9250:	
 10012                           	line	73
 10013                           	
 10014  1FFF                     l5200:	
 10015  1FFF  0008               	return
 10016                           	opt stack 0
 10017                           GLOBAL	__end_of___fttol
 10018  2000                     	__end_of___fttol:
 10019 ;; =============== function ___fttol ends ============
 10020                           
 10021                           	signat	___fttol,4220
 10022                           	global	___ftpack
 10023                           psect	text952,local,class=CODE,delta=2
 10024                           global __ptext952
 10025  1EDD                     __ptext952:
 10026                           
 10027 ;; *************** function ___ftpack *****************
 10028 ;; Defined at:
 10029 ;;		line 63 in file "C:\Program Files (x86)\HI-TECH Software\PICC\9.82\sources\float.c"
 10030 ;; Parameters:    Size  Location     Type
 10031 ;;  arg             3    0[BANK1 ] unsigned um
 10032 ;;  exp             1    3[BANK1 ] unsigned char 
 10033 ;;  sign            1    4[BANK1 ] unsigned char 
 10034 ;; Auto vars:     Size  Location     Type
 10035 ;;		None
 10036 ;; Return value:  Size  Location     Type
 10037 ;;                  3    0[BANK1 ] float 
 10038 ;; Registers used:
 10039 ;;		wreg, status,2, status,0
 10040 ;; Tracked objects:
 10041 ;;		On entry : 0/0
 10042 ;;		On exit  : 0/0
 10043 ;;		Unchanged: 0/0
 10044 ;; Data sizes:     COMMON   BANK0   BANK1   BANK3   BANK2
 10045 ;;      Params:         0       0       5       0       0
 10046 ;;      Locals:         0       0       0       0       0
 10047 ;;      Temps:          0       0       3       0       0
 10048 ;;      Totals:         0       0       8       0       0
 10049 ;;Total ram usage:        8 bytes
 10050 ;; Hardware stack levels used:    1
 10051 ;; Hardware stack levels required when called:    4
 10052 ;; This function calls:
 10053 ;;		Nothing
 10054 ;; This function is called by:
 10055 ;;		___ftadd
 10056 ;;		___ftmul
 10057 ;;		___awtoft
 10058 ;;		___lltoft
 10059 ;;		___lbtoft
 10060 ;;		___abtoft
 10061 ;;		___lwtoft
 10062 ;;		___altoft
 10063 ;;		___attoft
 10064 ;;		___lttoft
 10065 ;; This function uses a non-reentrant model
 10066 ;;
 10067                           psect	text952
 10068                           	file	"C:\Program Files (x86)\HI-TECH Software\PICC\9.82\sources\float.c"
 10069                           	line	63
 10070                           	global	__size_of___ftpack
 10071  007D                     	__size_of___ftpack	equ	__end_of___ftpack-___ftpack
 10072                           	
 10073  1EDD                     ___ftpack:	
 10074 ;; hardware stack exceeded
 10075                           	opt	stack 0
 10076                           ; Regs used in ___ftpack: [wreg+status,2+status,0]
 10077                           	line	64
 10078                           	
 10079  1EDD                     l9136:	
 10080  1EDD  1683               	bsf	status, 5	;RP0=1, select bank1
 10081  1EDE  1303               	bcf	status, 6	;RP1=0, select bank1
 10082  1EDF  0823               	movf	(___ftpack@exp)^080h,w
 10083  1EE0  1D03               	skipz
 10084  1EE1  2EE3               	goto	u4450
 10085  1EE2  2EEB               	goto	l9140
 10086  1EE3                     u4450:
 10087                           	
 10088  1EE3                     l9138:	
 10089  1EE3  0822               	movf	(___ftpack@arg+2)^080h,w
 10090  1EE4  0421               	iorwf	(___ftpack@arg+1)^080h,w
 10091  1EE5  0420               	iorwf	(___ftpack@arg)^080h,w
 10092  1EE6  1D03               	skipz
 10093  1EE7  2EE9               	goto	u4461
 10094  1EE8  2EEA               	goto	u4460
 10095  1EE9                     u4461:
 10096  1EE9  2F01               	goto	l9146
 10097  1EEA                     u4460:
 10098  1EEA  2EEB               	goto	l9140
 10099                           	
 10100  1EEB                     l5458:	
 10101                           	line	65
 10102                           	
 10103  1EEB                     l9140:	
 10104  1EEB  3000               	movlw	0x0
 10105  1EEC  00A0               	movwf	(?___ftpack)^080h
 10106  1EED  3000               	movlw	0x0
 10107  1EEE  00A1               	movwf	(?___ftpack+1)^080h
 10108  1EEF  3000               	movlw	0x0
 10109  1EF0  00A2               	movwf	(?___ftpack+2)^080h
 10110  1EF1  2F59               	goto	l5459
 10111                           	
 10112  1EF2                     l9142:	
 10113  1EF2  2F59               	goto	l5459
 10114                           	
 10115  1EF3                     l5456:	
 10116                           	line	66
 10117  1EF3  2F01               	goto	l9146
 10118                           	
 10119  1EF4                     l5461:	
 10120                           	line	67
 10121                           	
 10122  1EF4                     l9144:	
 10123  1EF4  3001               	movlw	(01h)
 10124  1EF5  00A5               	movwf	(??___ftpack+0)^080h+0
 10125  1EF6  0825               	movf	(??___ftpack+0)^080h+0,w
 10126  1EF7  07A3               	addwf	(___ftpack@exp)^080h,f
 10127                           	line	68
 10128  1EF8  3001               	movlw	01h
 10129  1EF9                     u4475:
 10130  1EF9  1003               	clrc
 10131  1EFA  0CA2               	rrf	(___ftpack@arg+2)^080h,f
 10132  1EFB  0CA1               	rrf	(___ftpack@arg+1)^080h,f
 10133  1EFC  0CA0               	rrf	(___ftpack@arg)^080h,f
 10134  1EFD  3EFF               	addlw	-1
 10135  1EFE  1D03               	skipz
 10136  1EFF  2EF9               	goto	u4475
 10137                           
 10138  1F00  2F01               	goto	l9146
 10139                           	line	69
 10140                           	
 10141  1F01                     l5460:	
 10142                           	line	66
 10143                           	
 10144  1F01                     l9146:	
 10145  1F01  30FE               	movlw	low highword(0FE0000h)
 10146  1F02  0522               	andwf	(___ftpack@arg+2)^080h,w
 10147  1F03  1D03               	btfss	status,2
 10148  1F04  2F06               	goto	u4481
 10149  1F05  2F07               	goto	u4480
 10150  1F06                     u4481:
 10151  1F06  2EF4               	goto	l9144
 10152  1F07                     u4480:
 10153  1F07  2F1F               	goto	l5463
 10154                           	
 10155  1F08                     l5462:	
 10156                           	line	70
 10157  1F08  2F1F               	goto	l5463
 10158                           	
 10159  1F09                     l5464:	
 10160                           	line	71
 10161                           	
 10162  1F09                     l9148:	
 10163  1F09  3001               	movlw	(01h)
 10164  1F0A  00A5               	movwf	(??___ftpack+0)^080h+0
 10165  1F0B  0825               	movf	(??___ftpack+0)^080h+0,w
 10166  1F0C  07A3               	addwf	(___ftpack@exp)^080h,f
 10167                           	line	72
 10168                           	
 10169  1F0D                     l9150:	
 10170  1F0D  3001               	movlw	01h
 10171  1F0E  07A0               	addwf	(___ftpack@arg)^080h,f
 10172  1F0F  3000               	movlw	0
 10173  1F10  1803               	skipnc
 10174  1F11  3001               movlw 1
 10175  1F12  07A1               	addwf	(___ftpack@arg+1)^080h,f
 10176  1F13  3000               	movlw	0
 10177  1F14  1803               	skipnc
 10178  1F15  3001               movlw 1
 10179  1F16  07A2               	addwf	(___ftpack@arg+2)^080h,f
 10180                           	line	73
 10181                           	
 10182  1F17                     l9152:	
 10183  1F17  3001               	movlw	01h
 10184  1F18                     u4495:
 10185  1F18  1003               	clrc
 10186  1F19  0CA2               	rrf	(___ftpack@arg+2)^080h,f
 10187  1F1A  0CA1               	rrf	(___ftpack@arg+1)^080h,f
 10188  1F1B  0CA0               	rrf	(___ftpack@arg)^080h,f
 10189  1F1C  3EFF               	addlw	-1
 10190  1F1D  1D03               	skipz
 10191  1F1E  2F18               	goto	u4495
 10192                           
 10193                           	line	74
 10194                           	
 10195  1F1F                     l5463:	
 10196                           	line	70
 10197  1F1F  30FF               	movlw	low highword(0FF0000h)
 10198  1F20  0522               	andwf	(___ftpack@arg+2)^080h,w
 10199  1F21  1D03               	btfss	status,2
 10200  1F22  2F24               	goto	u4501
 10201  1F23  2F25               	goto	u4500
 10202  1F24                     u4501:
 10203  1F24  2F09               	goto	l9148
 10204  1F25                     u4500:
 10205  1F25  2F32               	goto	l9156
 10206                           	
 10207  1F26                     l5465:	
 10208                           	line	75
 10209  1F26  2F32               	goto	l9156
 10210                           	
 10211  1F27                     l5467:	
 10212                           	line	76
 10213                           	
 10214  1F27                     l9154:	
 10215  1F27  3001               	movlw	low(01h)
 10216  1F28  02A3               	subwf	(___ftpack@exp)^080h,f
 10217                           	line	77
 10218  1F29  3001               	movlw	01h
 10219  1F2A                     u4515:
 10220  1F2A  1003               	clrc
 10221  1F2B  0DA0               	rlf	(___ftpack@arg)^080h,f
 10222  1F2C  0DA1               	rlf	(___ftpack@arg+1)^080h,f
 10223  1F2D  0DA2               	rlf	(___ftpack@arg+2)^080h,f
 10224  1F2E  3EFF               	addlw	-1
 10225  1F2F  1D03               	skipz
 10226  1F30  2F2A               	goto	u4515
 10227  1F31  2F32               	goto	l9156
 10228                           	line	78
 10229                           	
 10230  1F32                     l5466:	
 10231                           	line	75
 10232                           	
 10233  1F32                     l9156:	
 10234  1F32  1FA1               	btfss	(___ftpack@arg+1)^080h,(15)&7
 10235  1F33  2F35               	goto	u4521
 10236  1F34  2F36               	goto	u4520
 10237  1F35                     u4521:
 10238  1F35  2F27               	goto	l9154
 10239  1F36                     u4520:
 10240                           	
 10241  1F36                     l5468:	
 10242                           	line	79
 10243  1F36  1823               	btfsc	(___ftpack@exp)^080h,(0)&7
 10244  1F37  2F39               	goto	u4531
 10245  1F38  2F3A               	goto	u4530
 10246  1F39                     u4531:
 10247  1F39  2F40               	goto	l5469
 10248  1F3A                     u4530:
 10249                           	line	80
 10250                           	
 10251  1F3A                     l9158:	
 10252  1F3A  30FF               	movlw	0FFh
 10253  1F3B  05A0               	andwf	(___ftpack@arg)^080h,f
 10254  1F3C  307F               	movlw	07Fh
 10255  1F3D  05A1               	andwf	(___ftpack@arg+1)^080h,f
 10256  1F3E  30FF               	movlw	0FFh
 10257  1F3F  05A2               	andwf	(___ftpack@arg+2)^080h,f
 10258                           	
 10259  1F40                     l5469:	
 10260                           	line	81
 10261  1F40  1003               	clrc
 10262  1F41  0CA3               	rrf	(___ftpack@exp)^080h,f
 10263                           
 10264                           	line	82
 10265                           	
 10266  1F42                     l9160:	
 10267  1F42  0823               	movf	(___ftpack@exp)^080h,w
 10268  1F43  00A5               	movwf	((??___ftpack+0)^080h+0)
 10269  1F44  01A6               	clrf	((??___ftpack+0)^080h+0+1)
 10270  1F45  01A7               	clrf	((??___ftpack+0)^080h+0+2)
 10271  1F46  3010               	movlw	010h
 10272  1F47                     u4545:
 10273  1F47  1003               	clrc
 10274  1F48  0DA5               	rlf	(??___ftpack+0)^080h+0,f
 10275  1F49  0DA6               	rlf	(??___ftpack+0)^080h+1,f
 10276  1F4A  0DA7               	rlf	(??___ftpack+0)^080h+2,f
 10277  1F4B                     u4540:
 10278  1F4B  3EFF               	addlw	-1
 10279  1F4C  1D03               	skipz
 10280  1F4D  2F47               	goto	u4545
 10281  1F4E  0825               	movf	0+(??___ftpack+0)^080h+0,w
 10282  1F4F  04A0               	iorwf	(___ftpack@arg)^080h,f
 10283  1F50  0826               	movf	1+(??___ftpack+0)^080h+0,w
 10284  1F51  04A1               	iorwf	(___ftpack@arg+1)^080h,f
 10285  1F52  0827               	movf	2+(??___ftpack+0)^080h+0,w
 10286  1F53  04A2               	iorwf	(___ftpack@arg+2)^080h,f
 10287                           	line	83
 10288                           	
 10289  1F54                     l9162:	
 10290  1F54  0824               	movf	(___ftpack@sign)^080h,w
 10291  1F55  1D03               	skipz
 10292  1F56  2F58               	goto	u4550
 10293  1F57  2F59               	goto	l5470
 10294  1F58                     u4550:
 10295                           	line	84
 10296                           	
 10297  1F58                     l9164:	
 10298  1F58  17A2               	bsf	(___ftpack@arg)^080h+(23/8),(23)&7
 10299                           	
 10300  1F59                     l5470:	
 10301                           	line	85
 10302                           	line	86
 10303                           	
 10304  1F59                     l5459:	
 10305  1F59  0008               	return
 10306                           	opt stack 0
 10307                           GLOBAL	__end_of___ftpack
 10308  1F5A                     	__end_of___ftpack:
 10309 ;; =============== function ___ftpack ends ============
 10310                           
 10311                           	signat	___ftpack,12411
 10312                           	global	___wmul
 10313                           psect	text953,local,class=CODE,delta=2
 10314                           global __ptext953
 10315  1AC7                     __ptext953:
 10316                           
 10317 ;; *************** function ___wmul *****************
 10318 ;; Defined at:
 10319 ;;		line 3 in file "C:\Program Files (x86)\HI-TECH Software\PICC\9.82\sources\wmul.c"
 10320 ;; Parameters:    Size  Location     Type
 10321 ;;  multiplier      2    0[BANK1 ] unsigned int 
 10322 ;;  multiplicand    2    2[BANK1 ] unsigned int 
 10323 ;; Auto vars:     Size  Location     Type
 10324 ;;  product         2    4[BANK1 ] unsigned int 
 10325 ;; Return value:  Size  Location     Type
 10326 ;;                  2    0[BANK1 ] unsigned int 
 10327 ;; Registers used:
 10328 ;;		wreg, status,2, status,0
 10329 ;; Tracked objects:
 10330 ;;		On entry : 0/0
 10331 ;;		On exit  : 0/0
 10332 ;;		Unchanged: 0/0
 10333 ;; Data sizes:     COMMON   BANK0   BANK1   BANK3   BANK2
 10334 ;;      Params:         0       0       4       0       0
 10335 ;;      Locals:         0       0       2       0       0
 10336 ;;      Temps:          0       0       0       0       0
 10337 ;;      Totals:         0       0       6       0       0
 10338 ;;Total ram usage:        6 bytes
 10339 ;; Hardware stack levels used:    1
 10340 ;; Hardware stack levels required when called:    4
 10341 ;; This function calls:
 10342 ;;		Nothing
 10343 ;; This function is called by:
 10344 ;;		_fround
 10345 ;;		_scale
 10346 ;;		_sprintf
 10347 ;; This function uses a non-reentrant model
 10348 ;;
 10349                           psect	text953
 10350                           	file	"C:\Program Files (x86)\HI-TECH Software\PICC\9.82\sources\wmul.c"
 10351                           	line	3
 10352                           	global	__size_of___wmul
 10353  002C                     	__size_of___wmul	equ	__end_of___wmul-___wmul
 10354                           	
 10355  1AC7                     ___wmul:	
 10356                           	opt	stack 1
 10357                           ; Regs used in ___wmul: [wreg+status,2+status,0]
 10358                           	line	4
 10359                           	
 10360  1AC7                     l9124:	
 10361  1AC7  1683               	bsf	status, 5	;RP0=1, select bank1
 10362  1AC8  1303               	bcf	status, 6	;RP1=0, select bank1
 10363  1AC9  01A4               	clrf	(___wmul@product)^080h
 10364  1ACA  01A5               	clrf	(___wmul@product+1)^080h
 10365  1ACB  2ACC               	goto	l9126
 10366                           	line	6
 10367                           	
 10368  1ACC                     l5090:	
 10369                           	line	7
 10370                           	
 10371  1ACC                     l9126:	
 10372  1ACC  1C20               	btfss	(___wmul@multiplier)^080h,(0)&7
 10373  1ACD  2ACF               	goto	u4411
 10374  1ACE  2AD0               	goto	u4410
 10375  1ACF                     u4411:
 10376  1ACF  2AD6               	goto	l5091
 10377  1AD0                     u4410:
 10378                           	line	8
 10379                           	
 10380  1AD0                     l9128:	
 10381  1AD0  0822               	movf	(___wmul@multiplicand)^080h,w
 10382  1AD1  07A4               	addwf	(___wmul@product)^080h,f
 10383  1AD2  1803               	skipnc
 10384  1AD3  0AA5               	incf	(___wmul@product+1)^080h,f
 10385  1AD4  0823               	movf	(___wmul@multiplicand+1)^080h,w
 10386  1AD5  07A5               	addwf	(___wmul@product+1)^080h,f
 10387                           	
 10388  1AD6                     l5091:	
 10389                           	line	9
 10390  1AD6  3001               	movlw	01h
 10391                           	
 10392  1AD7                     u4425:
 10393  1AD7  1003               	clrc
 10394  1AD8  0DA2               	rlf	(___wmul@multiplicand)^080h,f
 10395  1AD9  0DA3               	rlf	(___wmul@multiplicand+1)^080h,f
 10396  1ADA  3EFF               	addlw	-1
 10397  1ADB  1D03               	skipz
 10398  1ADC  2AD7               	goto	u4425
 10399                           	line	10
 10400                           	
 10401  1ADD                     l9130:	
 10402  1ADD  3001               	movlw	01h
 10403                           	
 10404  1ADE                     u4435:
 10405  1ADE  1003               	clrc
 10406  1ADF  0CA1               	rrf	(___wmul@multiplier+1)^080h,f
 10407  1AE0  0CA0               	rrf	(___wmul@multiplier)^080h,f
 10408  1AE1  3EFF               	addlw	-1
 10409  1AE2  1D03               	skipz
 10410  1AE3  2ADE               	goto	u4435
 10411                           	line	11
 10412  1AE4  0821               	movf	((___wmul@multiplier+1)^080h),w
 10413  1AE5  0420               	iorwf	((___wmul@multiplier)^080h),w
 10414  1AE6  1D03               	skipz
 10415  1AE7  2AE9               	goto	u4441
 10416  1AE8  2AEA               	goto	u4440
 10417  1AE9                     u4441:
 10418  1AE9  2ACC               	goto	l9126
 10419  1AEA                     u4440:
 10420  1AEA  2AEB               	goto	l9132
 10421                           	
 10422  1AEB                     l5092:	
 10423                           	line	12
 10424                           	
 10425  1AEB                     l9132:	
 10426  1AEB  0825               	movf	(___wmul@product+1)^080h,w
 10427  1AEC  01A1               	clrf	(?___wmul+1)^080h
 10428  1AED  07A1               	addwf	(?___wmul+1)^080h
 10429  1AEE  0824               	movf	(___wmul@product)^080h,w
 10430  1AEF  01A0               	clrf	(?___wmul)^080h
 10431  1AF0  07A0               	addwf	(?___wmul)^080h
 10432                           
 10433  1AF1  2AF2               	goto	l5093
 10434                           	
 10435  1AF2                     l9134:	
 10436                           	line	13
 10437                           	
 10438  1AF2                     l5093:	
 10439  1AF2  0008               	return
 10440                           	opt stack 0
 10441                           GLOBAL	__end_of___wmul
 10442  1AF3                     	__end_of___wmul:
 10443 ;; =============== function ___wmul ends ============
 10444                           
 10445                           	signat	___wmul,8314
 10446                           	global	___bmul
 10447                           psect	text954,local,class=CODE,delta=2
 10448                           global __ptext954
 10449  1A08                     __ptext954:
 10450                           
 10451 ;; *************** function ___bmul *****************
 10452 ;; Defined at:
 10453 ;;		line 3 in file "C:\Program Files (x86)\HI-TECH Software\PICC\9.82\sources\bmul.c"
 10454 ;; Parameters:    Size  Location     Type
 10455 ;;  multiplier      1    wreg     unsigned char 
 10456 ;;  multiplicand    1   16[BANK1 ] unsigned char 
 10457 ;; Auto vars:     Size  Location     Type
 10458 ;;  multiplier      1   19[BANK1 ] unsigned char 
 10459 ;;  product         1   18[BANK1 ] unsigned char 
 10460 ;; Return value:  Size  Location     Type
 10461 ;;                  1    wreg      unsigned char 
 10462 ;; Registers used:
 10463 ;;		wreg, status,2, status,0
 10464 ;; Tracked objects:
 10465 ;;		On entry : 0/0
 10466 ;;		On exit  : 0/0
 10467 ;;		Unchanged: 0/0
 10468 ;; Data sizes:     COMMON   BANK0   BANK1   BANK3   BANK2
 10469 ;;      Params:         0       0       1       0       0
 10470 ;;      Locals:         0       0       2       0       0
 10471 ;;      Temps:          0       0       1       0       0
 10472 ;;      Totals:         0       0       4       0       0
 10473 ;;Total ram usage:        4 bytes
 10474 ;; Hardware stack levels used:    1
 10475 ;; Hardware stack levels required when called:    4
 10476 ;; This function calls:
 10477 ;;		Nothing
 10478 ;; This function is called by:
 10479 ;;		_fround
 10480 ;;		_scale
 10481 ;; This function uses a non-reentrant model
 10482 ;;
 10483                           psect	text954
 10484                           	file	"C:\Program Files (x86)\HI-TECH Software\PICC\9.82\sources\bmul.c"
 10485                           	line	3
 10486                           	global	__size_of___bmul
 10487  001A                     	__size_of___bmul	equ	__end_of___bmul-___bmul
 10488                           	
 10489  1A08                     ___bmul:	
 10490                           	opt	stack 0
 10491                           ; Regs used in ___bmul: [wreg+status,2+status,0]
 10492                           ;___bmul@multiplier stored from wreg
 10493  1A08  1683               	bsf	status, 5	;RP0=1, select bank1
 10494  1A09  1303               	bcf	status, 6	;RP1=0, select bank1
 10495  1A0A  00B3               	movwf	(___bmul@multiplier)^080h
 10496                           	line	4
 10497                           	
 10498  1A0B                     l9110:	
 10499  1A0B  01B2               	clrf	(___bmul@product)^080h
 10500                           	line	6
 10501                           	
 10502  1A0C                     l5084:	
 10503                           	line	7
 10504  1A0C  1C33               	btfss	(___bmul@multiplier)^080h,(0)&7
 10505  1A0D  2A0F               	goto	u4391
 10506  1A0E  2A10               	goto	u4390
 10507  1A0F                     u4391:
 10508  1A0F  2A15               	goto	l9114
 10509  1A10                     u4390:
 10510                           	line	8
 10511                           	
 10512  1A10                     l9112:	
 10513  1A10  0830               	movf	(___bmul@multiplicand)^080h,w
 10514  1A11  00B1               	movwf	(??___bmul+0)^080h+0
 10515  1A12  0831               	movf	(??___bmul+0)^080h+0,w
 10516  1A13  07B2               	addwf	(___bmul@product)^080h,f
 10517  1A14  2A15               	goto	l9114
 10518                           	
 10519  1A15                     l5085:	
 10520                           	line	9
 10521                           	
 10522  1A15                     l9114:	
 10523  1A15  1003               	clrc
 10524  1A16  0DB0               	rlf	(___bmul@multiplicand)^080h,f
 10525                           
 10526                           	line	10
 10527                           	
 10528  1A17                     l9116:	
 10529  1A17  1003               	clrc
 10530  1A18  0CB3               	rrf	(___bmul@multiplier)^080h,f
 10531                           
 10532                           	line	11
 10533                           	
 10534  1A19                     l9118:	
 10535  1A19  08B3               	movf	(___bmul@multiplier)^080h,f
 10536  1A1A  1D03               	skipz
 10537  1A1B  2A1D               	goto	u4401
 10538  1A1C  2A1E               	goto	u4400
 10539  1A1D                     u4401:
 10540  1A1D  2A0C               	goto	l5084
 10541  1A1E                     u4400:
 10542  1A1E  2A1F               	goto	l9120
 10543                           	
 10544  1A1F                     l5086:	
 10545                           	line	12
 10546                           	
 10547  1A1F                     l9120:	
 10548  1A1F  0832               	movf	(___bmul@product)^080h,w
 10549  1A20  2A21               	goto	l5087
 10550                           	
 10551  1A21                     l9122:	
 10552                           	line	13
 10553                           	
 10554  1A21                     l5087:	
 10555  1A21  0008               	return
 10556                           	opt stack 0
 10557                           GLOBAL	__end_of___bmul
 10558  1A22                     	__end_of___bmul:
 10559 ;; =============== function ___bmul ends ============
 10560                           
 10561                           	signat	___bmul,8313
 10562                           	global	__div_to_l_
 10563                           psect	text955,local,class=CODE,delta=2
 10564                           global __ptext955
 10565  1542                     __ptext955:
 10566                           
 10567 ;; *************** function __div_to_l_ *****************
 10568 ;; Defined at:
 10569 ;;		line 61 in file "C:\Program Files (x86)\HI-TECH Software\PICC\9.82\sources\fldivl.c"
 10570 ;; Parameters:    Size  Location     Type
 10571 ;;  f1              3    0[BANK1 ] unsigned char 
 10572 ;;  f2              3    3[BANK1 ] unsigned char 
 10573 ;; Auto vars:     Size  Location     Type
 10574 ;;  quot            4   14[BANK1 ] unsigned long 
 10575 ;;  exp1            1   19[BANK1 ] unsigned char 
 10576 ;;  cntr            1   18[BANK1 ] unsigned char 
 10577 ;; Return value:  Size  Location     Type
 10578 ;;                  4    0[BANK1 ] unsigned long 
 10579 ;; Registers used:
 10580 ;;		wreg, fsr0l, fsr0h, status,2, status,0
 10581 ;; Tracked objects:
 10582 ;;		On entry : 0/0
 10583 ;;		On exit  : 0/0
 10584 ;;		Unchanged: 0/0
 10585 ;; Data sizes:     COMMON   BANK0   BANK1   BANK3   BANK2
 10586 ;;      Params:         0       0       6       0       0
 10587 ;;      Locals:         0       0       6       0       0
 10588 ;;      Temps:          0       0       8       0       0
 10589 ;;      Totals:         0       0      20       0       0
 10590 ;;Total ram usage:       20 bytes
 10591 ;; Hardware stack levels used:    1
 10592 ;; Hardware stack levels required when called:    4
 10593 ;; This function calls:
 10594 ;;		Nothing
 10595 ;; This function is called by:
 10596 ;;		_sprintf
 10597 ;; This function uses a non-reentrant model
 10598 ;;
 10599                           psect	text955
 10600                           	file	"C:\Program Files (x86)\HI-TECH Software\PICC\9.82\sources\fldivl.c"
 10601                           	line	61
 10602                           	global	__size_of__div_to_l_
 10603  0155                     	__size_of__div_to_l_	equ	__end_of__div_to_l_-__div_to_l_
 10604                           	
 10605  1542                     __div_to_l_:	
 10606                           	opt	stack 1
 10607                           ; Regs used in __div_to_l_: [wreg-fsr0h+status,2+status,0]
 10608                           	line	66
 10609                           	
 10610  1542                     l9056:	
 10611  1542  30A0               	movlw	low(__div_to_l_@f1)
 10612  1543  0084               	movwf	fsr0
 10613  1544  1383               	bcf	status, 7	;select IRP bank1
 10614  1545  0800               	movf	indf,w
 10615  1546  1683               	bsf	status, 5	;RP0=1, select bank1
 10616  1547  1303               	bcf	status, 6	;RP1=0, select bank1
 10617  1548  00A6               	movwf	(??__div_to_l_+0)^080h+0+0
 10618  1549  0A84               	incf	fsr0,f
 10619  154A  0800               	movf	indf,w
 10620  154B  00A7               	movwf	(??__div_to_l_+0)^080h+0+1
 10621  154C  0A84               	incf	fsr0,f
 10622  154D  0800               	movf	indf,w
 10623  154E  00A8               	movwf	(??__div_to_l_+0)^080h+0+2
 10624  154F  0A84               	incf	fsr0,f
 10625  1550  0800               	movf	indf,w
 10626  1551  00A9               	movwf	(??__div_to_l_+0)^080h+0+3
 10627  1552  1003               	clrc
 10628  1553  0D28               	rlf	(??__div_to_l_+0)^080h+2,w
 10629  1554  0D29               	rlf	(??__div_to_l_+0)^080h+3,w
 10630  1555  00AA               	movwf	(??__div_to_l_+4)^080h+0
 10631  1556  082A               	movf	(??__div_to_l_+4)^080h+0,w
 10632  1557  00B3               	movwf	(__div_to_l_@exp1)^080h
 10633  1558  08B3               	movf	((__div_to_l_@exp1)^080h),f
 10634  1559  1D03               	skipz
 10635  155A  2D5C               	goto	u4261
 10636  155B  2D5D               	goto	u4260
 10637  155C                     u4261:
 10638  155C  2D67               	goto	l9062
 10639  155D                     u4260:
 10640                           	line	67
 10641                           	
 10642  155D                     l9058:	
 10643  155D  3000               	movlw	0
 10644  155E  00A3               	movwf	(?__div_to_l_+3)^080h
 10645  155F  3000               	movlw	0
 10646  1560  00A2               	movwf	(?__div_to_l_+2)^080h
 10647  1561  3000               	movlw	0
 10648  1562  00A1               	movwf	(?__div_to_l_+1)^080h
 10649  1563  3000               	movlw	0
 10650  1564  00A0               	movwf	(?__div_to_l_)^080h
 10651                           
 10652  1565  2E96               	goto	l5377
 10653                           	
 10654  1566                     l9060:	
 10655  1566  2E96               	goto	l5377
 10656                           	
 10657  1567                     l5376:	
 10658                           	line	68
 10659                           	
 10660  1567                     l9062:	
 10661  1567  30A3               	movlw	low(__div_to_l_@f2)
 10662  1568  0084               	movwf	fsr0
 10663  1569  0800               	movf	indf,w
 10664  156A  00A6               	movwf	(??__div_to_l_+0)^080h+0+0
 10665  156B  0A84               	incf	fsr0,f
 10666  156C  0800               	movf	indf,w
 10667  156D  00A7               	movwf	(??__div_to_l_+0)^080h+0+1
 10668  156E  0A84               	incf	fsr0,f
 10669  156F  0800               	movf	indf,w
 10670  1570  00A8               	movwf	(??__div_to_l_+0)^080h+0+2
 10671  1571  0A84               	incf	fsr0,f
 10672  1572  0800               	movf	indf,w
 10673  1573  00A9               	movwf	(??__div_to_l_+0)^080h+0+3
 10674  1574  1003               	clrc
 10675  1575  0D28               	rlf	(??__div_to_l_+0)^080h+2,w
 10676  1576  0D29               	rlf	(??__div_to_l_+0)^080h+3,w
 10677  1577  00AA               	movwf	(??__div_to_l_+4)^080h+0
 10678  1578  082A               	movf	(??__div_to_l_+4)^080h+0,w
 10679  1579  00B2               	movwf	(__div_to_l_@cntr)^080h
 10680  157A  08B2               	movf	((__div_to_l_@cntr)^080h),f
 10681  157B  1D03               	skipz
 10682  157C  2D7E               	goto	u4271
 10683  157D  2D7F               	goto	u4270
 10684  157E                     u4271:
 10685  157E  2D89               	goto	l9068
 10686  157F                     u4270:
 10687                           	line	69
 10688                           	
 10689  157F                     l9064:	
 10690  157F  3000               	movlw	0
 10691  1580  00A3               	movwf	(?__div_to_l_+3)^080h
 10692  1581  3000               	movlw	0
 10693  1582  00A2               	movwf	(?__div_to_l_+2)^080h
 10694  1583  3000               	movlw	0
 10695  1584  00A1               	movwf	(?__div_to_l_+1)^080h
 10696  1585  3000               	movlw	0
 10697  1586  00A0               	movwf	(?__div_to_l_)^080h
 10698                           
 10699  1587  2E96               	goto	l5377
 10700                           	
 10701  1588                     l9066:	
 10702  1588  2E96               	goto	l5377
 10703                           	
 10704  1589                     l5378:	
 10705                           	line	70
 10706                           	
 10707  1589                     l9068:	
 10708  1589  30A0               	movlw	low(__div_to_l_@f1)
 10709  158A  0084               	movwf	fsr0
 10710  158B  3000               	movlw	0
 10711  158C  0480               	iorwf	indf,f
 10712  158D  0A84               	incf	fsr0,f
 10713  158E  3000               	movlw	0
 10714  158F  0480               	iorwf	indf,f
 10715  1590  0A84               	incf	fsr0,f
 10716  1591  3080               	movlw	080h
 10717  1592  0480               	iorwf	indf,f
 10718  1593  0A84               	incf	fsr0,f
 10719  1594  3000               	movlw	0
 10720  1595  0480               	iorwf	indf,f
 10721                           	line	71
 10722  1596  30A0               	movlw	low(__div_to_l_@f1)
 10723  1597  0084               	movwf	fsr0
 10724  1598  30FF               	movlw	0FFh
 10725  1599  0580               	andwf	indf,f
 10726  159A  0A84               	incf	fsr0,f
 10727  159B  30FF               	movlw	0FFh
 10728  159C  0580               	andwf	indf,f
 10729  159D  0A84               	incf	fsr0,f
 10730  159E  30FF               	movlw	0FFh
 10731  159F  0580               	andwf	indf,f
 10732  15A0  0A84               	incf	fsr0,f
 10733  15A1  3000               	movlw	0
 10734  15A2  0580               	andwf	indf,f
 10735                           	line	72
 10736  15A3  30A3               	movlw	low(__div_to_l_@f2)
 10737  15A4  0084               	movwf	fsr0
 10738  15A5  3000               	movlw	0
 10739  15A6  0480               	iorwf	indf,f
 10740  15A7  0A84               	incf	fsr0,f
 10741  15A8  3000               	movlw	0
 10742  15A9  0480               	iorwf	indf,f
 10743  15AA  0A84               	incf	fsr0,f
 10744  15AB  3080               	movlw	080h
 10745  15AC  0480               	iorwf	indf,f
 10746  15AD  0A84               	incf	fsr0,f
 10747  15AE  3000               	movlw	0
 10748  15AF  0480               	iorwf	indf,f
 10749                           	line	73
 10750  15B0  30A3               	movlw	low(__div_to_l_@f2)
 10751  15B1  0084               	movwf	fsr0
 10752  15B2  30FF               	movlw	0FFh
 10753  15B3  0580               	andwf	indf,f
 10754  15B4  0A84               	incf	fsr0,f
 10755  15B5  30FF               	movlw	0FFh
 10756  15B6  0580               	andwf	indf,f
 10757  15B7  0A84               	incf	fsr0,f
 10758  15B8  30FF               	movlw	0FFh
 10759  15B9  0580               	andwf	indf,f
 10760  15BA  0A84               	incf	fsr0,f
 10761  15BB  3000               	movlw	0
 10762  15BC  0580               	andwf	indf,f
 10763                           	line	74
 10764                           	
 10765  15BD                     l9070:	
 10766  15BD  3000               	movlw	0
 10767  15BE  00B1               	movwf	(__div_to_l_@quot+3)^080h
 10768  15BF  3000               	movlw	0
 10769  15C0  00B0               	movwf	(__div_to_l_@quot+2)^080h
 10770  15C1  3000               	movlw	0
 10771  15C2  00AF               	movwf	(__div_to_l_@quot+1)^080h
 10772  15C3  3000               	movlw	0
 10773  15C4  00AE               	movwf	(__div_to_l_@quot)^080h
 10774                           
 10775                           	line	75
 10776                           	
 10777  15C5                     l9072:	
 10778  15C5  307F               	movlw	low(07Fh)
 10779  15C6  02B3               	subwf	(__div_to_l_@exp1)^080h,f
 10780                           	line	76
 10781                           	
 10782  15C7                     l9074:	
 10783  15C7  30A0               	movlw	(0A0h)
 10784  15C8  0732               	addwf	(__div_to_l_@cntr)^080h,w
 10785  15C9  00A6               	movwf	(??__div_to_l_+0)^080h+0
 10786  15CA  0826               	movf	0+(??__div_to_l_+0)^080h+0,w
 10787  15CB  02B3               	subwf	(__div_to_l_@exp1)^080h,f
 10788                           	line	77
 10789                           	
 10790  15CC                     l9076:	
 10791  15CC  3020               	movlw	(020h)
 10792  15CD  00A6               	movwf	(??__div_to_l_+0)^080h+0
 10793  15CE  0826               	movf	(??__div_to_l_+0)^080h+0,w
 10794  15CF  00B2               	movwf	(__div_to_l_@cntr)^080h
 10795  15D0  2DD1               	goto	l9078
 10796                           	line	78
 10797                           	
 10798  15D1                     l5379:	
 10799                           	line	79
 10800                           	
 10801  15D1                     l9078:	
 10802  15D1  3001               	movlw	01h
 10803  15D2  00A6               	movwf	(??__div_to_l_+0)^080h+0
 10804  15D3                     u4285:
 10805  15D3  1003               	clrc
 10806  15D4  0DAE               	rlf	(__div_to_l_@quot)^080h,f
 10807  15D5  0DAF               	rlf	(__div_to_l_@quot+1)^080h,f
 10808  15D6  0DB0               	rlf	(__div_to_l_@quot+2)^080h,f
 10809  15D7  0DB1               	rlf	(__div_to_l_@quot+3)^080h,f
 10810  15D8  0BA6               	decfsz	(??__div_to_l_+0)^080h+0
 10811  15D9  2DD3               	goto	u4285
 10812                           	line	80
 10813                           	
 10814  15DA                     l9080:	
 10815  15DA  30A3               	movlw	low(__div_to_l_@f2)
 10816  15DB  0084               	movwf	fsr0
 10817  15DC  0800               	movf	indf,w
 10818  15DD  00A6               	movwf	(??__div_to_l_+0)^080h+0+0
 10819  15DE  0A84               	incf	fsr0,f
 10820  15DF  0800               	movf	indf,w
 10821  15E0  00A7               	movwf	(??__div_to_l_+0)^080h+0+1
 10822  15E1  0A84               	incf	fsr0,f
 10823  15E2  0800               	movf	indf,w
 10824  15E3  00A8               	movwf	(??__div_to_l_+0)^080h+0+2
 10825  15E4  0A84               	incf	fsr0,f
 10826  15E5  0800               	movf	indf,w
 10827  15E6  00A9               	movwf	(??__div_to_l_+0)^080h+0+3
 10828  15E7  30A0               	movlw	low(__div_to_l_@f1)
 10829  15E8  0084               	movwf	fsr0
 10830  15E9  0800               	movf	indf,w
 10831  15EA  00AA               	movwf	(??__div_to_l_+4)^080h+0+0
 10832  15EB  0A84               	incf	fsr0,f
 10833  15EC  0800               	movf	indf,w
 10834  15ED  00AB               	movwf	(??__div_to_l_+4)^080h+0+1
 10835  15EE  0A84               	incf	fsr0,f
 10836  15EF  0800               	movf	indf,w
 10837  15F0  00AC               	movwf	(??__div_to_l_+4)^080h+0+2
 10838  15F1  0A84               	incf	fsr0,f
 10839  15F2  0800               	movf	indf,w
 10840  15F3  00AD               	movwf	(??__div_to_l_+4)^080h+0+3
 10841  15F4  0829               	movf	3+(??__div_to_l_+0)^080h+0,w
 10842  15F5  022D               	subwf	3+(??__div_to_l_+4)^080h+0,w
 10843  15F6  1D03               	skipz
 10844  15F7  2E02               	goto	u4295
 10845  15F8  0828               	movf	2+(??__div_to_l_+0)^080h+0,w
 10846  15F9  022C               	subwf	2+(??__div_to_l_+4)^080h+0,w
 10847  15FA  1D03               	skipz
 10848  15FB  2E02               	goto	u4295
 10849  15FC  0827               	movf	1+(??__div_to_l_+0)^080h+0,w
 10850  15FD  022B               	subwf	1+(??__div_to_l_+4)^080h+0,w
 10851  15FE  1D03               	skipz
 10852  15FF  2E02               	goto	u4295
 10853  1600  0826               	movf	0+(??__div_to_l_+0)^080h+0,w
 10854  1601  022A               	subwf	0+(??__div_to_l_+4)^080h+0,w
 10855  1602                     u4295:
 10856  1602  1C03               	skipc
 10857  1603  2E05               	goto	u4291
 10858  1604  2E06               	goto	u4290
 10859  1605                     u4291:
 10860  1605  2E29               	goto	l5380
 10861  1606                     u4290:
 10862                           	line	81
 10863                           	
 10864  1606                     l9082:	
 10865  1606  30A3               	movlw	low(__div_to_l_@f2)
 10866  1607  0084               	movwf	fsr0
 10867  1608  0800               	movf	indf,w
 10868  1609  00A6               	movwf	(??__div_to_l_+0)^080h+0+0
 10869  160A  0A84               	incf	fsr0,f
 10870  160B  0800               	movf	indf,w
 10871  160C  00A7               	movwf	(??__div_to_l_+0)^080h+0+1
 10872  160D  0A84               	incf	fsr0,f
 10873  160E  0800               	movf	indf,w
 10874  160F  00A8               	movwf	(??__div_to_l_+0)^080h+0+2
 10875  1610  0A84               	incf	fsr0,f
 10876  1611  0800               	movf	indf,w
 10877  1612  00A9               	movwf	(??__div_to_l_+0)^080h+0+3
 10878  1613  30A0               	movlw	low(__div_to_l_@f1)
 10879  1614  0084               	movwf	fsr0
 10880  1615  0826               	movf	0+(??__div_to_l_+0)^080h+0,w
 10881  1616  0280               	subwf	indf,f
 10882  1617  0A84               	incf	fsr0
 10883  1618  0827               	movf	1+(??__div_to_l_+0)^080h+0,w
 10884  1619  1C03               	skipc
 10885  161A  0F27               	incfsz	1+(??__div_to_l_+0)^080h+0,w
 10886  161B  0280               	subwf	indf,f
 10887  161C  0A84               	incf	fsr0
 10888  161D  0828               	movf	2+(??__div_to_l_+0)^080h+0,w
 10889  161E  1C03               	skipc
 10890  161F  0F28               	incfsz	2+(??__div_to_l_+0)^080h+0,w
 10891  1620  0280               	subwf	indf,f
 10892  1621  0A84               	incf	fsr0
 10893  1622  0829               	movf	3+(??__div_to_l_+0)^080h+0,w
 10894  1623  1C03               	skipc
 10895  1624  0A29               	incf	3+(??__div_to_l_+0)^080h+0,w
 10896  1625  0280               	subwf	indf,f
 10897  1626  3003               	movlw	3
 10898  1627  0284               	subwf	fsr0
 10899                           	line	82
 10900                           	
 10901  1628                     l9084:	
 10902  1628  142E               	bsf	(__div_to_l_@quot)^080h+(0/8),(0)&7
 10903                           	line	83
 10904                           	
 10905  1629                     l5380:	
 10906                           	line	84
 10907  1629  30A0               	movlw	low(__div_to_l_@f1)
 10908  162A  0084               	movwf	fsr0
 10909  162B  3001               	movlw	01h
 10910  162C                     u4305:
 10911  162C  1003               	clrc
 10912  162D  0D80               	rlf	indf,f
 10913  162E  0A84               	incf	fsr0,f
 10914  162F  0D80               	rlf	indf,f
 10915  1630  0A84               	incf	fsr0,f
 10916  1631  0D80               	rlf	indf,f
 10917  1632  0A84               	incf	fsr0,f
 10918  1633  0D80               	rlf	indf,f
 10919  1634  0384               	decf	fsr0,f
 10920  1635  0384               	decf	fsr0,f
 10921  1636  0384               	decf	fsr0,f
 10922  1637  3EFF               	addlw	-1
 10923  1638  1D03               	skipz
 10924  1639  2E2C               	goto	u4305
 10925                           	line	85
 10926                           	
 10927  163A                     l9086:	
 10928  163A  3001               	movlw	low(01h)
 10929  163B  02B2               	subwf	(__div_to_l_@cntr)^080h,f
 10930  163C  1D03               	btfss	status,2
 10931  163D  2E3F               	goto	u4311
 10932  163E  2E40               	goto	u4310
 10933  163F                     u4311:
 10934  163F  2DD1               	goto	l9078
 10935  1640                     u4310:
 10936                           	
 10937  1640                     l5381:	
 10938                           	line	86
 10939  1640  1FB3               	btfss	(__div_to_l_@exp1)^080h,7
 10940  1641  2E43               	goto	u4321
 10941  1642  2E44               	goto	u4320
 10942  1643                     u4321:
 10943  1643  2E69               	goto	l9096
 10944  1644                     u4320:
 10945                           	line	87
 10946                           	
 10947  1644                     l9088:	
 10948  1644  0833               	movf	(__div_to_l_@exp1)^080h,w
 10949  1645  3A80               	xorlw	80h
 10950  1646  3E9F               	addlw	-((-31)^80h)
 10951  1647  1803               	skipnc
 10952  1648  2E4A               	goto	u4331
 10953  1649  2E4B               	goto	u4330
 10954  164A                     u4331:
 10955  164A  2E56               	goto	l9094
 10956  164B                     u4330:
 10957                           	line	88
 10958                           	
 10959  164B                     l9090:	
 10960  164B  3000               	movlw	0
 10961  164C  00A3               	movwf	(?__div_to_l_+3)^080h
 10962  164D  3000               	movlw	0
 10963  164E  00A2               	movwf	(?__div_to_l_+2)^080h
 10964  164F  3000               	movlw	0
 10965  1650  00A1               	movwf	(?__div_to_l_+1)^080h
 10966  1651  3000               	movlw	0
 10967  1652  00A0               	movwf	(?__div_to_l_)^080h
 10968                           
 10969  1653  2E96               	goto	l5377
 10970                           	
 10971  1654                     l9092:	
 10972  1654  2E96               	goto	l5377
 10973                           	
 10974  1655                     l5383:	
 10975  1655  2E56               	goto	l9094
 10976                           	line	89
 10977                           	
 10978  1656                     l5384:	
 10979                           	line	90
 10980                           	
 10981  1656                     l9094:	
 10982  1656  3001               	movlw	01h
 10983  1657                     u4345:
 10984  1657  1003               	clrc
 10985  1658  0CB1               	rrf	(__div_to_l_@quot+3)^080h,f
 10986  1659  0CB0               	rrf	(__div_to_l_@quot+2)^080h,f
 10987  165A  0CAF               	rrf	(__div_to_l_@quot+1)^080h,f
 10988  165B  0CAE               	rrf	(__div_to_l_@quot)^080h,f
 10989  165C  3EFF               	addlw	-1
 10990  165D  1D03               	skipz
 10991  165E  2E57               	goto	u4345
 10992                           
 10993                           	line	91
 10994  165F  3001               	movlw	(01h)
 10995  1660  00A6               	movwf	(??__div_to_l_+0)^080h+0
 10996  1661  0826               	movf	(??__div_to_l_+0)^080h+0,w
 10997  1662  07B3               	addwf	(__div_to_l_@exp1)^080h,f
 10998  1663  1D03               	btfss	status,2
 10999  1664  2E66               	goto	u4351
 11000  1665  2E67               	goto	u4350
 11001  1666                     u4351:
 11002  1666  2E56               	goto	l9094
 11003  1667                     u4350:
 11004  1667  2E8D               	goto	l9106
 11005                           	
 11006  1668                     l5385:	
 11007                           	line	92
 11008  1668  2E8D               	goto	l9106
 11009                           	
 11010  1669                     l5382:	
 11011                           	line	93
 11012                           	
 11013  1669                     l9096:	
 11014  1669  3020               	movlw	(020h)
 11015  166A  0233               	subwf	(__div_to_l_@exp1)^080h,w
 11016  166B  1C03               	skipc
 11017  166C  2E6E               	goto	u4361
 11018  166D  2E6F               	goto	u4360
 11019  166E                     u4361:
 11020  166E  2E86               	goto	l9104
 11021  166F                     u4360:
 11022                           	line	94
 11023                           	
 11024  166F                     l9098:	
 11025  166F  3000               	movlw	0
 11026  1670  00A3               	movwf	(?__div_to_l_+3)^080h
 11027  1671  3000               	movlw	0
 11028  1672  00A2               	movwf	(?__div_to_l_+2)^080h
 11029  1673  3000               	movlw	0
 11030  1674  00A1               	movwf	(?__div_to_l_+1)^080h
 11031  1675  3000               	movlw	0
 11032  1676  00A0               	movwf	(?__div_to_l_)^080h
 11033                           
 11034  1677  2E96               	goto	l5377
 11035                           	
 11036  1678                     l9100:	
 11037  1678  2E96               	goto	l5377
 11038                           	
 11039  1679                     l5387:	
 11040                           	line	95
 11041  1679  2E86               	goto	l9104
 11042                           	
 11043  167A                     l5389:	
 11044                           	line	96
 11045                           	
 11046  167A                     l9102:	
 11047  167A  3001               	movlw	01h
 11048  167B  00A6               	movwf	(??__div_to_l_+0)^080h+0
 11049  167C                     u4375:
 11050  167C  1003               	clrc
 11051  167D  0DAE               	rlf	(__div_to_l_@quot)^080h,f
 11052  167E  0DAF               	rlf	(__div_to_l_@quot+1)^080h,f
 11053  167F  0DB0               	rlf	(__div_to_l_@quot+2)^080h,f
 11054  1680  0DB1               	rlf	(__div_to_l_@quot+3)^080h,f
 11055  1681  0BA6               	decfsz	(??__div_to_l_+0)^080h+0
 11056  1682  2E7C               	goto	u4375
 11057                           	line	97
 11058  1683  3001               	movlw	low(01h)
 11059  1684  02B3               	subwf	(__div_to_l_@exp1)^080h,f
 11060  1685  2E86               	goto	l9104
 11061                           	line	98
 11062                           	
 11063  1686                     l5388:	
 11064                           	line	95
 11065                           	
 11066  1686                     l9104:	
 11067  1686  08B3               	movf	(__div_to_l_@exp1)^080h,f
 11068  1687  1D03               	skipz
 11069  1688  2E8A               	goto	u4381
 11070  1689  2E8B               	goto	u4380
 11071  168A                     u4381:
 11072  168A  2E7A               	goto	l9102
 11073  168B                     u4380:
 11074  168B  2E8D               	goto	l9106
 11075                           	
 11076  168C                     l5390:	
 11077  168C  2E8D               	goto	l9106
 11078                           	line	99
 11079                           	
 11080  168D                     l5386:	
 11081                           	line	100
 11082                           	
 11083  168D                     l9106:	
 11084  168D  0831               	movf	(__div_to_l_@quot+3)^080h,w
 11085  168E  00A3               	movwf	(?__div_to_l_+3)^080h
 11086  168F  0830               	movf	(__div_to_l_@quot+2)^080h,w
 11087  1690  00A2               	movwf	(?__div_to_l_+2)^080h
 11088  1691  082F               	movf	(__div_to_l_@quot+1)^080h,w
 11089  1692  00A1               	movwf	(?__div_to_l_+1)^080h
 11090  1693  082E               	movf	(__div_to_l_@quot)^080h,w
 11091  1694  00A0               	movwf	(?__div_to_l_)^080h
 11092                           
 11093  1695  2E96               	goto	l5377
 11094                           	
 11095  1696                     l9108:	
 11096                           	line	101
 11097                           	
 11098  1696                     l5377:	
 11099  1696  0008               	return
 11100                           	opt stack 0
 11101                           GLOBAL	__end_of__div_to_l_
 11102  1697                     	__end_of__div_to_l_:
 11103 ;; =============== function __div_to_l_ ends ============
 11104                           
 11105                           	signat	__div_to_l_,8316
 11106                           	global	__tdiv_to_l_
 11107                           psect	text956,local,class=CODE,delta=2
 11108                           global __ptext956
 11109  1284                     __ptext956:
 11110                           
 11111 ;; *************** function __tdiv_to_l_ *****************
 11112 ;; Defined at:
 11113 ;;		line 61 in file "C:\Program Files (x86)\HI-TECH Software\PICC\9.82\sources\ftdivl.c"
 11114 ;; Parameters:    Size  Location     Type
 11115 ;;  f1              3    0[BANK1 ] float 
 11116 ;;  f2              3    3[BANK1 ] float 
 11117 ;; Auto vars:     Size  Location     Type
 11118 ;;  quot            4   10[BANK1 ] unsigned long 
 11119 ;;  exp1            1   15[BANK1 ] unsigned char 
 11120 ;;  cntr            1   14[BANK1 ] unsigned char 
 11121 ;; Return value:  Size  Location     Type
 11122 ;;                  4    0[BANK1 ] unsigned long 
 11123 ;; Registers used:
 11124 ;;		wreg, status,2, status,0
 11125 ;; Tracked objects:
 11126 ;;		On entry : 0/0
 11127 ;;		On exit  : 0/0
 11128 ;;		Unchanged: 0/0
 11129 ;; Data sizes:     COMMON   BANK0   BANK1   BANK3   BANK2
 11130 ;;      Params:         0       0       6       0       0
 11131 ;;      Locals:         0       0       6       0       0
 11132 ;;      Temps:          0       0       4       0       0
 11133 ;;      Totals:         0       0      16       0       0
 11134 ;;Total ram usage:       16 bytes
 11135 ;; Hardware stack levels used:    1
 11136 ;; Hardware stack levels required when called:    4
 11137 ;; This function calls:
 11138 ;;		Nothing
 11139 ;; This function is called by:
 11140 ;;		_sprintf
 11141 ;; This function uses a non-reentrant model
 11142 ;;
 11143                           psect	text956
 11144                           	file	"C:\Program Files (x86)\HI-TECH Software\PICC\9.82\sources\ftdivl.c"
 11145                           	line	61
 11146                           	global	__size_of__tdiv_to_l_
 11147  00E2                     	__size_of__tdiv_to_l_	equ	__end_of__tdiv_to_l_-__tdiv_to_l_
 11148                           	
 11149  1284                     __tdiv_to_l_:	
 11150                           	opt	stack 1
 11151                           ; Regs used in __tdiv_to_l_: [wreg+status,2+status,0]
 11152                           	line	66
 11153                           	
 11154  1284                     l9002:	
 11155  1284  1683               	bsf	status, 5	;RP0=1, select bank1
 11156  1285  1303               	bcf	status, 6	;RP1=0, select bank1
 11157  1286  0820               	movf	(__tdiv_to_l_@f1)^080h,w
 11158  1287  00A6               	movwf	((??__tdiv_to_l_+0)^080h+0)
 11159  1288  0821               	movf	(__tdiv_to_l_@f1+1)^080h,w
 11160  1289  00A7               	movwf	((??__tdiv_to_l_+0)^080h+0+1)
 11161  128A  0822               	movf	(__tdiv_to_l_@f1+2)^080h,w
 11162  128B  00A8               	movwf	((??__tdiv_to_l_+0)^080h+0+2)
 11163  128C  1003               	clrc
 11164  128D  0D27               	rlf	(??__tdiv_to_l_+0)^080h+1,w
 11165  128E  0D28               	rlf	(??__tdiv_to_l_+0)^080h+2,w
 11166  128F  00A9               	movwf	(??__tdiv_to_l_+3)^080h+0
 11167  1290  0829               	movf	(??__tdiv_to_l_+3)^080h+0,w
 11168  1291  00AF               	movwf	(__tdiv_to_l_@exp1)^080h
 11169  1292  08AF               	movf	((__tdiv_to_l_@exp1)^080h),f
 11170  1293  1D03               	skipz
 11171  1294  2A96               	goto	u4131
 11172  1295  2A97               	goto	u4130
 11173  1296                     u4131:
 11174  1296  2AA1               	goto	l9008
 11175  1297                     u4130:
 11176                           	line	67
 11177                           	
 11178  1297                     l9004:	
 11179  1297  3000               	movlw	0
 11180  1298  00A3               	movwf	(?__tdiv_to_l_+3)^080h
 11181  1299  3000               	movlw	0
 11182  129A  00A2               	movwf	(?__tdiv_to_l_+2)^080h
 11183  129B  3000               	movlw	0
 11184  129C  00A1               	movwf	(?__tdiv_to_l_+1)^080h
 11185  129D  3000               	movlw	0
 11186  129E  00A0               	movwf	(?__tdiv_to_l_)^080h
 11187                           
 11188  129F  2B65               	goto	l5334
 11189                           	
 11190  12A0                     l9006:	
 11191  12A0  2B65               	goto	l5334
 11192                           	
 11193  12A1                     l5333:	
 11194                           	line	68
 11195                           	
 11196  12A1                     l9008:	
 11197  12A1  0823               	movf	(__tdiv_to_l_@f2)^080h,w
 11198  12A2  00A6               	movwf	((??__tdiv_to_l_+0)^080h+0)
 11199  12A3  0824               	movf	(__tdiv_to_l_@f2+1)^080h,w
 11200  12A4  00A7               	movwf	((??__tdiv_to_l_+0)^080h+0+1)
 11201  12A5  0825               	movf	(__tdiv_to_l_@f2+2)^080h,w
 11202  12A6  00A8               	movwf	((??__tdiv_to_l_+0)^080h+0+2)
 11203  12A7  1003               	clrc
 11204  12A8  0D27               	rlf	(??__tdiv_to_l_+0)^080h+1,w
 11205  12A9  0D28               	rlf	(??__tdiv_to_l_+0)^080h+2,w
 11206  12AA  00A9               	movwf	(??__tdiv_to_l_+3)^080h+0
 11207  12AB  0829               	movf	(??__tdiv_to_l_+3)^080h+0,w
 11208  12AC  00AE               	movwf	(__tdiv_to_l_@cntr)^080h
 11209  12AD  08AE               	movf	((__tdiv_to_l_@cntr)^080h),f
 11210  12AE  1D03               	skipz
 11211  12AF  2AB1               	goto	u4141
 11212  12B0  2AB2               	goto	u4140
 11213  12B1                     u4141:
 11214  12B1  2ABC               	goto	l5335
 11215  12B2                     u4140:
 11216                           	line	69
 11217                           	
 11218  12B2                     l9010:	
 11219  12B2  3000               	movlw	0
 11220  12B3  00A3               	movwf	(?__tdiv_to_l_+3)^080h
 11221  12B4  3000               	movlw	0
 11222  12B5  00A2               	movwf	(?__tdiv_to_l_+2)^080h
 11223  12B6  3000               	movlw	0
 11224  12B7  00A1               	movwf	(?__tdiv_to_l_+1)^080h
 11225  12B8  3000               	movlw	0
 11226  12B9  00A0               	movwf	(?__tdiv_to_l_)^080h
 11227                           
 11228  12BA  2B65               	goto	l5334
 11229                           	
 11230  12BB                     l9012:	
 11231  12BB  2B65               	goto	l5334
 11232                           	
 11233  12BC                     l5335:	
 11234                           	line	70
 11235  12BC  17A1               	bsf	(__tdiv_to_l_@f1)^080h+(15/8),(15)&7
 11236                           	line	71
 11237                           	
 11238  12BD                     l9014:	
 11239  12BD  30FF               	movlw	0FFh
 11240  12BE  05A0               	andwf	(__tdiv_to_l_@f1)^080h,f
 11241  12BF  30FF               	movlw	0FFh
 11242  12C0  05A1               	andwf	(__tdiv_to_l_@f1+1)^080h,f
 11243  12C1  3000               	movlw	0
 11244  12C2  05A2               	andwf	(__tdiv_to_l_@f1+2)^080h,f
 11245                           	line	72
 11246                           	
 11247  12C3                     l9016:	
 11248  12C3  17A4               	bsf	(__tdiv_to_l_@f2)^080h+(15/8),(15)&7
 11249                           	line	73
 11250  12C4  30FF               	movlw	0FFh
 11251  12C5  05A3               	andwf	(__tdiv_to_l_@f2)^080h,f
 11252  12C6  30FF               	movlw	0FFh
 11253  12C7  05A4               	andwf	(__tdiv_to_l_@f2+1)^080h,f
 11254  12C8  3000               	movlw	0
 11255  12C9  05A5               	andwf	(__tdiv_to_l_@f2+2)^080h,f
 11256                           	line	74
 11257  12CA  3000               	movlw	0
 11258  12CB  00AD               	movwf	(__tdiv_to_l_@quot+3)^080h
 11259  12CC  3000               	movlw	0
 11260  12CD  00AC               	movwf	(__tdiv_to_l_@quot+2)^080h
 11261  12CE  3000               	movlw	0
 11262  12CF  00AB               	movwf	(__tdiv_to_l_@quot+1)^080h
 11263  12D0  3000               	movlw	0
 11264  12D1  00AA               	movwf	(__tdiv_to_l_@quot)^080h
 11265                           
 11266                           	line	75
 11267                           	
 11268  12D2                     l9018:	
 11269  12D2  307F               	movlw	low(07Fh)
 11270  12D3  02AF               	subwf	(__tdiv_to_l_@exp1)^080h,f
 11271                           	line	76
 11272                           	
 11273  12D4                     l9020:	
 11274  12D4  3098               	movlw	(098h)
 11275  12D5  072E               	addwf	(__tdiv_to_l_@cntr)^080h,w
 11276  12D6  00A6               	movwf	(??__tdiv_to_l_+0)^080h+0
 11277  12D7  0826               	movf	0+(??__tdiv_to_l_+0)^080h+0,w
 11278  12D8  02AF               	subwf	(__tdiv_to_l_@exp1)^080h,f
 11279                           	line	77
 11280  12D9  3018               	movlw	(018h)
 11281  12DA  00A6               	movwf	(??__tdiv_to_l_+0)^080h+0
 11282  12DB  0826               	movf	(??__tdiv_to_l_+0)^080h+0,w
 11283  12DC  00AE               	movwf	(__tdiv_to_l_@cntr)^080h
 11284  12DD  2ADE               	goto	l9022
 11285                           	line	78
 11286                           	
 11287  12DE                     l5336:	
 11288                           	line	79
 11289                           	
 11290  12DE                     l9022:	
 11291  12DE  3001               	movlw	01h
 11292  12DF  00A6               	movwf	(??__tdiv_to_l_+0)^080h+0
 11293  12E0                     u4155:
 11294  12E0  1003               	clrc
 11295  12E1  0DAA               	rlf	(__tdiv_to_l_@quot)^080h,f
 11296  12E2  0DAB               	rlf	(__tdiv_to_l_@quot+1)^080h,f
 11297  12E3  0DAC               	rlf	(__tdiv_to_l_@quot+2)^080h,f
 11298  12E4  0DAD               	rlf	(__tdiv_to_l_@quot+3)^080h,f
 11299  12E5  0BA6               	decfsz	(??__tdiv_to_l_+0)^080h+0
 11300  12E6  2AE0               	goto	u4155
 11301                           	line	80
 11302                           	
 11303  12E7                     l9024:	
 11304  12E7  0825               	movf	(__tdiv_to_l_@f2+2)^080h,w
 11305  12E8  0222               	subwf	(__tdiv_to_l_@f1+2)^080h,w
 11306  12E9  1D03               	skipz
 11307  12EA  2AF1               	goto	u4165
 11308  12EB  0824               	movf	(__tdiv_to_l_@f2+1)^080h,w
 11309  12EC  0221               	subwf	(__tdiv_to_l_@f1+1)^080h,w
 11310  12ED  1D03               	skipz
 11311  12EE  2AF1               	goto	u4165
 11312  12EF  0823               	movf	(__tdiv_to_l_@f2)^080h,w
 11313  12F0  0220               	subwf	(__tdiv_to_l_@f1)^080h,w
 11314  12F1                     u4165:
 11315  12F1  1C03               	skipc
 11316  12F2  2AF4               	goto	u4161
 11317  12F3  2AF5               	goto	u4160
 11318  12F4                     u4161:
 11319  12F4  2B01               	goto	l9030
 11320  12F5                     u4160:
 11321                           	line	81
 11322                           	
 11323  12F5                     l9026:	
 11324  12F5  0823               	movf	(__tdiv_to_l_@f2)^080h,w
 11325  12F6  02A0               	subwf	(__tdiv_to_l_@f1)^080h,f
 11326  12F7  0824               	movf	(__tdiv_to_l_@f2+1)^080h,w
 11327  12F8  1C03               	skipc
 11328  12F9  0F24               	incfsz	(__tdiv_to_l_@f2+1)^080h,w
 11329  12FA  02A1               	subwf	(__tdiv_to_l_@f1+1)^080h,f
 11330  12FB  0825               	movf	(__tdiv_to_l_@f2+2)^080h,w
 11331  12FC  1C03               	skipc
 11332  12FD  0A25               	incf	(__tdiv_to_l_@f2+2)^080h,w
 11333  12FE  02A2               	subwf	(__tdiv_to_l_@f1+2)^080h,f
 11334                           	line	82
 11335                           	
 11336  12FF                     l9028:	
 11337  12FF  142A               	bsf	(__tdiv_to_l_@quot)^080h+(0/8),(0)&7
 11338  1300  2B01               	goto	l9030
 11339                           	line	83
 11340                           	
 11341  1301                     l5337:	
 11342                           	line	84
 11343                           	
 11344  1301                     l9030:	
 11345  1301  3001               	movlw	01h
 11346  1302                     u4175:
 11347  1302  1003               	clrc
 11348  1303  0DA0               	rlf	(__tdiv_to_l_@f1)^080h,f
 11349  1304  0DA1               	rlf	(__tdiv_to_l_@f1+1)^080h,f
 11350  1305  0DA2               	rlf	(__tdiv_to_l_@f1+2)^080h,f
 11351  1306  3EFF               	addlw	-1
 11352  1307  1D03               	skipz
 11353  1308  2B02               	goto	u4175
 11354                           	line	85
 11355                           	
 11356  1309                     l9032:	
 11357  1309  3001               	movlw	low(01h)
 11358  130A  02AE               	subwf	(__tdiv_to_l_@cntr)^080h,f
 11359  130B  1D03               	btfss	status,2
 11360  130C  2B0E               	goto	u4181
 11361  130D  2B0F               	goto	u4180
 11362  130E                     u4181:
 11363  130E  2ADE               	goto	l9022
 11364  130F                     u4180:
 11365                           	
 11366  130F                     l5338:	
 11367                           	line	86
 11368  130F  1FAF               	btfss	(__tdiv_to_l_@exp1)^080h,7
 11369  1310  2B12               	goto	u4191
 11370  1311  2B13               	goto	u4190
 11371  1312                     u4191:
 11372  1312  2B38               	goto	l9042
 11373  1313                     u4190:
 11374                           	line	87
 11375                           	
 11376  1313                     l9034:	
 11377  1313  082F               	movf	(__tdiv_to_l_@exp1)^080h,w
 11378  1314  3A80               	xorlw	80h
 11379  1315  3E97               	addlw	-((-23)^80h)
 11380  1316  1803               	skipnc
 11381  1317  2B19               	goto	u4201
 11382  1318  2B1A               	goto	u4200
 11383  1319                     u4201:
 11384  1319  2B25               	goto	l9040
 11385  131A                     u4200:
 11386                           	line	88
 11387                           	
 11388  131A                     l9036:	
 11389  131A  3000               	movlw	0
 11390  131B  00A3               	movwf	(?__tdiv_to_l_+3)^080h
 11391  131C  3000               	movlw	0
 11392  131D  00A2               	movwf	(?__tdiv_to_l_+2)^080h
 11393  131E  3000               	movlw	0
 11394  131F  00A1               	movwf	(?__tdiv_to_l_+1)^080h
 11395  1320  3000               	movlw	0
 11396  1321  00A0               	movwf	(?__tdiv_to_l_)^080h
 11397                           
 11398  1322  2B65               	goto	l5334
 11399                           	
 11400  1323                     l9038:	
 11401  1323  2B65               	goto	l5334
 11402                           	
 11403  1324                     l5340:	
 11404  1324  2B25               	goto	l9040
 11405                           	line	89
 11406                           	
 11407  1325                     l5341:	
 11408                           	line	90
 11409                           	
 11410  1325                     l9040:	
 11411  1325  3001               	movlw	01h
 11412  1326                     u4215:
 11413  1326  1003               	clrc
 11414  1327  0CAD               	rrf	(__tdiv_to_l_@quot+3)^080h,f
 11415  1328  0CAC               	rrf	(__tdiv_to_l_@quot+2)^080h,f
 11416  1329  0CAB               	rrf	(__tdiv_to_l_@quot+1)^080h,f
 11417  132A  0CAA               	rrf	(__tdiv_to_l_@quot)^080h,f
 11418  132B  3EFF               	addlw	-1
 11419  132C  1D03               	skipz
 11420  132D  2B26               	goto	u4215
 11421                           
 11422                           	line	91
 11423  132E  3001               	movlw	(01h)
 11424  132F  00A6               	movwf	(??__tdiv_to_l_+0)^080h+0
 11425  1330  0826               	movf	(??__tdiv_to_l_+0)^080h+0,w
 11426  1331  07AF               	addwf	(__tdiv_to_l_@exp1)^080h,f
 11427  1332  1D03               	btfss	status,2
 11428  1333  2B35               	goto	u4221
 11429  1334  2B36               	goto	u4220
 11430  1335                     u4221:
 11431  1335  2B25               	goto	l9040
 11432  1336                     u4220:
 11433  1336  2B5C               	goto	l9052
 11434                           	
 11435  1337                     l5342:	
 11436                           	line	92
 11437  1337  2B5C               	goto	l9052
 11438                           	
 11439  1338                     l5339:	
 11440                           	line	93
 11441                           	
 11442  1338                     l9042:	
 11443  1338  3018               	movlw	(018h)
 11444  1339  022F               	subwf	(__tdiv_to_l_@exp1)^080h,w
 11445  133A  1C03               	skipc
 11446  133B  2B3D               	goto	u4231
 11447  133C  2B3E               	goto	u4230
 11448  133D                     u4231:
 11449  133D  2B55               	goto	l9050
 11450  133E                     u4230:
 11451                           	line	94
 11452                           	
 11453  133E                     l9044:	
 11454  133E  3000               	movlw	0
 11455  133F  00A3               	movwf	(?__tdiv_to_l_+3)^080h
 11456  1340  3000               	movlw	0
 11457  1341  00A2               	movwf	(?__tdiv_to_l_+2)^080h
 11458  1342  3000               	movlw	0
 11459  1343  00A1               	movwf	(?__tdiv_to_l_+1)^080h
 11460  1344  3000               	movlw	0
 11461  1345  00A0               	movwf	(?__tdiv_to_l_)^080h
 11462                           
 11463  1346  2B65               	goto	l5334
 11464                           	
 11465  1347                     l9046:	
 11466  1347  2B65               	goto	l5334
 11467                           	
 11468  1348                     l5344:	
 11469                           	line	95
 11470  1348  2B55               	goto	l9050
 11471                           	
 11472  1349                     l5346:	
 11473                           	line	96
 11474                           	
 11475  1349                     l9048:	
 11476  1349  3001               	movlw	01h
 11477  134A  00A6               	movwf	(??__tdiv_to_l_+0)^080h+0
 11478  134B                     u4245:
 11479  134B  1003               	clrc
 11480  134C  0DAA               	rlf	(__tdiv_to_l_@quot)^080h,f
 11481  134D  0DAB               	rlf	(__tdiv_to_l_@quot+1)^080h,f
 11482  134E  0DAC               	rlf	(__tdiv_to_l_@quot+2)^080h,f
 11483  134F  0DAD               	rlf	(__tdiv_to_l_@quot+3)^080h,f
 11484  1350  0BA6               	decfsz	(??__tdiv_to_l_+0)^080h+0
 11485  1351  2B4B               	goto	u4245
 11486                           	line	97
 11487  1352  3001               	movlw	low(01h)
 11488  1353  02AF               	subwf	(__tdiv_to_l_@exp1)^080h,f
 11489  1354  2B55               	goto	l9050
 11490                           	line	98
 11491                           	
 11492  1355                     l5345:	
 11493                           	line	95
 11494                           	
 11495  1355                     l9050:	
 11496  1355  08AF               	movf	(__tdiv_to_l_@exp1)^080h,f
 11497  1356  1D03               	skipz
 11498  1357  2B59               	goto	u4251
 11499  1358  2B5A               	goto	u4250
 11500  1359                     u4251:
 11501  1359  2B49               	goto	l9048
 11502  135A                     u4250:
 11503  135A  2B5C               	goto	l9052
 11504                           	
 11505  135B                     l5347:	
 11506  135B  2B5C               	goto	l9052
 11507                           	line	99
 11508                           	
 11509  135C                     l5343:	
 11510                           	line	100
 11511                           	
 11512  135C                     l9052:	
 11513  135C  082D               	movf	(__tdiv_to_l_@quot+3)^080h,w
 11514  135D  00A3               	movwf	(?__tdiv_to_l_+3)^080h
 11515  135E  082C               	movf	(__tdiv_to_l_@quot+2)^080h,w
 11516  135F  00A2               	movwf	(?__tdiv_to_l_+2)^080h
 11517  1360  082B               	movf	(__tdiv_to_l_@quot+1)^080h,w
 11518  1361  00A1               	movwf	(?__tdiv_to_l_+1)^080h
 11519  1362  082A               	movf	(__tdiv_to_l_@quot)^080h,w
 11520  1363  00A0               	movwf	(?__tdiv_to_l_)^080h
 11521                           
 11522  1364  2B65               	goto	l5334
 11523                           	
 11524  1365                     l9054:	
 11525                           	line	101
 11526                           	
 11527  1365                     l5334:	
 11528  1365  0008               	return
 11529                           	opt stack 0
 11530                           GLOBAL	__end_of__tdiv_to_l_
 11531  1366                     	__end_of__tdiv_to_l_:
 11532 ;; =============== function __tdiv_to_l_ ends ============
 11533                           
 11534                           	signat	__tdiv_to_l_,8316
 11535                           	global	_isdigit
 11536                           psect	text957,local,class=CODE,delta=2
 11537                           global __ptext957
 11538  07E8                     __ptext957:
 11539                           
 11540 ;; *************** function _isdigit *****************
 11541 ;; Defined at:
 11542 ;;		line 13 in file "C:\Program Files (x86)\HI-TECH Software\PICC\9.82\sources\isdigit.c"
 11543 ;; Parameters:    Size  Location     Type
 11544 ;;  c               1    wreg     unsigned char 
 11545 ;; Auto vars:     Size  Location     Type
 11546 ;;  c               1    1[BANK1 ] unsigned char 
 11547 ;; Return value:  Size  Location     Type
 11548 ;;		None               void
 11549 ;; Registers used:
 11550 ;;		wreg, status,2, status,0
 11551 ;; Tracked objects:
 11552 ;;		On entry : 0/0
 11553 ;;		On exit  : 0/0
 11554 ;;		Unchanged: 0/0
 11555 ;; Data sizes:     COMMON   BANK0   BANK1   BANK3   BANK2
 11556 ;;      Params:         0       0       0       0       0
 11557 ;;      Locals:         0       0       2       0       0
 11558 ;;      Temps:          0       0       0       0       0
 11559 ;;      Totals:         0       0       2       0       0
 11560 ;;Total ram usage:        2 bytes
 11561 ;; Hardware stack levels used:    1
 11562 ;; Hardware stack levels required when called:    4
 11563 ;; This function calls:
 11564 ;;		Nothing
 11565 ;; This function is called by:
 11566 ;;		_sprintf
 11567 ;; This function uses a non-reentrant model
 11568 ;;
 11569                           psect	text957
 11570                           	file	"C:\Program Files (x86)\HI-TECH Software\PICC\9.82\sources\isdigit.c"
 11571                           	line	13
 11572                           	global	__size_of_isdigit
 11573  0017                     	__size_of_isdigit	equ	__end_of_isdigit-_isdigit
 11574                           	
 11575  07E8                     _isdigit:	
 11576                           	opt	stack 1
 11577                           ; Regs used in _isdigit: [wreg+status,2+status,0]
 11578                           ;isdigit@c stored from wreg
 11579  07E8  1683               	bsf	status, 5	;RP0=1, select bank1
 11580  07E9  1303               	bcf	status, 6	;RP1=0, select bank1
 11581  07EA  00A1               	movwf	(isdigit@c)^080h
 11582                           	line	14
 11583                           	
 11584  07EB                     l8990:	
 11585  07EB  01A0               	clrf	(_isdigit$5858)^080h
 11586                           	
 11587  07EC                     l8992:	
 11588  07EC  303A               	movlw	(03Ah)
 11589  07ED  0221               	subwf	(isdigit@c)^080h,w
 11590  07EE  1803               	skipnc
 11591  07EF  2FF1               	goto	u4111
 11592  07F0  2FF2               	goto	u4110
 11593  07F1                     u4111:
 11594  07F1  2FFC               	goto	l8998
 11595  07F2                     u4110:
 11596                           	
 11597  07F2                     l8994:	
 11598  07F2  3030               	movlw	(030h)
 11599  07F3  0221               	subwf	(isdigit@c)^080h,w
 11600  07F4  1C03               	skipc
 11601  07F5  2FF7               	goto	u4121
 11602  07F6  2FF8               	goto	u4120
 11603  07F7                     u4121:
 11604  07F7  2FFC               	goto	l8998
 11605  07F8                     u4120:
 11606                           	
 11607  07F8                     l8996:	
 11608  07F8  01A0               	clrf	(_isdigit$5858)^080h
 11609  07F9  1403               	bsf	status,0
 11610  07FA  0DA0               	rlf	(_isdigit$5858)^080h,f
 11611  07FB  2FFC               	goto	l8998
 11612                           	
 11613  07FC                     l5076:	
 11614                           	
 11615  07FC                     l8998:	
 11616  07FC  0C20               	rrf	(_isdigit$5858)^080h,w
 11617                           	
 11618  07FD  2FFE               	goto	l5077
 11619                           	
 11620  07FE                     l9000:	
 11621                           	line	15
 11622                           	
 11623  07FE                     l5077:	
 11624  07FE  0008               	return
 11625                           	opt stack 0
 11626                           GLOBAL	__end_of_isdigit
 11627  07FF                     	__end_of_isdigit:
 11628 ;; =============== function _isdigit ends ============
 11629                           
 11630                           	signat	_isdigit,4216
 11631                           	global	_Uart_Init
 11632                           psect	text958,local,class=CODE,delta=2
 11633                           global __ptext958
 11634  19EF                     __ptext958:
 11635                           
 11636 ;; *************** function _Uart_Init *****************
 11637 ;; Defined at:
 11638 ;;		line 12 in file "E:\MPLAB_IDE\JY62\JY62.c"
 11639 ;; Parameters:    Size  Location     Type
 11640 ;;		None
 11641 ;; Auto vars:     Size  Location     Type
 11642 ;;		None
 11643 ;; Return value:  Size  Location     Type
 11644 ;;		None               void
 11645 ;; Registers used:
 11646 ;;		wreg
 11647 ;; Tracked objects:
 11648 ;;		On entry : 0/0
 11649 ;;		On exit  : 0/0
 11650 ;;		Unchanged: 0/0
 11651 ;; Data sizes:     COMMON   BANK0   BANK1   BANK3   BANK2
 11652 ;;      Params:         0       0       0       0       0
 11653 ;;      Locals:         0       0       0       0       0
 11654 ;;      Temps:          0       0       0       0       0
 11655 ;;      Totals:         0       0       0       0       0
 11656 ;;Total ram usage:        0 bytes
 11657 ;; Hardware stack levels used:    1
 11658 ;; Hardware stack levels required when called:    4
 11659 ;; This function calls:
 11660 ;;		Nothing
 11661 ;; This function is called by:
 11662 ;;		_main
 11663 ;; This function uses a non-reentrant model
 11664 ;;
 11665                           psect	text958
 11666                           	file	"E:\MPLAB_IDE\JY62\JY62.c"
 11667                           	line	12
 11668                           	global	__size_of_Uart_Init
 11669  0019                     	__size_of_Uart_Init	equ	__end_of_Uart_Init-_Uart_Init
 11670                           	
 11671  19EF                     _Uart_Init:	
 11672                           	opt	stack 3
 11673                           ; Regs used in _Uart_Init: [wreg]
 11674                           	line	13
 11675                           	
 11676  19EF                     l8920:	
 11677                           ;JY62.c: 13: TRISC = 0xC0;
 11678  19EF  30C0               	movlw	(0C0h)
 11679  19F0  1683               	bsf	status, 5	;RP0=1, select bank1
 11680  19F1  1303               	bcf	status, 6	;RP1=0, select bank1
 11681  19F2  0087               	movwf	(135)^080h	;volatile
 11682                           	line	15
 11683                           ;JY62.c: 15: TXSTA=0X24;
 11684  19F3  3024               	movlw	(024h)
 11685  19F4  0098               	movwf	(152)^080h	;volatile
 11686                           	line	16
 11687                           	
 11688  19F5                     l8922:	
 11689                           ;JY62.c: 16: SYNC=0;
 11690  19F5  1218               	bcf	(1220/8)^080h,(1220)&7
 11691                           	line	17
 11692                           ;JY62.c: 17: RCSTA=0X90;
 11693  19F6  3090               	movlw	(090h)
 11694  19F7  1283               	bcf	status, 5	;RP0=0, select bank0
 11695  19F8  1303               	bcf	status, 6	;RP1=0, select bank0
 11696  19F9  0098               	movwf	(24)	;volatile
 11697                           	line	18
 11698                           	
 11699  19FA                     l8924:	
 11700                           ;JY62.c: 18: SPEN=1;
 11701  19FA  1798               	bsf	(199/8),(199)&7
 11702                           	line	20
 11703                           ;JY62.c: 20: SPBRG=25;
 11704  19FB  3019               	movlw	(019h)
 11705  19FC  1683               	bsf	status, 5	;RP0=1, select bank1
 11706  19FD  1303               	bcf	status, 6	;RP1=0, select bank1
 11707  19FE  0099               	movwf	(153)^080h	;volatile
 11708                           	line	21
 11709                           	
 11710  19FF                     l8926:	
 11711                           ;JY62.c: 21: CREN=1;
 11712  19FF  1283               	bcf	status, 5	;RP0=0, select bank0
 11713  1A00  1303               	bcf	status, 6	;RP1=0, select bank0
 11714  1A01  1618               	bsf	(196/8),(196)&7
 11715                           	line	22
 11716                           	
 11717  1A02                     l8928:	
 11718                           ;JY62.c: 22: GIE=1;PEIE=1;RCIE=1;
 11719  1A02  178B               	bsf	(95/8),(95)&7
 11720                           	
 11721  1A03                     l8930:	
 11722  1A03  170B               	bsf	(94/8),(94)&7
 11723                           	
 11724  1A04                     l8932:	
 11725  1A04  1683               	bsf	status, 5	;RP0=1, select bank1
 11726  1A05  1303               	bcf	status, 6	;RP1=0, select bank1
 11727  1A06  168C               	bsf	(1125/8)^080h,(1125)&7
 11728                           	line	23
 11729                           	
 11730  1A07                     l2868:	
 11731  1A07  0008               	return
 11732                           	opt stack 0
 11733                           GLOBAL	__end_of_Uart_Init
 11734  1A08                     	__end_of_Uart_Init:
 11735 ;; =============== function _Uart_Init ends ============
 11736                           
 11737                           	signat	_Uart_Init,88
 11738                           	global	_Beep_Init
 11739                           psect	text959,local,class=CODE,delta=2
 11740                           global __ptext959
 11741  1984                     __ptext959:
 11742                           
 11743 ;; *************** function _Beep_Init *****************
 11744 ;; Defined at:
 11745 ;;		line 3 in file "E:\MPLAB_IDE\JY62\beep.c"
 11746 ;; Parameters:    Size  Location     Type
 11747 ;;		None
 11748 ;; Auto vars:     Size  Location     Type
 11749 ;;		None
 11750 ;; Return value:  Size  Location     Type
 11751 ;;		None               void
 11752 ;; Registers used:
 11753 ;;		status,2
 11754 ;; Tracked objects:
 11755 ;;		On entry : 0/0
 11756 ;;		On exit  : 0/0
 11757 ;;		Unchanged: 0/0
 11758 ;; Data sizes:     COMMON   BANK0   BANK1   BANK3   BANK2
 11759 ;;      Params:         0       0       0       0       0
 11760 ;;      Locals:         0       0       0       0       0
 11761 ;;      Temps:          0       0       0       0       0
 11762 ;;      Totals:         0       0       0       0       0
 11763 ;;Total ram usage:        0 bytes
 11764 ;; Hardware stack levels used:    1
 11765 ;; Hardware stack levels required when called:    4
 11766 ;; This function calls:
 11767 ;;		Nothing
 11768 ;; This function is called by:
 11769 ;;		_main
 11770 ;; This function uses a non-reentrant model
 11771 ;;
 11772                           psect	text959
 11773                           	file	"E:\MPLAB_IDE\JY62\beep.c"
 11774                           	line	3
 11775                           	global	__size_of_Beep_Init
 11776  0007                     	__size_of_Beep_Init	equ	__end_of_Beep_Init-_Beep_Init
 11777                           	
 11778  1984                     _Beep_Init:	
 11779                           	opt	stack 3
 11780                           ; Regs used in _Beep_Init: [status,2]
 11781                           	line	4
 11782                           	
 11783  1984                     l8916:	
 11784                           ;beep.c: 4: TRISE = 0x00;
 11785  1984  1683               	bsf	status, 5	;RP0=1, select bank1
 11786  1985  1303               	bcf	status, 6	;RP1=0, select bank1
 11787  1986  0189               	clrf	(137)^080h	;volatile
 11788                           	line	5
 11789                           	
 11790  1987                     l8918:	
 11791                           ;beep.c: 5: RE0 = 0;
 11792  1987  1283               	bcf	status, 5	;RP0=0, select bank0
 11793  1988  1303               	bcf	status, 6	;RP1=0, select bank0
 11794  1989  1009               	bcf	(72/8),(72)&7
 11795                           	line	6
 11796                           	
 11797  198A                     l4262:	
 11798  198A  0008               	return
 11799                           	opt stack 0
 11800                           GLOBAL	__end_of_Beep_Init
 11801  198B                     	__end_of_Beep_Init:
 11802 ;; =============== function _Beep_Init ends ============
 11803                           
 11804                           	signat	_Beep_Init,88
 11805                           	global	_KEY_Init
 11806                           psect	text960,local,class=CODE,delta=2
 11807                           global __ptext960
 11808  197E                     __ptext960:
 11809                           
 11810 ;; *************** function _KEY_Init *****************
 11811 ;; Defined at:
 11812 ;;		line 11 in file "E:\MPLAB_IDE\JY62\KEY.c"
 11813 ;; Parameters:    Size  Location     Type
 11814 ;;		None
 11815 ;; Auto vars:     Size  Location     Type
 11816 ;;		None
 11817 ;; Return value:  Size  Location     Type
 11818 ;;		None               void
 11819 ;; Registers used:
 11820 ;;		wreg
 11821 ;; Tracked objects:
 11822 ;;		On entry : 0/0
 11823 ;;		On exit  : 0/0
 11824 ;;		Unchanged: 0/0
 11825 ;; Data sizes:     COMMON   BANK0   BANK1   BANK3   BANK2
 11826 ;;      Params:         0       0       0       0       0
 11827 ;;      Locals:         0       0       0       0       0
 11828 ;;      Temps:          0       0       0       0       0
 11829 ;;      Totals:         0       0       0       0       0
 11830 ;;Total ram usage:        0 bytes
 11831 ;; Hardware stack levels used:    1
 11832 ;; Hardware stack levels required when called:    4
 11833 ;; This function calls:
 11834 ;;		Nothing
 11835 ;; This function is called by:
 11836 ;;		_main
 11837 ;; This function uses a non-reentrant model
 11838 ;;
 11839                           psect	text960
 11840                           	file	"E:\MPLAB_IDE\JY62\KEY.c"
 11841                           	line	11
 11842                           	global	__size_of_KEY_Init
 11843  0006                     	__size_of_KEY_Init	equ	__end_of_KEY_Init-_KEY_Init
 11844                           	
 11845  197E                     _KEY_Init:	
 11846                           	opt	stack 3
 11847                           ; Regs used in _KEY_Init: [wreg]
 11848                           	line	12
 11849                           	
 11850  197E                     l8814:	
 11851                           ;KEY.c: 12: TRISB = 0X0F;
 11852  197E  300F               	movlw	(0Fh)
 11853  197F  1683               	bsf	status, 5	;RP0=1, select bank1
 11854  1980  1303               	bcf	status, 6	;RP1=0, select bank1
 11855  1981  0086               	movwf	(134)^080h	;volatile
 11856                           	line	13
 11857                           	
 11858  1982                     l8816:	
 11859                           ;KEY.c: 13: nRBPU = 0;
 11860  1982  1381               	bcf	(1039/8)^080h,(1039)&7
 11861                           	line	14
 11862                           	
 11863  1983                     l1418:	
 11864  1983  0008               	return
 11865                           	opt stack 0
 11866                           GLOBAL	__end_of_KEY_Init
 11867  1984                     	__end_of_KEY_Init:
 11868 ;; =============== function _KEY_Init ends ============
 11869                           
 11870                           	signat	_KEY_Init,88
 11871                           	global	_DELAY
 11872                           psect	text961,local,class=CODE,delta=2
 11873                           global __ptext961
 11874  1A22                     __ptext961:
 11875                           
 11876 ;; *************** function _DELAY *****************
 11877 ;; Defined at:
 11878 ;;		line 4 in file "E:\MPLAB_IDE\JY62\LCD.c"
 11879 ;; Parameters:    Size  Location     Type
 11880 ;;		None
 11881 ;; Auto vars:     Size  Location     Type
 11882 ;;  i               2    0[BANK1 ] unsigned int 
 11883 ;; Return value:  Size  Location     Type
 11884 ;;		None               void
 11885 ;; Registers used:
 11886 ;;		wreg, status,2, status,0
 11887 ;; Tracked objects:
 11888 ;;		On entry : 0/0
 11889 ;;		On exit  : 0/0
 11890 ;;		Unchanged: 0/0
 11891 ;; Data sizes:     COMMON   BANK0   BANK1   BANK3   BANK2
 11892 ;;      Params:         0       0       0       0       0
 11893 ;;      Locals:         0       0       2       0       0
 11894 ;;      Temps:          0       0       0       0       0
 11895 ;;      Totals:         0       0       2       0       0
 11896 ;;Total ram usage:        2 bytes
 11897 ;; Hardware stack levels used:    1
 11898 ;; Hardware stack levels required when called:    4
 11899 ;; This function calls:
 11900 ;;		Nothing
 11901 ;; This function is called by:
 11902 ;;		_ENABLE
 11903 ;;		_ENABLE1
 11904 ;;		_LCD_Init
 11905 ;;		_LCD_Clear
 11906 ;;		_LCD_ShowString
 11907 ;;		_KEY_ShowTest
 11908 ;; This function uses a non-reentrant model
 11909 ;;
 11910                           psect	text961
 11911                           	file	"E:\MPLAB_IDE\JY62\LCD.c"
 11912                           	line	4
 11913                           	global	__size_of_DELAY
 11914  001C                     	__size_of_DELAY	equ	__end_of_DELAY-_DELAY
 11915                           	
 11916  1A22                     _DELAY:	
 11917                           	opt	stack 1
 11918                           ; Regs used in _DELAY: [wreg+status,2+status,0]
 11919                           	line	6
 11920                           	
 11921  1A22                     l8802:	
 11922                           ;LCD.c: 5: unsigned int i;
 11923                           ;LCD.c: 6: for (i = 999; i > 0; i--);
 11924  1A22  30E7               	movlw	low(03E7h)
 11925  1A23  1683               	bsf	status, 5	;RP0=1, select bank1
 11926  1A24  1303               	bcf	status, 6	;RP1=0, select bank1
 11927  1A25  00A0               	movwf	(DELAY@i)^080h
 11928  1A26  3003               	movlw	high(03E7h)
 11929  1A27  00A1               	movwf	((DELAY@i)^080h)+1
 11930                           	
 11931  1A28                     l8804:	
 11932  1A28  0821               	movf	((DELAY@i+1)^080h),w
 11933  1A29  0420               	iorwf	((DELAY@i)^080h),w
 11934  1A2A  1D03               	skipz
 11935  1A2B  2A2D               	goto	u3941
 11936  1A2C  2A2E               	goto	u3940
 11937  1A2D                     u3941:
 11938  1A2D  2A30               	goto	l8808
 11939  1A2E                     u3940:
 11940  1A2E  2A3D               	goto	l689
 11941                           	
 11942  1A2F                     l8806:	
 11943  1A2F  2A3D               	goto	l689
 11944                           	
 11945  1A30                     l687:	
 11946                           	
 11947  1A30                     l8808:	
 11948  1A30  3001               	movlw	low(01h)
 11949  1A31  02A0               	subwf	(DELAY@i)^080h,f
 11950  1A32  3000               	movlw	high(01h)
 11951  1A33  1C03               	skipc
 11952  1A34  03A1               	decf	(DELAY@i+1)^080h,f
 11953  1A35  02A1               	subwf	(DELAY@i+1)^080h,f
 11954                           	
 11955  1A36                     l8810:	
 11956  1A36  0821               	movf	((DELAY@i+1)^080h),w
 11957  1A37  0420               	iorwf	((DELAY@i)^080h),w
 11958  1A38  1D03               	skipz
 11959  1A39  2A3B               	goto	u3951
 11960  1A3A  2A3C               	goto	u3950
 11961  1A3B                     u3951:
 11962  1A3B  2A30               	goto	l8808
 11963  1A3C                     u3950:
 11964  1A3C  2A3D               	goto	l689
 11965                           	
 11966  1A3D                     l688:	
 11967                           	line	7
 11968                           	
 11969  1A3D                     l689:	
 11970  1A3D  0008               	return
 11971                           	opt stack 0
 11972                           GLOBAL	__end_of_DELAY
 11973  1A3E                     	__end_of_DELAY:
 11974 ;; =============== function _DELAY ends ============
 11975                           
 11976                           	signat	_DELAY,88
 11977                           	global	_uart_service
 11978                           psect	text962,local,class=CODE,delta=2
 11979                           global __ptext962
 11980  1A3E                     __ptext962:
 11981                           
 11982 ;; *************** function _uart_service *****************
 11983 ;; Defined at:
 11984 ;;		line 26 in file "E:\MPLAB_IDE\JY62\JY62.c"
 11985 ;; Parameters:    Size  Location     Type
 11986 ;;		None
 11987 ;; Auto vars:     Size  Location     Type
 11988 ;;  RxData          1   44[BANK0 ] unsigned char 
 11989 ;; Return value:  Size  Location     Type
 11990 ;;		None               void
 11991 ;; Registers used:
 11992 ;;		wreg, fsr0l, fsr0h, fsr1l, fsr1h, status,2, status,0, btemp+1, pclath, cstack
 11993 ;; Tracked objects:
 11994 ;;		On entry : 0/0
 11995 ;;		On exit  : 0/0
 11996 ;;		Unchanged: 0/0
 11997 ;; Data sizes:     COMMON   BANK0   BANK1   BANK3   BANK2
 11998 ;;      Params:         0       0       0       0       0
 11999 ;;      Locals:         0       1       0       0       0
 12000 ;;      Temps:          0       5       0       0       0
 12001 ;;      Totals:         0       6       0       0       0
 12002 ;;Total ram usage:        6 bytes
 12003 ;; Hardware stack levels used:    1
 12004 ;; Hardware stack levels required when called:    3
 12005 ;; This function calls:
 12006 ;;		_JY62_ReceiveData
 12007 ;; This function is called by:
 12008 ;;		Interrupt level 1
 12009 ;; This function uses a non-reentrant model
 12010 ;;
 12011                           psect	text962
 12012                           	file	"E:\MPLAB_IDE\JY62\JY62.c"
 12013                           	line	26
 12014                           	global	__size_of_uart_service
 12015  001E                     	__size_of_uart_service	equ	__end_of_uart_service-_uart_service
 12016                           	
 12017  1A3E                     _uart_service:	
 12018 ;; hardware stack exceeded
 12019                           	opt	stack 0
 12020                           ; Regs used in _uart_service: [allreg]
 12021                           psect	intentry,class=CODE,delta=2
 12022                           global __pintentry
 12023  0004                     __pintentry:
 12024                           global interrupt_function
 12025  0004                     interrupt_function:
 12026                           	global saved_w
 12027  007E                     	saved_w	set	btemp+0
 12028  0004  00FE               	movwf	saved_w
 12029  0005  0E03               	swapf	status,w
 12030  0006  1283               	bcf	status, 5	;RP0=0, select bank0
 12031  0007  1303               	bcf	status, 6	;RP1=0, select bank0
 12032  0008  00C8               	movwf	(??_uart_service+1)
 12033  0009  0804               	movf	fsr0,w
 12034  000A  00C9               	movwf	(??_uart_service+2)
 12035  000B  080A               	movf	pclath,w
 12036  000C  00CA               	movwf	(??_uart_service+3)
 12037  000D  087F               	movf	btemp+1,w
 12038  000E  00CB               	movwf	(??_uart_service+4)
 12039  000F  160A  158A  2A3E   	ljmp	_uart_service
 12040                           psect	text962
 12041                           	line	28
 12042                           	
 12043  1A3E                     i1l8934:	
 12044                           ;JY62.c: 28: if (RCIF) {
 12045  1A3E  1E8C               	btfss	(101/8),(101)&7
 12046  1A3F  2A41               	goto	u401_21
 12047  1A40  2A42               	goto	u401_20
 12048  1A41                     u401_21:
 12049  1A41  2A4F               	goto	i1l2872
 12050  1A42                     u401_20:
 12051                           	line	30
 12052                           	
 12053  1A42                     i1l8936:	
 12054                           ;JY62.c: 30: RE0 = !RE0;
 12055  1A42  3001               	movlw	1<<((72)&7)
 12056  1A43  0689               	xorwf	((72)/8),f
 12057                           	line	34
 12058                           ;JY62.c: 33: uint8_t RxData;
 12059                           ;JY62.c: 34: RxData = RCREG;
 12060  1A44  081A               	movf	(26),w	;volatile
 12061  1A45  00C7               	movwf	(??_uart_service+0)+0
 12062  1A46  0847               	movf	(??_uart_service+0)+0,w
 12063  1A47  00CC               	movwf	(uart_service@RxData)
 12064                           	line	35
 12065                           	
 12066  1A48                     i1l8938:	
 12067                           ;JY62.c: 35: JY62_ReceiveData(RxData);
 12068  1A48  084C               	movf	(uart_service@RxData),w
 12069  1A49  160A  118A  2697   	fcall	_JY62_ReceiveData
              160A  158A         
 12070  1A4E  2A4F               	goto	i1l2872
 12071                           	line	36
 12072                           	
 12073  1A4F                     i1l2871:	
 12074                           	line	37
 12075                           	
 12076  1A4F                     i1l2872:	
 12077  1A4F  1283               	bcf	status, 5	;RP0=0, select bank0
 12078  1A50  1303               	bcf	status, 6	;RP1=0, select bank0
 12079  1A51  084B               	movf	(??_uart_service+4),w
 12080  1A52  00FF               	movwf	btemp+1
 12081  1A53  084A               	movf	(??_uart_service+3),w
 12082  1A54  008A               	movwf	pclath
 12083  1A55  0849               	movf	(??_uart_service+2),w
 12084  1A56  0084               	movwf	fsr0
 12085  1A57  0E48               	swapf	(??_uart_service+1)^00h,w
 12086  1A58  0083               	movwf	status
 12087  1A59  0EFE               	swapf	saved_w,f
 12088  1A5A  0E7E               	swapf	saved_w,w
 12089  1A5B  0009               	retfie
 12090                           	opt stack 0
 12091                           GLOBAL	__end_of_uart_service
 12092  1A5C                     	__end_of_uart_service:
 12093 ;; =============== function _uart_service ends ============
 12094                           
 12095                           	signat	_uart_service,88
 12096                           	global	_JY62_ReceiveData
 12097                           psect	text963,local,class=CODE,delta=2
 12098                           global __ptext963
 12099  1697                     __ptext963:
 12100                           
 12101 ;; *************** function _JY62_ReceiveData *****************
 12102 ;; Defined at:
 12103 ;;		line 40 in file "E:\MPLAB_IDE\JY62\JY62.c"
 12104 ;; Parameters:    Size  Location     Type
 12105 ;;  RxData          1    wreg     unsigned char 
 12106 ;; Auto vars:     Size  Location     Type
 12107 ;;  RxData          1   38[BANK0 ] unsigned char 
 12108 ;;  i               1   37[BANK0 ] unsigned char 
 12109 ;;  sum             1   36[BANK0 ] unsigned char 
 12110 ;; Return value:  Size  Location     Type
 12111 ;;		None               void
 12112 ;; Registers used:
 12113 ;;		wreg, fsr0l, fsr0h, status,2, status,0, btemp+1, pclath, cstack
 12114 ;; Tracked objects:
 12115 ;;		On entry : 0/0
 12116 ;;		On exit  : 0/0
 12117 ;;		Unchanged: 0/0
 12118 ;; Data sizes:     COMMON   BANK0   BANK1   BANK3   BANK2
 12119 ;;      Params:         0       0       0       0       0
 12120 ;;      Locals:         0       3       0       0       0
 12121 ;;      Temps:          0       4       0       0       0
 12122 ;;      Totals:         0       7       0       0       0
 12123 ;;Total ram usage:        7 bytes
 12124 ;; Hardware stack levels used:    1
 12125 ;; Hardware stack levels required when called:    2
 12126 ;; This function calls:
 12127 ;;		i1___awtoft
 12128 ;;		___ftdiv
 12129 ;;		i1___ftmul
 12130 ;; This function is called by:
 12131 ;;		_uart_service
 12132 ;; This function uses a non-reentrant model
 12133 ;;
 12134                           psect	text963
 12135                           	file	"E:\MPLAB_IDE\JY62\JY62.c"
 12136                           	line	40
 12137                           	global	__size_of_JY62_ReceiveData
 12138  0169                     	__size_of_JY62_ReceiveData	equ	__end_of_JY62_ReceiveData-_JY62_ReceiveData
 12139                           	
 12140  1697                     _JY62_ReceiveData:	
 12141 ;; hardware stack exceeded
 12142                           	opt	stack 0
 12143                           ; Regs used in _JY62_ReceiveData: [wreg-fsr0h+status,2+status,0+btemp+1+pclath+cstack]
 12144                           ;JY62_ReceiveData@RxData stored from wreg
 12145  1697  1283               	bcf	status, 5	;RP0=0, select bank0
 12146  1698  1303               	bcf	status, 6	;RP1=0, select bank0
 12147  1699  00C6               	movwf	(JY62_ReceiveData@RxData)
 12148                           	line	41
 12149                           	
 12150  169A                     i1l8940:	
 12151                           ;JY62.c: 41: uint8_t i,sum=0;
 12152  169A  01C4               	clrf	(JY62_ReceiveData@sum)
 12153                           	line	43
 12154                           	
 12155  169B                     i1l8942:	
 12156                           ;JY62.c: 43: if (RxState == 0)
 12157  169B  08E9               	movf	(_RxState),f
 12158  169C  1D03               	skipz	;volatile
 12159  169D  2E9F               	goto	u402_21
 12160  169E  2EA0               	goto	u402_20
 12161  169F                     u402_21:
 12162  169F  2EB6               	goto	i1l8952
 12163  16A0                     u402_20:
 12164                           	line	45
 12165                           	
 12166  16A0                     i1l8944:	
 12167                           ;JY62.c: 44: {
 12168                           ;JY62.c: 45: if (RxData == 0x55)
 12169  16A0  0846               	movf	(JY62_ReceiveData@RxData),w
 12170  16A1  3A55               	xorlw	055h
 12171  16A2  1D03               	skipz
 12172  16A3  2EA5               	goto	u403_21
 12173  16A4  2EA6               	goto	u403_20
 12174  16A5                     u403_21:
 12175  16A5  2FFF               	goto	i1l2886
 12176  16A6                     u403_20:
 12177                           	line	47
 12178                           	
 12179  16A6                     i1l8946:	
 12180                           ;JY62.c: 46: {
 12181                           ;JY62.c: 47: RxBuffer[RxIndex] = RxData;
 12182  16A6  0846               	movf	(JY62_ReceiveData@RxData),w
 12183  16A7  00C0               	movwf	(??_JY62_ReceiveData+0)+0
 12184  16A8  0868               	movf	(_RxIndex),w
 12185  16A9  3E5D               	addlw	_RxBuffer&0ffh
 12186  16AA  0084               	movwf	fsr0
 12187  16AB  0840               	movf	(??_JY62_ReceiveData+0)+0,w
 12188  16AC  1383               	bcf	status, 7	;select IRP bank0
 12189  16AD  0080               	movwf	indf
 12190                           	line	48
 12191                           	
 12192  16AE                     i1l8948:	
 12193                           ;JY62.c: 48: RxState = 1;
 12194  16AE  01E9               	clrf	(_RxState)	;volatile
 12195  16AF  1403               	bsf	status,0
 12196  16B0  0DE9               	rlf	(_RxState),f	;volatile
 12197                           	line	49
 12198                           	
 12199  16B1                     i1l8950:	
 12200                           ;JY62.c: 49: RxIndex = 1;
 12201  16B1  01E8               	clrf	(_RxIndex)
 12202  16B2  1403               	bsf	status,0
 12203  16B3  0DE8               	rlf	(_RxIndex),f
 12204  16B4  2FFF               	goto	i1l2886
 12205                           	line	50
 12206                           	
 12207  16B5                     i1l2876:	
 12208                           	line	51
 12209                           ;JY62.c: 50: }
 12210                           ;JY62.c: 51: }
 12211  16B5  2FFF               	goto	i1l2886
 12212                           	line	53
 12213                           	
 12214  16B6                     i1l2875:	
 12215                           	
 12216  16B6                     i1l8952:	
 12217                           ;JY62.c: 53: else if (RxState == 1)
 12218  16B6  0869               	movf	(_RxState),w	;volatile
 12219  16B7  3A01               	xorlw	01h
 12220  16B8  1D03               	skipz
 12221  16B9  2EBB               	goto	u404_21
 12222  16BA  2EBC               	goto	u404_20
 12223  16BB                     u404_21:
 12224  16BB  2ED4               	goto	i1l8962
 12225  16BC                     u404_20:
 12226                           	line	55
 12227                           	
 12228  16BC                     i1l8954:	
 12229                           ;JY62.c: 54: {
 12230                           ;JY62.c: 55: if (RxData == 0x53)
 12231  16BC  0846               	movf	(JY62_ReceiveData@RxData),w
 12232  16BD  3A53               	xorlw	053h
 12233  16BE  1D03               	skipz
 12234  16BF  2EC1               	goto	u405_21
 12235  16C0  2EC2               	goto	u405_20
 12236  16C1                     u405_21:
 12237  16C1  2FFF               	goto	i1l2886
 12238  16C2                     u405_20:
 12239                           	line	57
 12240                           	
 12241  16C2                     i1l8956:	
 12242                           ;JY62.c: 56: {
 12243                           ;JY62.c: 57: RxBuffer[RxIndex] = RxData;
 12244  16C2  0846               	movf	(JY62_ReceiveData@RxData),w
 12245  16C3  00C0               	movwf	(??_JY62_ReceiveData+0)+0
 12246  16C4  0868               	movf	(_RxIndex),w
 12247  16C5  3E5D               	addlw	_RxBuffer&0ffh
 12248  16C6  0084               	movwf	fsr0
 12249  16C7  0840               	movf	(??_JY62_ReceiveData+0)+0,w
 12250  16C8  1383               	bcf	status, 7	;select IRP bank0
 12251  16C9  0080               	movwf	indf
 12252                           	line	58
 12253                           	
 12254  16CA                     i1l8958:	
 12255                           ;JY62.c: 58: RxState = 2;
 12256  16CA  3002               	movlw	(02h)
 12257  16CB  00C0               	movwf	(??_JY62_ReceiveData+0)+0
 12258  16CC  0840               	movf	(??_JY62_ReceiveData+0)+0,w
 12259  16CD  00E9               	movwf	(_RxState)	;volatile
 12260                           	line	59
 12261                           	
 12262  16CE                     i1l8960:	
 12263                           ;JY62.c: 59: RxIndex = 2;
 12264  16CE  3002               	movlw	(02h)
 12265  16CF  00C0               	movwf	(??_JY62_ReceiveData+0)+0
 12266  16D0  0840               	movf	(??_JY62_ReceiveData+0)+0,w
 12267  16D1  00E8               	movwf	(_RxIndex)
 12268  16D2  2FFF               	goto	i1l2886
 12269                           	line	60
 12270                           	
 12271  16D3                     i1l2879:	
 12272                           	line	61
 12273                           ;JY62.c: 60: }
 12274                           ;JY62.c: 61: }
 12275  16D3  2FFF               	goto	i1l2886
 12276                           	line	63
 12277                           	
 12278  16D4                     i1l2878:	
 12279                           	
 12280  16D4                     i1l8962:	
 12281                           ;JY62.c: 63: else if (RxState == 2)
 12282  16D4  0869               	movf	(_RxState),w	;volatile
 12283  16D5  3A02               	xorlw	02h
 12284  16D6  1D03               	skipz
 12285  16D7  2ED9               	goto	u406_21
 12286  16D8  2EDA               	goto	u406_20
 12287  16D9                     u406_21:
 12288  16D9  2FFF               	goto	i1l2886
 12289  16DA                     u406_20:
 12290                           	line	65
 12291                           	
 12292  16DA                     i1l8964:	
 12293                           ;JY62.c: 64: {
 12294                           ;JY62.c: 65: RxBuffer[RxIndex++] = RxData;
 12295  16DA  0846               	movf	(JY62_ReceiveData@RxData),w
 12296  16DB  00C0               	movwf	(??_JY62_ReceiveData+0)+0
 12297  16DC  0868               	movf	(_RxIndex),w
 12298  16DD  3E5D               	addlw	_RxBuffer&0ffh
 12299  16DE  0084               	movwf	fsr0
 12300  16DF  0840               	movf	(??_JY62_ReceiveData+0)+0,w
 12301  16E0  1383               	bcf	status, 7	;select IRP bank0
 12302  16E1  0080               	movwf	indf
 12303                           	
 12304  16E2                     i1l8966:	
 12305  16E2  3001               	movlw	(01h)
 12306  16E3  00C0               	movwf	(??_JY62_ReceiveData+0)+0
 12307  16E4  0840               	movf	(??_JY62_ReceiveData+0)+0,w
 12308  16E5  07E8               	addwf	(_RxIndex),f
 12309                           	line	66
 12310                           	
 12311  16E6                     i1l8968:	
 12312                           ;JY62.c: 66: if(RxIndex == 11)
 12313  16E6  0868               	movf	(_RxIndex),w
 12314  16E7  3A0B               	xorlw	0Bh
 12315  16E8  1D03               	skipz
 12316  16E9  2EEB               	goto	u407_21
 12317  16EA  2EEC               	goto	u407_20
 12318  16EB                     u407_21:
 12319  16EB  2FFF               	goto	i1l2886
 12320  16EC                     u407_20:
 12321                           	line	68
 12322                           	
 12323  16EC                     i1l8970:	
 12324                           ;JY62.c: 67: {
 12325                           ;JY62.c: 68: for(i=0;i<10;i++)
 12326  16EC  01C5               	clrf	(JY62_ReceiveData@i)
 12327                           	
 12328  16ED                     i1l8972:	
 12329  16ED  300A               	movlw	(0Ah)
 12330  16EE  0245               	subwf	(JY62_ReceiveData@i),w
 12331  16EF  1C03               	skipc
 12332  16F0  2EF2               	goto	u408_21
 12333  16F1  2EF3               	goto	u408_20
 12334  16F2                     u408_21:
 12335  16F2  2EF5               	goto	i1l8976
 12336  16F3                     u408_20:
 12337  16F3  2F08               	goto	i1l8982
 12338                           	
 12339  16F4                     i1l8974:	
 12340  16F4  2F08               	goto	i1l8982
 12341                           	line	69
 12342                           	
 12343  16F5                     i1l2883:	
 12344                           	line	70
 12345                           	
 12346  16F5                     i1l8976:	
 12347                           ;JY62.c: 69: {
 12348                           ;JY62.c: 70: sum = sum + RxBuffer[i];
 12349  16F5  0845               	movf	(JY62_ReceiveData@i),w
 12350  16F6  3E5D               	addlw	_RxBuffer&0ffh
 12351  16F7  0084               	movwf	fsr0
 12352  16F8  0844               	movf	(JY62_ReceiveData@sum),w
 12353  16F9  0700               	addwf	indf,w
 12354  16FA  00C0               	movwf	(??_JY62_ReceiveData+0)+0
 12355  16FB  0840               	movf	(??_JY62_ReceiveData+0)+0,w
 12356  16FC  00C4               	movwf	(JY62_ReceiveData@sum)
 12357                           	line	68
 12358                           	
 12359  16FD                     i1l8978:	
 12360  16FD  3001               	movlw	(01h)
 12361  16FE  00C0               	movwf	(??_JY62_ReceiveData+0)+0
 12362  16FF  0840               	movf	(??_JY62_ReceiveData+0)+0,w
 12363  1700  07C5               	addwf	(JY62_ReceiveData@i),f
 12364                           	
 12365  1701                     i1l8980:	
 12366  1701  300A               	movlw	(0Ah)
 12367  1702  0245               	subwf	(JY62_ReceiveData@i),w
 12368  1703  1C03               	skipc
 12369  1704  2F06               	goto	u409_21
 12370  1705  2F07               	goto	u409_20
 12371  1706                     u409_21:
 12372  1706  2EF5               	goto	i1l8976
 12373  1707                     u409_20:
 12374  1707  2F08               	goto	i1l8982
 12375                           	
 12376  1708                     i1l2884:	
 12377                           	line	72
 12378                           	
 12379  1708                     i1l8982:	
 12380                           ;JY62.c: 71: }
 12381                           ;JY62.c: 72: if(sum == RxBuffer[10])
 12382  1708  0867               	movf	0+(_RxBuffer)+0Ah,w
 12383  1709  0644               	xorwf	(JY62_ReceiveData@sum),w
 12384  170A  1D03               	skipz
 12385  170B  2F0D               	goto	u410_21
 12386  170C  2F0E               	goto	u410_20
 12387  170D                     u410_21:
 12388  170D  2FF7               	goto	i1l8986
 12389  170E                     u410_20:
 12390                           	line	75
 12391                           	
 12392  170E                     i1l8984:	
 12393                           ;JY62.c: 73: {
 12394                           ;JY62.c: 75: Roll = ((int16_t) ((int16_t) RxBuffer[3] << 8 | (int16_t) RxBuffer[2])) / 3
                                 2768.0 * 180;
 12395  170E  3000               	movlw	0x0
 12396  170F  00B0               	movwf	(?i1___ftmul)
 12397  1710  3034               	movlw	0x34
 12398  1711  00B1               	movwf	(?i1___ftmul+1)
 12399  1712  3043               	movlw	0x43
 12400  1713  00B2               	movwf	(?i1___ftmul+2)
 12401  1714  3000               	movlw	0x0
 12402  1715  00A0               	movwf	(?___ftdiv)
 12403  1716  3000               	movlw	0x0
 12404  1717  00A1               	movwf	(?___ftdiv+1)
 12405  1718  3047               	movlw	0x47
 12406  1719  00A2               	movwf	(?___ftdiv+2)
 12407  171A  085F               	movf	0+(_RxBuffer)+02h,w
 12408  171B  00C0               	movwf	(??_JY62_ReceiveData+0)+0
 12409  171C  01C1               	clrf	(??_JY62_ReceiveData+0)+0+1
 12410  171D  0860               	movf	0+(_RxBuffer)+03h,w
 12411  171E  00C2               	movwf	(??_JY62_ReceiveData+2)+0
 12412  171F  01C3               	clrf	(??_JY62_ReceiveData+2)+0+1
 12413  1720  0842               	movf	(??_JY62_ReceiveData+2)+0,w
 12414  1721  00C3               	movwf	(??_JY62_ReceiveData+2)+1
 12415  1722  01C2               	clrf	(??_JY62_ReceiveData+2)+0
 12416  1723  0840               	movf	0+(??_JY62_ReceiveData+0)+0,w
 12417  1724  0442               	iorwf	0+(??_JY62_ReceiveData+2)+0,w
 12418  1725  00F8               	movwf	(?i1___awtoft)
 12419  1726  0841               	movf	1+(??_JY62_ReceiveData+0)+0,w
 12420  1727  0443               	iorwf	1+(??_JY62_ReceiveData+2)+0,w
 12421  1728  00F9               	movwf	1+(?i1___awtoft)
 12422  1729  160A  158A  229F   	fcall	i1___awtoft
              160A  118A         
 12423  172E  0878               	movf	(0+(?i1___awtoft)),w
 12424  172F  1283               	bcf	status, 5	;RP0=0, select bank0
 12425  1730  1303               	bcf	status, 6	;RP1=0, select bank0
 12426  1731  00A3               	movwf	0+(?___ftdiv)+03h
 12427  1732  0879               	movf	(1+(?i1___awtoft)),w
 12428  1733  00A4               	movwf	1+(?___ftdiv)+03h
 12429  1734  087A               	movf	(2+(?i1___awtoft)),w
 12430  1735  00A5               	movwf	2+(?___ftdiv)+03h
 12431  1736  160A  118A  21BC   	fcall	___ftdiv
              160A  118A         
 12432  173B  1283               	bcf	status, 5	;RP0=0, select bank0
 12433  173C  1303               	bcf	status, 6	;RP1=0, select bank0
 12434  173D  0820               	movf	(0+(?___ftdiv)),w
 12435  173E  00B3               	movwf	0+(?i1___ftmul)+03h
 12436  173F  0821               	movf	(1+(?___ftdiv)),w
 12437  1740  00B4               	movwf	1+(?i1___ftmul)+03h
 12438  1741  0822               	movf	(2+(?___ftdiv)),w
 12439  1742  00B5               	movwf	2+(?i1___ftmul)+03h
 12440  1743  160A  118A  2366   	fcall	i1___ftmul
              160A  118A         
 12441  1748  1283               	bcf	status, 5	;RP0=0, select bank0
 12442  1749  1303               	bcf	status, 6	;RP1=0, select bank0
 12443  174A  0830               	movf	(0+(?i1___ftmul)),w
 12444  174B  1683               	bsf	status, 5	;RP0=1, select bank3
 12445  174C  1703               	bsf	status, 6	;RP1=1, select bank3
 12446  174D  00CE               	movwf	(_Roll)^0180h
 12447  174E  1283               	bcf	status, 5	;RP0=0, select bank0
 12448  174F  1303               	bcf	status, 6	;RP1=0, select bank0
 12449  1750  0831               	movf	(1+(?i1___ftmul)),w
 12450  1751  1683               	bsf	status, 5	;RP0=1, select bank3
 12451  1752  1703               	bsf	status, 6	;RP1=1, select bank3
 12452  1753  00CF               	movwf	(_Roll+1)^0180h
 12453  1754  1283               	bcf	status, 5	;RP0=0, select bank0
 12454  1755  1303               	bcf	status, 6	;RP1=0, select bank0
 12455  1756  0832               	movf	(2+(?i1___ftmul)),w
 12456  1757  1683               	bsf	status, 5	;RP0=1, select bank3
 12457  1758  1703               	bsf	status, 6	;RP1=1, select bank3
 12458  1759  00D0               	movwf	(_Roll+2)^0180h
 12459                           	line	76
 12460                           ;JY62.c: 76: Pitch = ((int16_t) ((int16_t) RxBuffer[5] << 8 | (int16_t) RxBuffer[4])) / 
                                 32768.0 * 180;
 12461  175A  3000               	movlw	0x0
 12462  175B  1283               	bcf	status, 5	;RP0=0, select bank0
 12463  175C  1303               	bcf	status, 6	;RP1=0, select bank0
 12464  175D  00B0               	movwf	(?i1___ftmul)
 12465  175E  3034               	movlw	0x34
 12466  175F  00B1               	movwf	(?i1___ftmul+1)
 12467  1760  3043               	movlw	0x43
 12468  1761  00B2               	movwf	(?i1___ftmul+2)
 12469  1762  3000               	movlw	0x0
 12470  1763  00A0               	movwf	(?___ftdiv)
 12471  1764  3000               	movlw	0x0
 12472  1765  00A1               	movwf	(?___ftdiv+1)
 12473  1766  3047               	movlw	0x47
 12474  1767  00A2               	movwf	(?___ftdiv+2)
 12475  1768  0861               	movf	0+(_RxBuffer)+04h,w
 12476  1769  00C0               	movwf	(??_JY62_ReceiveData+0)+0
 12477  176A  01C1               	clrf	(??_JY62_ReceiveData+0)+0+1
 12478  176B  0862               	movf	0+(_RxBuffer)+05h,w
 12479  176C  00C2               	movwf	(??_JY62_ReceiveData+2)+0
 12480  176D  01C3               	clrf	(??_JY62_ReceiveData+2)+0+1
 12481  176E  0842               	movf	(??_JY62_ReceiveData+2)+0,w
 12482  176F  00C3               	movwf	(??_JY62_ReceiveData+2)+1
 12483  1770  01C2               	clrf	(??_JY62_ReceiveData+2)+0
 12484  1771  0840               	movf	0+(??_JY62_ReceiveData+0)+0,w
 12485  1772  0442               	iorwf	0+(??_JY62_ReceiveData+2)+0,w
 12486  1773  00F8               	movwf	(?i1___awtoft)
 12487  1774  0841               	movf	1+(??_JY62_ReceiveData+0)+0,w
 12488  1775  0443               	iorwf	1+(??_JY62_ReceiveData+2)+0,w
 12489  1776  00F9               	movwf	1+(?i1___awtoft)
 12490  1777  160A  158A  229F   	fcall	i1___awtoft
              160A  118A         
 12491  177C  0878               	movf	(0+(?i1___awtoft)),w
 12492  177D  1283               	bcf	status, 5	;RP0=0, select bank0
 12493  177E  1303               	bcf	status, 6	;RP1=0, select bank0
 12494  177F  00A3               	movwf	0+(?___ftdiv)+03h
 12495  1780  0879               	movf	(1+(?i1___awtoft)),w
 12496  1781  00A4               	movwf	1+(?___ftdiv)+03h
 12497  1782  087A               	movf	(2+(?i1___awtoft)),w
 12498  1783  00A5               	movwf	2+(?___ftdiv)+03h
 12499  1784  160A  118A  21BC   	fcall	___ftdiv
              160A  118A         
 12500  1789  1283               	bcf	status, 5	;RP0=0, select bank0
 12501  178A  1303               	bcf	status, 6	;RP1=0, select bank0
 12502  178B  0820               	movf	(0+(?___ftdiv)),w
 12503  178C  00B3               	movwf	0+(?i1___ftmul)+03h
 12504  178D  0821               	movf	(1+(?___ftdiv)),w
 12505  178E  00B4               	movwf	1+(?i1___ftmul)+03h
 12506  178F  0822               	movf	(2+(?___ftdiv)),w
 12507  1790  00B5               	movwf	2+(?i1___ftmul)+03h
 12508  1791  160A  118A  2366   	fcall	i1___ftmul
              160A  118A         
 12509  1796  1283               	bcf	status, 5	;RP0=0, select bank0
 12510  1797  1303               	bcf	status, 6	;RP1=0, select bank0
 12511  1798  0830               	movf	(0+(?i1___ftmul)),w
 12512  1799  1683               	bsf	status, 5	;RP0=1, select bank3
 12513  179A  1703               	bsf	status, 6	;RP1=1, select bank3
 12514  179B  00CB               	movwf	(_Pitch)^0180h
 12515  179C  1283               	bcf	status, 5	;RP0=0, select bank0
 12516  179D  1303               	bcf	status, 6	;RP1=0, select bank0
 12517  179E  0831               	movf	(1+(?i1___ftmul)),w
 12518  179F  1683               	bsf	status, 5	;RP0=1, select bank3
 12519  17A0  1703               	bsf	status, 6	;RP1=1, select bank3
 12520  17A1  00CC               	movwf	(_Pitch+1)^0180h
 12521  17A2  1283               	bcf	status, 5	;RP0=0, select bank0
 12522  17A3  1303               	bcf	status, 6	;RP1=0, select bank0
 12523  17A4  0832               	movf	(2+(?i1___ftmul)),w
 12524  17A5  1683               	bsf	status, 5	;RP0=1, select bank3
 12525  17A6  1703               	bsf	status, 6	;RP1=1, select bank3
 12526  17A7  00CD               	movwf	(_Pitch+2)^0180h
 12527                           	line	77
 12528                           ;JY62.c: 77: Yaw = ((int16_t) ((int16_t) RxBuffer[7] << 8 | (int16_t) RxBuffer[6])) / 32
                                 768.0 * 180;
 12529  17A8  3000               	movlw	0x0
 12530  17A9  1283               	bcf	status, 5	;RP0=0, select bank0
 12531  17AA  1303               	bcf	status, 6	;RP1=0, select bank0
 12532  17AB  00B0               	movwf	(?i1___ftmul)
 12533  17AC  3034               	movlw	0x34
 12534  17AD  00B1               	movwf	(?i1___ftmul+1)
 12535  17AE  3043               	movlw	0x43
 12536  17AF  00B2               	movwf	(?i1___ftmul+2)
 12537  17B0  3000               	movlw	0x0
 12538  17B1  00A0               	movwf	(?___ftdiv)
 12539  17B2  3000               	movlw	0x0
 12540  17B3  00A1               	movwf	(?___ftdiv+1)
 12541  17B4  3047               	movlw	0x47
 12542  17B5  00A2               	movwf	(?___ftdiv+2)
 12543  17B6  0863               	movf	0+(_RxBuffer)+06h,w
 12544  17B7  00C0               	movwf	(??_JY62_ReceiveData+0)+0
 12545  17B8  01C1               	clrf	(??_JY62_ReceiveData+0)+0+1
 12546  17B9  0864               	movf	0+(_RxBuffer)+07h,w
 12547  17BA  00C2               	movwf	(??_JY62_ReceiveData+2)+0
 12548  17BB  01C3               	clrf	(??_JY62_ReceiveData+2)+0+1
 12549  17BC  0842               	movf	(??_JY62_ReceiveData+2)+0,w
 12550  17BD  00C3               	movwf	(??_JY62_ReceiveData+2)+1
 12551  17BE  01C2               	clrf	(??_JY62_ReceiveData+2)+0
 12552  17BF  0840               	movf	0+(??_JY62_ReceiveData+0)+0,w
 12553  17C0  0442               	iorwf	0+(??_JY62_ReceiveData+2)+0,w
 12554  17C1  00F8               	movwf	(?i1___awtoft)
 12555  17C2  0841               	movf	1+(??_JY62_ReceiveData+0)+0,w
 12556  17C3  0443               	iorwf	1+(??_JY62_ReceiveData+2)+0,w
 12557  17C4  00F9               	movwf	1+(?i1___awtoft)
 12558  17C5  160A  158A  229F   	fcall	i1___awtoft
              160A  118A         
 12559  17CA  0878               	movf	(0+(?i1___awtoft)),w
 12560  17CB  1283               	bcf	status, 5	;RP0=0, select bank0
 12561  17CC  1303               	bcf	status, 6	;RP1=0, select bank0
 12562  17CD  00A3               	movwf	0+(?___ftdiv)+03h
 12563  17CE  0879               	movf	(1+(?i1___awtoft)),w
 12564  17CF  00A4               	movwf	1+(?___ftdiv)+03h
 12565  17D0  087A               	movf	(2+(?i1___awtoft)),w
 12566  17D1  00A5               	movwf	2+(?___ftdiv)+03h
 12567  17D2  160A  118A  21BC   	fcall	___ftdiv
              160A  118A         
 12568  17D7  1283               	bcf	status, 5	;RP0=0, select bank0
 12569  17D8  1303               	bcf	status, 6	;RP1=0, select bank0
 12570  17D9  0820               	movf	(0+(?___ftdiv)),w
 12571  17DA  00B3               	movwf	0+(?i1___ftmul)+03h
 12572  17DB  0821               	movf	(1+(?___ftdiv)),w
 12573  17DC  00B4               	movwf	1+(?i1___ftmul)+03h
 12574  17DD  0822               	movf	(2+(?___ftdiv)),w
 12575  17DE  00B5               	movwf	2+(?i1___ftmul)+03h
 12576  17DF  160A  118A  2366   	fcall	i1___ftmul
              160A  118A         
 12577  17E4  1283               	bcf	status, 5	;RP0=0, select bank0
 12578  17E5  1303               	bcf	status, 6	;RP1=0, select bank0
 12579  17E6  0830               	movf	(0+(?i1___ftmul)),w
 12580  17E7  1683               	bsf	status, 5	;RP0=1, select bank3
 12581  17E8  1703               	bsf	status, 6	;RP1=1, select bank3
 12582  17E9  00D1               	movwf	(_Yaw)^0180h
 12583  17EA  1283               	bcf	status, 5	;RP0=0, select bank0
 12584  17EB  1303               	bcf	status, 6	;RP1=0, select bank0
 12585  17EC  0831               	movf	(1+(?i1___ftmul)),w
 12586  17ED  1683               	bsf	status, 5	;RP0=1, select bank3
 12587  17EE  1703               	bsf	status, 6	;RP1=1, select bank3
 12588  17EF  00D2               	movwf	(_Yaw+1)^0180h
 12589  17F0  1283               	bcf	status, 5	;RP0=0, select bank0
 12590  17F1  1303               	bcf	status, 6	;RP1=0, select bank0
 12591  17F2  0832               	movf	(2+(?i1___ftmul)),w
 12592  17F3  1683               	bsf	status, 5	;RP0=1, select bank3
 12593  17F4  1703               	bsf	status, 6	;RP1=1, select bank3
 12594  17F5  00D3               	movwf	(_Yaw+2)^0180h
 12595  17F6  2FF7               	goto	i1l8986
 12596                           	line	78
 12597                           	
 12598  17F7                     i1l2885:	
 12599                           	line	79
 12600                           	
 12601  17F7                     i1l8986:	
 12602                           ;JY62.c: 78: }
 12603                           ;JY62.c: 79: RxState = 0;
 12604  17F7  1283               	bcf	status, 5	;RP0=0, select bank0
 12605  17F8  1303               	bcf	status, 6	;RP1=0, select bank0
 12606  17F9  01E9               	clrf	(_RxState)	;volatile
 12607                           	line	80
 12608                           	
 12609  17FA                     i1l8988:	
 12610                           ;JY62.c: 80: RxIndex = 0;
 12611  17FA  01E8               	clrf	(_RxIndex)
 12612  17FB  2FFF               	goto	i1l2886
 12613                           	line	81
 12614                           	
 12615  17FC                     i1l2882:	
 12616  17FC  2FFF               	goto	i1l2886
 12617                           	line	82
 12618                           	
 12619  17FD                     i1l2881:	
 12620  17FD  2FFF               	goto	i1l2886
 12621                           	line	83
 12622                           	
 12623  17FE                     i1l2880:	
 12624  17FE  2FFF               	goto	i1l2886
 12625                           	
 12626  17FF                     i1l2877:	
 12627                           	
 12628  17FF                     i1l2886:	
 12629  17FF  0008               	return
 12630                           	opt stack 0
 12631                           GLOBAL	__end_of_JY62_ReceiveData
 12632  1800                     	__end_of_JY62_ReceiveData:
 12633 ;; =============== function _JY62_ReceiveData ends ============
 12634                           
 12635                           	signat	_JY62_ReceiveData,4216
 12636                           	global	i1___awtoft
 12637                           psect	text964,local,class=CODE,delta=2
 12638                           global __ptext964
 12639  1A9F                     __ptext964:
 12640                           
 12641 ;; *************** function i1___awtoft *****************
 12642 ;; Defined at:
 12643 ;;		line 33 in file "C:\Program Files (x86)\HI-TECH Software\PICC\9.82\sources\awtoft.c"
 12644 ;; Parameters:    Size  Location     Type
 12645 ;;  __awtoft        2    8[COMMON] int 
 12646 ;; Auto vars:     Size  Location     Type
 12647 ;;  __awtoft        1   13[COMMON] unsigned char 
 12648 ;; Return value:  Size  Location     Type
 12649 ;;                  3    8[COMMON] float 
 12650 ;; Registers used:
 12651 ;;		wreg, status,2, status,0, pclath, cstack
 12652 ;; Tracked objects:
 12653 ;;		On entry : 0/0
 12654 ;;		On exit  : 0/0
 12655 ;;		Unchanged: 0/0
 12656 ;; Data sizes:     COMMON   BANK0   BANK1   BANK3   BANK2
 12657 ;;      Params:         3       0       0       0       0
 12658 ;;      Locals:         1       0       0       0       0
 12659 ;;      Temps:          2       0       0       0       0
 12660 ;;      Totals:         6       0       0       0       0
 12661 ;;Total ram usage:        6 bytes
 12662 ;; Hardware stack levels used:    1
 12663 ;; Hardware stack levels required when called:    1
 12664 ;; This function calls:
 12665 ;;		i1___ftpack
 12666 ;; This function is called by:
 12667 ;;		_JY62_ReceiveData
 12668 ;; This function uses a non-reentrant model
 12669 ;;
 12670                           psect	text964
 12671                           	file	"C:\Program Files (x86)\HI-TECH Software\PICC\9.82\sources\awtoft.c"
 12672                           	line	33
 12673                           	global	__size_ofi1___awtoft
 12674  0028                     	__size_ofi1___awtoft	equ	__end_ofi1___awtoft-i1___awtoft
 12675                           	
 12676  1A9F                     i1___awtoft:	
 12677 ;; hardware stack exceeded
 12678                           	opt	stack 0
 12679                           ; Regs used in i1___awtoft: [wreg+status,2+status,0+pclath+cstack]
 12680                           	line	36
 12681                           	
 12682  1A9F                     i1l9496:	
 12683  1A9F  01FD               	clrf	(i1___awtoft@sign)
 12684                           	line	37
 12685  1AA0  1FF9               	btfss	(i1___awtoft@c+1),7
 12686  1AA1  2AA3               	goto	u531_21
 12687  1AA2  2AA4               	goto	u531_20
 12688  1AA3                     u531_21:
 12689  1AA3  2AAD               	goto	i1l9500
 12690  1AA4                     u531_20:
 12691                           	line	38
 12692                           	
 12693  1AA4                     i1l9498:	
 12694  1AA4  09F8               	comf	(i1___awtoft@c),f
 12695  1AA5  09F9               	comf	(i1___awtoft@c+1),f
 12696  1AA6  0AF8               	incf	(i1___awtoft@c),f
 12697  1AA7  1903               	skipnz
 12698  1AA8  0AF9               	incf	(i1___awtoft@c+1),f
 12699                           	line	39
 12700  1AA9  01FD               	clrf	(i1___awtoft@sign)
 12701  1AAA  1403               	bsf	status,0
 12702  1AAB  0DFD               	rlf	(i1___awtoft@sign),f
 12703  1AAC  2AAD               	goto	i1l9500
 12704                           	line	40
 12705                           	
 12706  1AAD                     i1l5226:	
 12707                           	line	41
 12708                           	
 12709  1AAD                     i1l9500:	
 12710  1AAD  0878               	movf	(i1___awtoft@c),w
 12711  1AAE  00F0               	movwf	(?i1___ftpack)
 12712  1AAF  0879               	movf	(i1___awtoft@c+1),w
 12713  1AB0  00F1               	movwf	(?i1___ftpack+1)
 12714  1AB1  01F2               	clrf	(?i1___ftpack+2)
 12715  1AB2  308E               	movlw	(08Eh)
 12716  1AB3  00FB               	movwf	(??i1___awtoft+0)+0
 12717  1AB4  087B               	movf	(??i1___awtoft+0)+0,w
 12718  1AB5  00F3               	movwf	0+(?i1___ftpack)+03h
 12719  1AB6  087D               	movf	(i1___awtoft@sign),w
 12720  1AB7  00FC               	movwf	(??i1___awtoft+1)+0
 12721  1AB8  087C               	movf	(??i1___awtoft+1)+0,w
 12722  1AB9  00F4               	movwf	0+(?i1___ftpack)+04h
 12723  1ABA  160A  158A  2662   	fcall	i1___ftpack
              160A  158A         
 12724  1ABF  0870               	movf	(0+(?i1___ftpack)),w
 12725  1AC0  00F8               	movwf	(?i1___awtoft)
 12726  1AC1  0871               	movf	(1+(?i1___ftpack)),w
 12727  1AC2  00F9               	movwf	(?i1___awtoft+1)
 12728  1AC3  0872               	movf	(2+(?i1___ftpack)),w
 12729  1AC4  00FA               	movwf	(?i1___awtoft+2)
 12730  1AC5  2AC6               	goto	i1l5227
 12731                           	
 12732  1AC6                     i1l9502:	
 12733                           	line	42
 12734                           	
 12735  1AC6                     i1l5227:	
 12736  1AC6  0008               	return
 12737                           	opt stack 0
 12738                           GLOBAL	__end_ofi1___awtoft
 12739  1AC7                     	__end_ofi1___awtoft:
 12740 ;; =============== function i1___awtoft ends ============
 12741                           
 12742                           	signat	i1___awtoft,91
 12743                           	global	i1___ftmul
 12744                           psect	text965,local,class=CODE,delta=2
 12745                           global __ptext965
 12746  1366                     __ptext965:
 12747                           
 12748 ;; *************** function i1___ftmul *****************
 12749 ;; Defined at:
 12750 ;;		line 52 in file "C:\Program Files (x86)\HI-TECH Software\PICC\9.82\sources\ftmul.c"
 12751 ;; Parameters:    Size  Location     Type
 12752 ;;  __ftmul         3   16[BANK0 ] float 
 12753 ;;  __ftmul         3   19[BANK0 ] float 
 12754 ;; Auto vars:     Size  Location     Type
 12755 ;;  __ftmul         3   27[BANK0 ] unsigned um
 12756 ;;  __ftmul         1   31[BANK0 ] unsigned char 
 12757 ;;  __ftmul         1   30[BANK0 ] unsigned char 
 12758 ;;  __ftmul         1   26[BANK0 ] unsigned char 
 12759 ;; Return value:  Size  Location     Type
 12760 ;;                  3   16[BANK0 ] float 
 12761 ;; Registers used:
 12762 ;;		wreg, status,2, status,0, pclath, cstack
 12763 ;; Tracked objects:
 12764 ;;		On entry : 0/0
 12765 ;;		On exit  : 0/0
 12766 ;;		Unchanged: 0/0
 12767 ;; Data sizes:     COMMON   BANK0   BANK1   BANK3   BANK2
 12768 ;;      Params:         0       6       0       0       0
 12769 ;;      Locals:         0       6       0       0       0
 12770 ;;      Temps:          0       4       0       0       0
 12771 ;;      Totals:         0      16       0       0       0
 12772 ;;Total ram usage:       16 bytes
 12773 ;; Hardware stack levels used:    1
 12774 ;; Hardware stack levels required when called:    1
 12775 ;; This function calls:
 12776 ;;		i1___ftpack
 12777 ;; This function is called by:
 12778 ;;		_JY62_ReceiveData
 12779 ;; This function uses a non-reentrant model
 12780 ;;
 12781                           psect	text965
 12782                           	file	"C:\Program Files (x86)\HI-TECH Software\PICC\9.82\sources\ftmul.c"
 12783                           	line	52
 12784                           	global	__size_ofi1___ftmul
 12785  00EE                     	__size_ofi1___ftmul	equ	__end_ofi1___ftmul-i1___ftmul
 12786                           	
 12787  1366                     i1___ftmul:	
 12788 ;; hardware stack exceeded
 12789                           	opt	stack 0
 12790                           ; Regs used in i1___ftmul: [wreg+status,2+status,0+pclath+cstack]
 12791                           	line	56
 12792                           	
 12793  1366                     i1l9446:	
 12794  1366  1283               	bcf	status, 5	;RP0=0, select bank0
 12795  1367  1303               	bcf	status, 6	;RP1=0, select bank0
 12796  1368  0830               	movf	(i1___ftmul@f1),w
 12797  1369  00B6               	movwf	((??i1___ftmul+0)+0)
 12798  136A  0831               	movf	(i1___ftmul@f1+1),w
 12799  136B  00B7               	movwf	((??i1___ftmul+0)+0+1)
 12800  136C  0832               	movf	(i1___ftmul@f1+2),w
 12801  136D  00B8               	movwf	((??i1___ftmul+0)+0+2)
 12802  136E  1003               	clrc
 12803  136F  0D37               	rlf	(??i1___ftmul+0)+1,w
 12804  1370  0D38               	rlf	(??i1___ftmul+0)+2,w
 12805  1371  00B9               	movwf	(??i1___ftmul+3)+0
 12806  1372  0839               	movf	(??i1___ftmul+3)+0,w
 12807  1373  00BA               	movwf	(i1___ftmul@exp)
 12808  1374  08BA               	movf	((i1___ftmul@exp)),f
 12809  1375  1D03               	skipz
 12810  1376  2B78               	goto	u517_21
 12811  1377  2B79               	goto	u517_20
 12812  1378                     u517_21:
 12813  1378  2B81               	goto	i1l9452
 12814  1379                     u517_20:
 12815                           	line	57
 12816                           	
 12817  1379                     i1l9448:	
 12818  1379  3000               	movlw	0x0
 12819  137A  00B0               	movwf	(?i1___ftmul)
 12820  137B  3000               	movlw	0x0
 12821  137C  00B1               	movwf	(?i1___ftmul+1)
 12822  137D  3000               	movlw	0x0
 12823  137E  00B2               	movwf	(?i1___ftmul+2)
 12824  137F  2C53               	goto	i1l5189
 12825                           	
 12826  1380                     i1l9450:	
 12827  1380  2C53               	goto	i1l5189
 12828                           	
 12829  1381                     i1l5188:	
 12830                           	line	58
 12831                           	
 12832  1381                     i1l9452:	
 12833  1381  0833               	movf	(i1___ftmul@f2),w
 12834  1382  00B6               	movwf	((??i1___ftmul+0)+0)
 12835  1383  0834               	movf	(i1___ftmul@f2+1),w
 12836  1384  00B7               	movwf	((??i1___ftmul+0)+0+1)
 12837  1385  0835               	movf	(i1___ftmul@f2+2),w
 12838  1386  00B8               	movwf	((??i1___ftmul+0)+0+2)
 12839  1387  1003               	clrc
 12840  1388  0D37               	rlf	(??i1___ftmul+0)+1,w
 12841  1389  0D38               	rlf	(??i1___ftmul+0)+2,w
 12842  138A  00B9               	movwf	(??i1___ftmul+3)+0
 12843  138B  0839               	movf	(??i1___ftmul+3)+0,w
 12844  138C  00BF               	movwf	(i1___ftmul@sign)
 12845  138D  08BF               	movf	((i1___ftmul@sign)),f
 12846  138E  1D03               	skipz
 12847  138F  2B91               	goto	u518_21
 12848  1390  2B92               	goto	u518_20
 12849  1391                     u518_21:
 12850  1391  2B9A               	goto	i1l9458
 12851  1392                     u518_20:
 12852                           	line	59
 12853                           	
 12854  1392                     i1l9454:	
 12855  1392  3000               	movlw	0x0
 12856  1393  00B0               	movwf	(?i1___ftmul)
 12857  1394  3000               	movlw	0x0
 12858  1395  00B1               	movwf	(?i1___ftmul+1)
 12859  1396  3000               	movlw	0x0
 12860  1397  00B2               	movwf	(?i1___ftmul+2)
 12861  1398  2C53               	goto	i1l5189
 12862                           	
 12863  1399                     i1l9456:	
 12864  1399  2C53               	goto	i1l5189
 12865                           	
 12866  139A                     i1l5190:	
 12867                           	line	60
 12868                           	
 12869  139A                     i1l9458:	
 12870  139A  083F               	movf	(i1___ftmul@sign),w
 12871  139B  3E7B               	addlw	07Bh
 12872  139C  00B6               	movwf	(??i1___ftmul+0)+0
 12873  139D  0836               	movf	(??i1___ftmul+0)+0,w
 12874  139E  07BA               	addwf	(i1___ftmul@exp),f
 12875                           	line	61
 12876  139F  0830               	movf	(i1___ftmul@f1),w
 12877  13A0  00B6               	movwf	((??i1___ftmul+0)+0)
 12878  13A1  0831               	movf	(i1___ftmul@f1+1),w
 12879  13A2  00B7               	movwf	((??i1___ftmul+0)+0+1)
 12880  13A3  0832               	movf	(i1___ftmul@f1+2),w
 12881  13A4  00B8               	movwf	((??i1___ftmul+0)+0+2)
 12882  13A5  3010               	movlw	010h
 12883  13A6                     u519_25:
 12884  13A6  1003               	clrc
 12885  13A7  0CB8               	rrf	(??i1___ftmul+0)+2,f
 12886  13A8  0CB7               	rrf	(??i1___ftmul+0)+1,f
 12887  13A9  0CB6               	rrf	(??i1___ftmul+0)+0,f
 12888  13AA                     u519_20:
 12889  13AA  3EFF               	addlw	-1
 12890  13AB  1D03               	skipz
 12891  13AC  2BA6               	goto	u519_25
 12892  13AD  0836               	movf	0+(??i1___ftmul+0)+0,w
 12893  13AE  00B9               	movwf	(??i1___ftmul+3)+0
 12894  13AF  0839               	movf	(??i1___ftmul+3)+0,w
 12895  13B0  00BF               	movwf	(i1___ftmul@sign)
 12896                           	line	62
 12897  13B1  0833               	movf	(i1___ftmul@f2),w
 12898  13B2  00B6               	movwf	((??i1___ftmul+0)+0)
 12899  13B3  0834               	movf	(i1___ftmul@f2+1),w
 12900  13B4  00B7               	movwf	((??i1___ftmul+0)+0+1)
 12901  13B5  0835               	movf	(i1___ftmul@f2+2),w
 12902  13B6  00B8               	movwf	((??i1___ftmul+0)+0+2)
 12903  13B7  3010               	movlw	010h
 12904  13B8                     u520_25:
 12905  13B8  1003               	clrc
 12906  13B9  0CB8               	rrf	(??i1___ftmul+0)+2,f
 12907  13BA  0CB7               	rrf	(??i1___ftmul+0)+1,f
 12908  13BB  0CB6               	rrf	(??i1___ftmul+0)+0,f
 12909  13BC                     u520_20:
 12910  13BC  3EFF               	addlw	-1
 12911  13BD  1D03               	skipz
 12912  13BE  2BB8               	goto	u520_25
 12913  13BF  0836               	movf	0+(??i1___ftmul+0)+0,w
 12914  13C0  00B9               	movwf	(??i1___ftmul+3)+0
 12915  13C1  0839               	movf	(??i1___ftmul+3)+0,w
 12916  13C2  06BF               	xorwf	(i1___ftmul@sign),f
 12917                           	line	63
 12918  13C3  3080               	movlw	(080h)
 12919  13C4  00B6               	movwf	(??i1___ftmul+0)+0
 12920  13C5  0836               	movf	(??i1___ftmul+0)+0,w
 12921  13C6  05BF               	andwf	(i1___ftmul@sign),f
 12922                           	line	64
 12923                           	
 12924  13C7                     i1l9460:	
 12925  13C7  17B1               	bsf	(i1___ftmul@f1)+(15/8),(15)&7
 12926                           	line	66
 12927                           	
 12928  13C8                     i1l9462:	
 12929  13C8  17B4               	bsf	(i1___ftmul@f2)+(15/8),(15)&7
 12930                           	line	67
 12931                           	
 12932  13C9                     i1l9464:	
 12933  13C9  30FF               	movlw	0FFh
 12934  13CA  05B3               	andwf	(i1___ftmul@f2),f
 12935  13CB  30FF               	movlw	0FFh
 12936  13CC  05B4               	andwf	(i1___ftmul@f2+1),f
 12937  13CD  3000               	movlw	0
 12938  13CE  05B5               	andwf	(i1___ftmul@f2+2),f
 12939                           	line	68
 12940                           	
 12941  13CF                     i1l9466:	
 12942  13CF  3000               	movlw	0
 12943  13D0  00BB               	movwf	(i1___ftmul@f3_as_product)
 12944  13D1  3000               	movlw	0
 12945  13D2  00BC               	movwf	(i1___ftmul@f3_as_product+1)
 12946  13D3  3000               	movlw	0
 12947  13D4  00BD               	movwf	(i1___ftmul@f3_as_product+2)
 12948                           	line	69
 12949                           	
 12950  13D5                     i1l9468:	
 12951  13D5  3007               	movlw	(07h)
 12952  13D6  00B6               	movwf	(??i1___ftmul+0)+0
 12953  13D7  0836               	movf	(??i1___ftmul+0)+0,w
 12954  13D8  00BE               	movwf	(i1___ftmul@cntr)
 12955  13D9  2BDA               	goto	i1l9470
 12956                           	line	70
 12957                           	
 12958  13DA                     i1l5191:	
 12959                           	line	71
 12960                           	
 12961  13DA                     i1l9470:	
 12962  13DA  1C30               	btfss	(i1___ftmul@f1),(0)&7
 12963  13DB  2BDD               	goto	u521_21
 12964  13DC  2BDE               	goto	u521_20
 12965  13DD                     u521_21:
 12966  13DD  2BEF               	goto	i1l9474
 12967  13DE                     u521_20:
 12968                           	line	72
 12969                           	
 12970  13DE                     i1l9472:	
 12971  13DE  0833               	movf	(i1___ftmul@f2),w
 12972  13DF  07BB               	addwf	(i1___ftmul@f3_as_product),f
 12973  13E0  0834               	movf	(i1___ftmul@f2+1),w
 12974  13E1  1103               	clrz
 12975  13E2  1803               	skipnc
 12976  13E3  0A34               	incf	(i1___ftmul@f2+1),w
 12977  13E4  1903               	skipnz
 12978  13E5  2BE7               	goto	u522_21
 12979  13E6  07BC               	addwf	(i1___ftmul@f3_as_product+1),f
 12980  13E7                     u522_21:
 12981  13E7  0835               	movf	(i1___ftmul@f2+2),w
 12982  13E8  1103               	clrz
 12983  13E9  1803               	skipnc
 12984  13EA  0A35               	incf	(i1___ftmul@f2+2),w
 12985  13EB  1903               	skipnz
 12986  13EC  2BEE               	goto	u522_22
 12987  13ED  07BD               	addwf	(i1___ftmul@f3_as_product+2),f
 12988  13EE                     u522_22:
 12989                           
 12990  13EE  2BEF               	goto	i1l9474
 12991                           	
 12992  13EF                     i1l5192:	
 12993                           	line	73
 12994                           	
 12995  13EF                     i1l9474:	
 12996  13EF  3001               	movlw	01h
 12997  13F0                     u523_25:
 12998  13F0  1003               	clrc
 12999  13F1  0CB2               	rrf	(i1___ftmul@f1+2),f
 13000  13F2  0CB1               	rrf	(i1___ftmul@f1+1),f
 13001  13F3  0CB0               	rrf	(i1___ftmul@f1),f
 13002  13F4  3EFF               	addlw	-1
 13003  13F5  1D03               	skipz
 13004  13F6  2BF0               	goto	u523_25
 13005                           
 13006                           	line	74
 13007                           	
 13008  13F7                     i1l9476:	
 13009  13F7  3001               	movlw	01h
 13010  13F8                     u524_25:
 13011  13F8  1003               	clrc
 13012  13F9  0DB3               	rlf	(i1___ftmul@f2),f
 13013  13FA  0DB4               	rlf	(i1___ftmul@f2+1),f
 13014  13FB  0DB5               	rlf	(i1___ftmul@f2+2),f
 13015  13FC  3EFF               	addlw	-1
 13016  13FD  1D03               	skipz
 13017  13FE  2BF8               	goto	u524_25
 13018                           	line	75
 13019                           	
 13020  13FF                     i1l9478:	
 13021  13FF  3001               	movlw	low(01h)
 13022  1400  02BE               	subwf	(i1___ftmul@cntr),f
 13023  1401  1D03               	btfss	status,2
 13024  1402  2C04               	goto	u525_21
 13025  1403  2C05               	goto	u525_20
 13026  1404                     u525_21:
 13027  1404  2BDA               	goto	i1l9470
 13028  1405                     u525_20:
 13029  1405  2C06               	goto	i1l9480
 13030                           	
 13031  1406                     i1l5193:	
 13032                           	line	76
 13033                           	
 13034  1406                     i1l9480:	
 13035  1406  3009               	movlw	(09h)
 13036  1407  00B6               	movwf	(??i1___ftmul+0)+0
 13037  1408  0836               	movf	(??i1___ftmul+0)+0,w
 13038  1409  00BE               	movwf	(i1___ftmul@cntr)
 13039  140A  2C0B               	goto	i1l9482
 13040                           	line	77
 13041                           	
 13042  140B                     i1l5194:	
 13043                           	line	78
 13044                           	
 13045  140B                     i1l9482:	
 13046  140B  1C30               	btfss	(i1___ftmul@f1),(0)&7
 13047  140C  2C0E               	goto	u526_21
 13048  140D  2C0F               	goto	u526_20
 13049  140E                     u526_21:
 13050  140E  2C20               	goto	i1l9486
 13051  140F                     u526_20:
 13052                           	line	79
 13053                           	
 13054  140F                     i1l9484:	
 13055  140F  0833               	movf	(i1___ftmul@f2),w
 13056  1410  07BB               	addwf	(i1___ftmul@f3_as_product),f
 13057  1411  0834               	movf	(i1___ftmul@f2+1),w
 13058  1412  1103               	clrz
 13059  1413  1803               	skipnc
 13060  1414  0A34               	incf	(i1___ftmul@f2+1),w
 13061  1415  1903               	skipnz
 13062  1416  2C18               	goto	u527_21
 13063  1417  07BC               	addwf	(i1___ftmul@f3_as_product+1),f
 13064  1418                     u527_21:
 13065  1418  0835               	movf	(i1___ftmul@f2+2),w
 13066  1419  1103               	clrz
 13067  141A  1803               	skipnc
 13068  141B  0A35               	incf	(i1___ftmul@f2+2),w
 13069  141C  1903               	skipnz
 13070  141D  2C1F               	goto	u527_22
 13071  141E  07BD               	addwf	(i1___ftmul@f3_as_product+2),f
 13072  141F                     u527_22:
 13073                           
 13074  141F  2C20               	goto	i1l9486
 13075                           	
 13076  1420                     i1l5195:	
 13077                           	line	80
 13078                           	
 13079  1420                     i1l9486:	
 13080  1420  3001               	movlw	01h
 13081  1421                     u528_25:
 13082  1421  1003               	clrc
 13083  1422  0CB2               	rrf	(i1___ftmul@f1+2),f
 13084  1423  0CB1               	rrf	(i1___ftmul@f1+1),f
 13085  1424  0CB0               	rrf	(i1___ftmul@f1),f
 13086  1425  3EFF               	addlw	-1
 13087  1426  1D03               	skipz
 13088  1427  2C21               	goto	u528_25
 13089                           
 13090                           	line	81
 13091                           	
 13092  1428                     i1l9488:	
 13093  1428  3001               	movlw	01h
 13094  1429                     u529_25:
 13095  1429  1003               	clrc
 13096  142A  0CBD               	rrf	(i1___ftmul@f3_as_product+2),f
 13097  142B  0CBC               	rrf	(i1___ftmul@f3_as_product+1),f
 13098  142C  0CBB               	rrf	(i1___ftmul@f3_as_product),f
 13099  142D  3EFF               	addlw	-1
 13100  142E  1D03               	skipz
 13101  142F  2C29               	goto	u529_25
 13102                           
 13103                           	line	82
 13104                           	
 13105  1430                     i1l9490:	
 13106  1430  3001               	movlw	low(01h)
 13107  1431  02BE               	subwf	(i1___ftmul@cntr),f
 13108  1432  1D03               	btfss	status,2
 13109  1433  2C35               	goto	u530_21
 13110  1434  2C36               	goto	u530_20
 13111  1435                     u530_21:
 13112  1435  2C0B               	goto	i1l9482
 13113  1436                     u530_20:
 13114  1436  2C37               	goto	i1l9492
 13115                           	
 13116  1437                     i1l5196:	
 13117                           	line	83
 13118                           	
 13119  1437                     i1l9492:	
 13120  1437  083B               	movf	(i1___ftmul@f3_as_product),w
 13121  1438  00F0               	movwf	(?i1___ftpack)
 13122  1439  083C               	movf	(i1___ftmul@f3_as_product+1),w
 13123  143A  00F1               	movwf	(?i1___ftpack+1)
 13124  143B  083D               	movf	(i1___ftmul@f3_as_product+2),w
 13125  143C  00F2               	movwf	(?i1___ftpack+2)
 13126  143D  083A               	movf	(i1___ftmul@exp),w
 13127  143E  00B6               	movwf	(??i1___ftmul+0)+0
 13128  143F  0836               	movf	(??i1___ftmul+0)+0,w
 13129  1440  00F3               	movwf	0+(?i1___ftpack)+03h
 13130  1441  083F               	movf	(i1___ftmul@sign),w
 13131  1442  00B7               	movwf	(??i1___ftmul+1)+0
 13132  1443  0837               	movf	(??i1___ftmul+1)+0,w
 13133  1444  00F4               	movwf	0+(?i1___ftpack)+04h
 13134  1445  160A  158A  2662   	fcall	i1___ftpack
              160A  118A         
 13135  144A  0870               	movf	(0+(?i1___ftpack)),w
 13136  144B  1283               	bcf	status, 5	;RP0=0, select bank0
 13137  144C  1303               	bcf	status, 6	;RP1=0, select bank0
 13138  144D  00B0               	movwf	(?i1___ftmul)
 13139  144E  0871               	movf	(1+(?i1___ftpack)),w
 13140  144F  00B1               	movwf	(?i1___ftmul+1)
 13141  1450  0872               	movf	(2+(?i1___ftpack)),w
 13142  1451  00B2               	movwf	(?i1___ftmul+2)
 13143  1452  2C53               	goto	i1l5189
 13144                           	
 13145  1453                     i1l9494:	
 13146                           	line	84
 13147                           	
 13148  1453                     i1l5189:	
 13149  1453  0008               	return
 13150                           	opt stack 0
 13151                           GLOBAL	__end_ofi1___ftmul
 13152  1454                     	__end_ofi1___ftmul:
 13153 ;; =============== function i1___ftmul ends ============
 13154                           
 13155                           	signat	i1___ftmul,91
 13156                           	global	___ftdiv
 13157                           psect	text966,local,class=CODE,delta=2
 13158                           global __ptext966
 13159  11BC                     __ptext966:
 13160                           
 13161 ;; *************** function ___ftdiv *****************
 13162 ;; Defined at:
 13163 ;;		line 50 in file "C:\Program Files (x86)\HI-TECH Software\PICC\9.82\sources\ftdiv.c"
 13164 ;; Parameters:    Size  Location     Type
 13165 ;;  f2              3    0[BANK0 ] float 
 13166 ;;  f1              3    3[BANK0 ] float 
 13167 ;; Auto vars:     Size  Location     Type
 13168 ;;  f3              3   11[BANK0 ] float 
 13169 ;;  sign            1   15[BANK0 ] unsigned char 
 13170 ;;  exp             1   14[BANK0 ] unsigned char 
 13171 ;;  cntr            1   10[BANK0 ] unsigned char 
 13172 ;; Return value:  Size  Location     Type
 13173 ;;                  3    0[BANK0 ] float 
 13174 ;; Registers used:
 13175 ;;		wreg, status,2, status,0, pclath, cstack
 13176 ;; Tracked objects:
 13177 ;;		On entry : 0/0
 13178 ;;		On exit  : 0/0
 13179 ;;		Unchanged: 0/0
 13180 ;; Data sizes:     COMMON   BANK0   BANK1   BANK3   BANK2
 13181 ;;      Params:         0       6       0       0       0
 13182 ;;      Locals:         0       6       0       0       0
 13183 ;;      Temps:          0       4       0       0       0
 13184 ;;      Totals:         0      16       0       0       0
 13185 ;;Total ram usage:       16 bytes
 13186 ;; Hardware stack levels used:    1
 13187 ;; Hardware stack levels required when called:    1
 13188 ;; This function calls:
 13189 ;;		i1___ftpack
 13190 ;; This function is called by:
 13191 ;;		_JY62_ReceiveData
 13192 ;; This function uses a non-reentrant model
 13193 ;;
 13194                           psect	text966
 13195                           	file	"C:\Program Files (x86)\HI-TECH Software\PICC\9.82\sources\ftdiv.c"
 13196                           	line	50
 13197                           	global	__size_of___ftdiv
 13198  00C8                     	__size_of___ftdiv	equ	__end_of___ftdiv-___ftdiv
 13199                           	
 13200  11BC                     ___ftdiv:	
 13201 ;; hardware stack exceeded
 13202                           	opt	stack 0
 13203                           ; Regs used in ___ftdiv: [wreg+status,2+status,0+pclath+cstack]
 13204                           	line	55
 13205                           	
 13206  11BC                     i1l9166:	
 13207  11BC  1283               	bcf	status, 5	;RP0=0, select bank0
 13208  11BD  1303               	bcf	status, 6	;RP1=0, select bank0
 13209  11BE  0823               	movf	(___ftdiv@f1),w
 13210  11BF  00A6               	movwf	((??___ftdiv+0)+0)
 13211  11C0  0824               	movf	(___ftdiv@f1+1),w
 13212  11C1  00A7               	movwf	((??___ftdiv+0)+0+1)
 13213  11C2  0825               	movf	(___ftdiv@f1+2),w
 13214  11C3  00A8               	movwf	((??___ftdiv+0)+0+2)
 13215  11C4  1003               	clrc
 13216  11C5  0D27               	rlf	(??___ftdiv+0)+1,w
 13217  11C6  0D28               	rlf	(??___ftdiv+0)+2,w
 13218  11C7  00A9               	movwf	(??___ftdiv+3)+0
 13219  11C8  0829               	movf	(??___ftdiv+3)+0,w
 13220  11C9  00AE               	movwf	(___ftdiv@exp)
 13221  11CA  08AE               	movf	((___ftdiv@exp)),f
 13222  11CB  1D03               	skipz
 13223  11CC  29CE               	goto	u456_21
 13224  11CD  29CF               	goto	u456_20
 13225  11CE                     u456_21:
 13226  11CE  29D7               	goto	i1l9172
 13227  11CF                     u456_20:
 13228                           	line	56
 13229                           	
 13230  11CF                     i1l9168:	
 13231  11CF  3000               	movlw	0x0
 13232  11D0  00A0               	movwf	(?___ftdiv)
 13233  11D1  3000               	movlw	0x0
 13234  11D2  00A1               	movwf	(?___ftdiv+1)
 13235  11D3  3000               	movlw	0x0
 13236  11D4  00A2               	movwf	(?___ftdiv+2)
 13237  11D5  2A83               	goto	i1l5179
 13238                           	
 13239  11D6                     i1l9170:	
 13240  11D6  2A83               	goto	i1l5179
 13241                           	
 13242  11D7                     i1l5178:	
 13243                           	line	57
 13244                           	
 13245  11D7                     i1l9172:	
 13246  11D7  0820               	movf	(___ftdiv@f2),w
 13247  11D8  00A6               	movwf	((??___ftdiv+0)+0)
 13248  11D9  0821               	movf	(___ftdiv@f2+1),w
 13249  11DA  00A7               	movwf	((??___ftdiv+0)+0+1)
 13250  11DB  0822               	movf	(___ftdiv@f2+2),w
 13251  11DC  00A8               	movwf	((??___ftdiv+0)+0+2)
 13252  11DD  1003               	clrc
 13253  11DE  0D27               	rlf	(??___ftdiv+0)+1,w
 13254  11DF  0D28               	rlf	(??___ftdiv+0)+2,w
 13255  11E0  00A9               	movwf	(??___ftdiv+3)+0
 13256  11E1  0829               	movf	(??___ftdiv+3)+0,w
 13257  11E2  00AF               	movwf	(___ftdiv@sign)
 13258  11E3  08AF               	movf	((___ftdiv@sign)),f
 13259  11E4  1D03               	skipz
 13260  11E5  29E7               	goto	u457_21
 13261  11E6  29E8               	goto	u457_20
 13262  11E7                     u457_21:
 13263  11E7  29F0               	goto	i1l9178
 13264  11E8                     u457_20:
 13265                           	line	58
 13266                           	
 13267  11E8                     i1l9174:	
 13268  11E8  3000               	movlw	0x0
 13269  11E9  00A0               	movwf	(?___ftdiv)
 13270  11EA  3000               	movlw	0x0
 13271  11EB  00A1               	movwf	(?___ftdiv+1)
 13272  11EC  3000               	movlw	0x0
 13273  11ED  00A2               	movwf	(?___ftdiv+2)
 13274  11EE  2A83               	goto	i1l5179
 13275                           	
 13276  11EF                     i1l9176:	
 13277  11EF  2A83               	goto	i1l5179
 13278                           	
 13279  11F0                     i1l5180:	
 13280                           	line	59
 13281                           	
 13282  11F0                     i1l9178:	
 13283  11F0  3000               	movlw	0
 13284  11F1  00AB               	movwf	(___ftdiv@f3)
 13285  11F2  3000               	movlw	0
 13286  11F3  00AC               	movwf	(___ftdiv@f3+1)
 13287  11F4  3000               	movlw	0
 13288  11F5  00AD               	movwf	(___ftdiv@f3+2)
 13289                           	line	60
 13290                           	
 13291  11F6                     i1l9180:	
 13292  11F6  3089               	movlw	(089h)
 13293  11F7  072F               	addwf	(___ftdiv@sign),w
 13294  11F8  00A6               	movwf	(??___ftdiv+0)+0
 13295  11F9  0826               	movf	0+(??___ftdiv+0)+0,w
 13296  11FA  02AE               	subwf	(___ftdiv@exp),f
 13297                           	line	61
 13298                           	
 13299  11FB                     i1l9182:	
 13300  11FB  0823               	movf	(___ftdiv@f1),w
 13301  11FC  00A6               	movwf	((??___ftdiv+0)+0)
 13302  11FD  0824               	movf	(___ftdiv@f1+1),w
 13303  11FE  00A7               	movwf	((??___ftdiv+0)+0+1)
 13304  11FF  0825               	movf	(___ftdiv@f1+2),w
 13305  1200  00A8               	movwf	((??___ftdiv+0)+0+2)
 13306  1201  3010               	movlw	010h
 13307  1202                     u458_25:
 13308  1202  1003               	clrc
 13309  1203  0CA8               	rrf	(??___ftdiv+0)+2,f
 13310  1204  0CA7               	rrf	(??___ftdiv+0)+1,f
 13311  1205  0CA6               	rrf	(??___ftdiv+0)+0,f
 13312  1206                     u458_20:
 13313  1206  3EFF               	addlw	-1
 13314  1207  1D03               	skipz
 13315  1208  2A02               	goto	u458_25
 13316  1209  0826               	movf	0+(??___ftdiv+0)+0,w
 13317  120A  00A9               	movwf	(??___ftdiv+3)+0
 13318  120B  0829               	movf	(??___ftdiv+3)+0,w
 13319  120C  00AF               	movwf	(___ftdiv@sign)
 13320                           	line	62
 13321                           	
 13322  120D                     i1l9184:	
 13323  120D  0820               	movf	(___ftdiv@f2),w
 13324  120E  00A6               	movwf	((??___ftdiv+0)+0)
 13325  120F  0821               	movf	(___ftdiv@f2+1),w
 13326  1210  00A7               	movwf	((??___ftdiv+0)+0+1)
 13327  1211  0822               	movf	(___ftdiv@f2+2),w
 13328  1212  00A8               	movwf	((??___ftdiv+0)+0+2)
 13329  1213  3010               	movlw	010h
 13330  1214                     u459_25:
 13331  1214  1003               	clrc
 13332  1215  0CA8               	rrf	(??___ftdiv+0)+2,f
 13333  1216  0CA7               	rrf	(??___ftdiv+0)+1,f
 13334  1217  0CA6               	rrf	(??___ftdiv+0)+0,f
 13335  1218                     u459_20:
 13336  1218  3EFF               	addlw	-1
 13337  1219  1D03               	skipz
 13338  121A  2A14               	goto	u459_25
 13339  121B  0826               	movf	0+(??___ftdiv+0)+0,w
 13340  121C  00A9               	movwf	(??___ftdiv+3)+0
 13341  121D  0829               	movf	(??___ftdiv+3)+0,w
 13342  121E  06AF               	xorwf	(___ftdiv@sign),f
 13343                           	line	63
 13344                           	
 13345  121F                     i1l9186:	
 13346  121F  3080               	movlw	(080h)
 13347  1220  00A6               	movwf	(??___ftdiv+0)+0
 13348  1221  0826               	movf	(??___ftdiv+0)+0,w
 13349  1222  05AF               	andwf	(___ftdiv@sign),f
 13350                           	line	64
 13351                           	
 13352  1223                     i1l9188:	
 13353  1223  17A4               	bsf	(___ftdiv@f1)+(15/8),(15)&7
 13354                           	line	65
 13355  1224  30FF               	movlw	0FFh
 13356  1225  05A3               	andwf	(___ftdiv@f1),f
 13357  1226  30FF               	movlw	0FFh
 13358  1227  05A4               	andwf	(___ftdiv@f1+1),f
 13359  1228  3000               	movlw	0
 13360  1229  05A5               	andwf	(___ftdiv@f1+2),f
 13361                           	line	66
 13362                           	
 13363  122A                     i1l9190:	
 13364  122A  17A1               	bsf	(___ftdiv@f2)+(15/8),(15)&7
 13365                           	line	67
 13366  122B  30FF               	movlw	0FFh
 13367  122C  05A0               	andwf	(___ftdiv@f2),f
 13368  122D  30FF               	movlw	0FFh
 13369  122E  05A1               	andwf	(___ftdiv@f2+1),f
 13370  122F  3000               	movlw	0
 13371  1230  05A2               	andwf	(___ftdiv@f2+2),f
 13372                           	line	68
 13373  1231  3018               	movlw	(018h)
 13374  1232  00A6               	movwf	(??___ftdiv+0)+0
 13375  1233  0826               	movf	(??___ftdiv+0)+0,w
 13376  1234  00AA               	movwf	(___ftdiv@cntr)
 13377  1235  2A36               	goto	i1l9192
 13378                           	line	69
 13379                           	
 13380  1236                     i1l5181:	
 13381                           	line	70
 13382                           	
 13383  1236                     i1l9192:	
 13384  1236  3001               	movlw	01h
 13385  1237                     u460_25:
 13386  1237  1003               	clrc
 13387  1238  0DAB               	rlf	(___ftdiv@f3),f
 13388  1239  0DAC               	rlf	(___ftdiv@f3+1),f
 13389  123A  0DAD               	rlf	(___ftdiv@f3+2),f
 13390  123B  3EFF               	addlw	-1
 13391  123C  1D03               	skipz
 13392  123D  2A37               	goto	u460_25
 13393                           	line	71
 13394                           	
 13395  123E                     i1l9194:	
 13396  123E  0822               	movf	(___ftdiv@f2+2),w
 13397  123F  0225               	subwf	(___ftdiv@f1+2),w
 13398  1240  1D03               	skipz
 13399  1241  2A48               	goto	u461_25
 13400  1242  0821               	movf	(___ftdiv@f2+1),w
 13401  1243  0224               	subwf	(___ftdiv@f1+1),w
 13402  1244  1D03               	skipz
 13403  1245  2A48               	goto	u461_25
 13404  1246  0820               	movf	(___ftdiv@f2),w
 13405  1247  0223               	subwf	(___ftdiv@f1),w
 13406  1248                     u461_25:
 13407  1248  1C03               	skipc
 13408  1249  2A4B               	goto	u461_21
 13409  124A  2A4C               	goto	u461_20
 13410  124B                     u461_21:
 13411  124B  2A58               	goto	i1l9200
 13412  124C                     u461_20:
 13413                           	line	72
 13414                           	
 13415  124C                     i1l9196:	
 13416  124C  0820               	movf	(___ftdiv@f2),w
 13417  124D  02A3               	subwf	(___ftdiv@f1),f
 13418  124E  0821               	movf	(___ftdiv@f2+1),w
 13419  124F  1C03               	skipc
 13420  1250  0F21               	incfsz	(___ftdiv@f2+1),w
 13421  1251  02A4               	subwf	(___ftdiv@f1+1),f
 13422  1252  0822               	movf	(___ftdiv@f2+2),w
 13423  1253  1C03               	skipc
 13424  1254  0A22               	incf	(___ftdiv@f2+2),w
 13425  1255  02A5               	subwf	(___ftdiv@f1+2),f
 13426                           	line	73
 13427                           	
 13428  1256                     i1l9198:	
 13429  1256  142B               	bsf	(___ftdiv@f3)+(0/8),(0)&7
 13430  1257  2A58               	goto	i1l9200
 13431                           	line	74
 13432                           	
 13433  1258                     i1l5182:	
 13434                           	line	75
 13435                           	
 13436  1258                     i1l9200:	
 13437  1258  3001               	movlw	01h
 13438  1259                     u462_25:
 13439  1259  1003               	clrc
 13440  125A  0DA3               	rlf	(___ftdiv@f1),f
 13441  125B  0DA4               	rlf	(___ftdiv@f1+1),f
 13442  125C  0DA5               	rlf	(___ftdiv@f1+2),f
 13443  125D  3EFF               	addlw	-1
 13444  125E  1D03               	skipz
 13445  125F  2A59               	goto	u462_25
 13446                           	line	76
 13447                           	
 13448  1260                     i1l9202:	
 13449  1260  3001               	movlw	low(01h)
 13450  1261  02AA               	subwf	(___ftdiv@cntr),f
 13451  1262  1D03               	btfss	status,2
 13452  1263  2A65               	goto	u463_21
 13453  1264  2A66               	goto	u463_20
 13454  1265                     u463_21:
 13455  1265  2A36               	goto	i1l9192
 13456  1266                     u463_20:
 13457  1266  2A67               	goto	i1l9204
 13458                           	
 13459  1267                     i1l5183:	
 13460                           	line	77
 13461                           	
 13462  1267                     i1l9204:	
 13463  1267  082B               	movf	(___ftdiv@f3),w
 13464  1268  00F0               	movwf	(?i1___ftpack)
 13465  1269  082C               	movf	(___ftdiv@f3+1),w
 13466  126A  00F1               	movwf	(?i1___ftpack+1)
 13467  126B  082D               	movf	(___ftdiv@f3+2),w
 13468  126C  00F2               	movwf	(?i1___ftpack+2)
 13469  126D  082E               	movf	(___ftdiv@exp),w
 13470  126E  00A6               	movwf	(??___ftdiv+0)+0
 13471  126F  0826               	movf	(??___ftdiv+0)+0,w
 13472  1270  00F3               	movwf	0+(?i1___ftpack)+03h
 13473  1271  082F               	movf	(___ftdiv@sign),w
 13474  1272  00A7               	movwf	(??___ftdiv+1)+0
 13475  1273  0827               	movf	(??___ftdiv+1)+0,w
 13476  1274  00F4               	movwf	0+(?i1___ftpack)+04h
 13477  1275  160A  158A  2662   	fcall	i1___ftpack
              160A  118A         
 13478  127A  0870               	movf	(0+(?i1___ftpack)),w
 13479  127B  1283               	bcf	status, 5	;RP0=0, select bank0
 13480  127C  1303               	bcf	status, 6	;RP1=0, select bank0
 13481  127D  00A0               	movwf	(?___ftdiv)
 13482  127E  0871               	movf	(1+(?i1___ftpack)),w
 13483  127F  00A1               	movwf	(?___ftdiv+1)
 13484  1280  0872               	movf	(2+(?i1___ftpack)),w
 13485  1281  00A2               	movwf	(?___ftdiv+2)
 13486  1282  2A83               	goto	i1l5179
 13487                           	
 13488  1283                     i1l9206:	
 13489                           	line	78
 13490                           	
 13491  1283                     i1l5179:	
 13492  1283  0008               	return
 13493                           	opt stack 0
 13494                           GLOBAL	__end_of___ftdiv
 13495  1284                     	__end_of___ftdiv:
 13496 ;; =============== function ___ftdiv ends ============
 13497                           
 13498                           	signat	___ftdiv,8315
 13499                           	global	i1___ftpack
 13500                           psect	text967,local,class=CODE,delta=2
 13501                           global __ptext967
 13502  1E62                     __ptext967:
 13503                           
 13504 ;; *************** function i1___ftpack *****************
 13505 ;; Defined at:
 13506 ;;		line 63 in file "C:\Program Files (x86)\HI-TECH Software\PICC\9.82\sources\float.c"
 13507 ;; Parameters:    Size  Location     Type
 13508 ;;  __ftpack        3    0[COMMON] unsigned um
 13509 ;;  __ftpack        1    3[COMMON] unsigned char 
 13510 ;;  __ftpack        1    4[COMMON] unsigned char 
 13511 ;; Auto vars:     Size  Location     Type
 13512 ;;		None
 13513 ;; Return value:  Size  Location     Type
 13514 ;;                  3    0[COMMON] float 
 13515 ;; Registers used:
 13516 ;;		wreg, status,2, status,0
 13517 ;; Tracked objects:
 13518 ;;		On entry : 0/0
 13519 ;;		On exit  : 0/0
 13520 ;;		Unchanged: 0/0
 13521 ;; Data sizes:     COMMON   BANK0   BANK1   BANK3   BANK2
 13522 ;;      Params:         5       0       0       0       0
 13523 ;;      Locals:         0       0       0       0       0
 13524 ;;      Temps:          3       0       0       0       0
 13525 ;;      Totals:         8       0       0       0       0
 13526 ;;Total ram usage:        8 bytes
 13527 ;; Hardware stack levels used:    1
 13528 ;; This function calls:
 13529 ;;		Nothing
 13530 ;; This function is called by:
 13531 ;;		___ftdiv
 13532 ;;		i1___ftmul
 13533 ;;		i1___awtoft
 13534 ;; This function uses a non-reentrant model
 13535 ;;
 13536                           psect	text967
 13537                           	file	"C:\Program Files (x86)\HI-TECH Software\PICC\9.82\sources\float.c"
 13538                           	line	63
 13539                           	global	__size_ofi1___ftpack
 13540  007B                     	__size_ofi1___ftpack	equ	__end_ofi1___ftpack-i1___ftpack
 13541                           	
 13542  1E62                     i1___ftpack:	
 13543 ;; hardware stack exceeded
 13544                           	opt	stack 0
 13545                           ; Regs used in i1___ftpack: [wreg+status,2+status,0]
 13546                           	line	64
 13547                           	
 13548  1E62                     i1l9504:	
 13549  1E62  0873               	movf	(i1___ftpack@exp),w
 13550  1E63  1D03               	skipz
 13551  1E64  2E66               	goto	u532_20
 13552  1E65  2E6E               	goto	i1l9508
 13553  1E66                     u532_20:
 13554                           	
 13555  1E66                     i1l9506:	
 13556  1E66  0872               	movf	(i1___ftpack@arg+2),w
 13557  1E67  0471               	iorwf	(i1___ftpack@arg+1),w
 13558  1E68  0470               	iorwf	(i1___ftpack@arg),w
 13559  1E69  1D03               	skipz
 13560  1E6A  2E6C               	goto	u533_21
 13561  1E6B  2E6D               	goto	u533_20
 13562  1E6C                     u533_21:
 13563  1E6C  2E84               	goto	i1l9514
 13564  1E6D                     u533_20:
 13565  1E6D  2E6E               	goto	i1l9508
 13566                           	
 13567  1E6E                     i1l5458:	
 13568                           	line	65
 13569                           	
 13570  1E6E                     i1l9508:	
 13571  1E6E  3000               	movlw	0x0
 13572  1E6F  00F0               	movwf	(?i1___ftpack)
 13573  1E70  3000               	movlw	0x0
 13574  1E71  00F1               	movwf	(?i1___ftpack+1)
 13575  1E72  3000               	movlw	0x0
 13576  1E73  00F2               	movwf	(?i1___ftpack+2)
 13577  1E74  2EDC               	goto	i1l5459
 13578                           	
 13579  1E75                     i1l9510:	
 13580  1E75  2EDC               	goto	i1l5459
 13581                           	
 13582  1E76                     i1l5456:	
 13583                           	line	66
 13584  1E76  2E84               	goto	i1l9514
 13585                           	
 13586  1E77                     i1l5461:	
 13587                           	line	67
 13588                           	
 13589  1E77                     i1l9512:	
 13590  1E77  3001               	movlw	(01h)
 13591  1E78  00F5               	movwf	(??i1___ftpack+0)+0
 13592  1E79  0875               	movf	(??i1___ftpack+0)+0,w
 13593  1E7A  07F3               	addwf	(i1___ftpack@exp),f
 13594                           	line	68
 13595  1E7B  3001               	movlw	01h
 13596  1E7C                     u534_25:
 13597  1E7C  1003               	clrc
 13598  1E7D  0CF2               	rrf	(i1___ftpack@arg+2),f
 13599  1E7E  0CF1               	rrf	(i1___ftpack@arg+1),f
 13600  1E7F  0CF0               	rrf	(i1___ftpack@arg),f
 13601  1E80  3EFF               	addlw	-1
 13602  1E81  1D03               	skipz
 13603  1E82  2E7C               	goto	u534_25
 13604                           
 13605  1E83  2E84               	goto	i1l9514
 13606                           	line	69
 13607                           	
 13608  1E84                     i1l5460:	
 13609                           	line	66
 13610                           	
 13611  1E84                     i1l9514:	
 13612  1E84  30FE               	movlw	low highword(0FE0000h)
 13613  1E85  0572               	andwf	(i1___ftpack@arg+2),w
 13614  1E86  1D03               	btfss	status,2
 13615  1E87  2E89               	goto	u535_21
 13616  1E88  2E8A               	goto	u535_20
 13617  1E89                     u535_21:
 13618  1E89  2E77               	goto	i1l9512
 13619  1E8A                     u535_20:
 13620  1E8A  2EA2               	goto	i1l5463
 13621                           	
 13622  1E8B                     i1l5462:	
 13623                           	line	70
 13624  1E8B  2EA2               	goto	i1l5463
 13625                           	
 13626  1E8C                     i1l5464:	
 13627                           	line	71
 13628                           	
 13629  1E8C                     i1l9516:	
 13630  1E8C  3001               	movlw	(01h)
 13631  1E8D  00F5               	movwf	(??i1___ftpack+0)+0
 13632  1E8E  0875               	movf	(??i1___ftpack+0)+0,w
 13633  1E8F  07F3               	addwf	(i1___ftpack@exp),f
 13634                           	line	72
 13635                           	
 13636  1E90                     i1l9518:	
 13637  1E90  3001               	movlw	01h
 13638  1E91  07F0               	addwf	(i1___ftpack@arg),f
 13639  1E92  3000               	movlw	0
 13640  1E93  1803               	skipnc
 13641  1E94  3001               movlw 1
 13642  1E95  07F1               	addwf	(i1___ftpack@arg+1),f
 13643  1E96  3000               	movlw	0
 13644  1E97  1803               	skipnc
 13645  1E98  3001               movlw 1
 13646  1E99  07F2               	addwf	(i1___ftpack@arg+2),f
 13647                           	line	73
 13648                           	
 13649  1E9A                     i1l9520:	
 13650  1E9A  3001               	movlw	01h
 13651  1E9B                     u536_25:
 13652  1E9B  1003               	clrc
 13653  1E9C  0CF2               	rrf	(i1___ftpack@arg+2),f
 13654  1E9D  0CF1               	rrf	(i1___ftpack@arg+1),f
 13655  1E9E  0CF0               	rrf	(i1___ftpack@arg),f
 13656  1E9F  3EFF               	addlw	-1
 13657  1EA0  1D03               	skipz
 13658  1EA1  2E9B               	goto	u536_25
 13659                           
 13660                           	line	74
 13661                           	
 13662  1EA2                     i1l5463:	
 13663                           	line	70
 13664  1EA2  30FF               	movlw	low highword(0FF0000h)
 13665  1EA3  0572               	andwf	(i1___ftpack@arg+2),w
 13666  1EA4  1D03               	btfss	status,2
 13667  1EA5  2EA7               	goto	u537_21
 13668  1EA6  2EA8               	goto	u537_20
 13669  1EA7                     u537_21:
 13670  1EA7  2E8C               	goto	i1l9516
 13671  1EA8                     u537_20:
 13672  1EA8  2EB5               	goto	i1l9524
 13673                           	
 13674  1EA9                     i1l5465:	
 13675                           	line	75
 13676  1EA9  2EB5               	goto	i1l9524
 13677                           	
 13678  1EAA                     i1l5467:	
 13679                           	line	76
 13680                           	
 13681  1EAA                     i1l9522:	
 13682  1EAA  3001               	movlw	low(01h)
 13683  1EAB  02F3               	subwf	(i1___ftpack@exp),f
 13684                           	line	77
 13685  1EAC  3001               	movlw	01h
 13686  1EAD                     u538_25:
 13687  1EAD  1003               	clrc
 13688  1EAE  0DF0               	rlf	(i1___ftpack@arg),f
 13689  1EAF  0DF1               	rlf	(i1___ftpack@arg+1),f
 13690  1EB0  0DF2               	rlf	(i1___ftpack@arg+2),f
 13691  1EB1  3EFF               	addlw	-1
 13692  1EB2  1D03               	skipz
 13693  1EB3  2EAD               	goto	u538_25
 13694  1EB4  2EB5               	goto	i1l9524
 13695                           	line	78
 13696                           	
 13697  1EB5                     i1l5466:	
 13698                           	line	75
 13699                           	
 13700  1EB5                     i1l9524:	
 13701  1EB5  1FF1               	btfss	(i1___ftpack@arg+1),(15)&7
 13702  1EB6  2EB8               	goto	u539_21
 13703  1EB7  2EB9               	goto	u539_20
 13704  1EB8                     u539_21:
 13705  1EB8  2EAA               	goto	i1l9522
 13706  1EB9                     u539_20:
 13707                           	
 13708  1EB9                     i1l5468:	
 13709                           	line	79
 13710  1EB9  1873               	btfsc	(i1___ftpack@exp),(0)&7
 13711  1EBA  2EBC               	goto	u540_21
 13712  1EBB  2EBD               	goto	u540_20
 13713  1EBC                     u540_21:
 13714  1EBC  2EC3               	goto	i1l5469
 13715  1EBD                     u540_20:
 13716                           	line	80
 13717                           	
 13718  1EBD                     i1l9526:	
 13719  1EBD  30FF               	movlw	0FFh
 13720  1EBE  05F0               	andwf	(i1___ftpack@arg),f
 13721  1EBF  307F               	movlw	07Fh
 13722  1EC0  05F1               	andwf	(i1___ftpack@arg+1),f
 13723  1EC1  30FF               	movlw	0FFh
 13724  1EC2  05F2               	andwf	(i1___ftpack@arg+2),f
 13725                           	
 13726  1EC3                     i1l5469:	
 13727                           	line	81
 13728  1EC3  1003               	clrc
 13729  1EC4  0CF3               	rrf	(i1___ftpack@exp),f
 13730                           
 13731                           	line	82
 13732                           	
 13733  1EC5                     i1l9528:	
 13734  1EC5  0873               	movf	(i1___ftpack@exp),w
 13735  1EC6  00F5               	movwf	((??i1___ftpack+0)+0)
 13736  1EC7  01F6               	clrf	((??i1___ftpack+0)+0+1)
 13737  1EC8  01F7               	clrf	((??i1___ftpack+0)+0+2)
 13738  1EC9  3010               	movlw	010h
 13739  1ECA                     u541_25:
 13740  1ECA  1003               	clrc
 13741  1ECB  0DF5               	rlf	(??i1___ftpack+0)+0,f
 13742  1ECC  0DF6               	rlf	(??i1___ftpack+0)+1,f
 13743  1ECD  0DF7               	rlf	(??i1___ftpack+0)+2,f
 13744  1ECE                     u541_20:
 13745  1ECE  3EFF               	addlw	-1
 13746  1ECF  1D03               	skipz
 13747  1ED0  2ECA               	goto	u541_25
 13748  1ED1  0875               	movf	0+(??i1___ftpack+0)+0,w
 13749  1ED2  04F0               	iorwf	(i1___ftpack@arg),f
 13750  1ED3  0876               	movf	1+(??i1___ftpack+0)+0,w
 13751  1ED4  04F1               	iorwf	(i1___ftpack@arg+1),f
 13752  1ED5  0877               	movf	2+(??i1___ftpack+0)+0,w
 13753  1ED6  04F2               	iorwf	(i1___ftpack@arg+2),f
 13754                           	line	83
 13755                           	
 13756  1ED7                     i1l9530:	
 13757  1ED7  0874               	movf	(i1___ftpack@sign),w
 13758  1ED8  1D03               	skipz
 13759  1ED9  2EDB               	goto	u542_20
 13760  1EDA  2EDC               	goto	i1l5470
 13761  1EDB                     u542_20:
 13762                           	line	84
 13763                           	
 13764  1EDB                     i1l9532:	
 13765  1EDB  17F2               	bsf	(i1___ftpack@arg)+(23/8),(23)&7
 13766                           	
 13767  1EDC                     i1l5470:	
 13768                           	line	85
 13769                           	line	86
 13770                           	
 13771  1EDC                     i1l5459:	
 13772  1EDC  0008               	return
 13773                           	opt stack 0
 13774                           GLOBAL	__end_ofi1___ftpack
 13775  1EDD                     	__end_ofi1___ftpack:
 13776 ;; =============== function i1___ftpack ends ============
 13777                           
 13778                           	signat	i1___ftpack,91
 13779                           psect	text968,local,class=CODE,delta=2
 13780                           global __ptext968
 13781  0000                     __ptext968:
 13782                           	global	btemp
 13783  007E                     	btemp set 07Eh
 13784                           
 13785                           	DABS	1,126,2	;btemp
 13786                           	global	wtemp0
 13787  007E                     	wtemp0 set btemp
 13788  06EA                     


HI-TECH Software PICC Macro Assembler V9.82 build 9453 
Symbol Table                                                                                   Tue May 27 23:37:28 2025

                        pc 0002                 i1___awtoft 1A9F                 i1___ftpack 1E62  
           ___bmul@product 00B2                         _RD 0C60                         _WR 0C61  
             ___awdiv@sign 00AD                         fsr 0004        ___wmul@multiplicand 00A2  
             ___ftadd@exp1 00DE               ___ftadd@exp2 00DD               ___ftadd@sign 00DC  
                      l701 19CB                        l704 1BFB                        l705 1C01  
                      l706 1C30                        l707 1C0B                        l708 1C47  
                      l709 1C47                        l692 19AE                        l687 1A30  
                      l695 19BC                        l688 1A3D                        l689 1A3D  
                      l698 1B94                        _GIE 005F                        _RA3 002B  
                      _RA4 002C                        _RA5 002D                        _RE0 0048  
                      _Yaw 01D1              _JY62_ShowData 10FE                        fsr0 0004  
                      indf 0000               ___awmod@sign 00A6            __end_of_ENABLE1 19BD  
             i1___awtoft@c 0078               i1___ftmul@f1 0030               i1___ftmul@f2 0033  
             ___ftdiv@cntr 002A               ___ftdiv@sign 002F                       l1418 1983  
                     l2162 1BD0                       l2163 1BEA                       l2164 1BEB  
                     l2165 1BEB                       l4300 0704                       l4301 070C  
                     l4310 07CD                       l4302 0705                       l4311 0791  
                     l4303 0718                       l5200 1FFF                       l4320 0B06  
                     l4312 07E0                       l4304 0717                       l5201 1FC2  
                     l4321 0B07                       l4313 07E7                       l4305 0719  
                     l5210 1FF6                       l5202 1FAE                       l4322 04A5  
                     l4330 0D16                       l4314 0B0B                       l4306 077B  
                     l5203 1FAF                       l4331 0128                       l4323 0B3C  
                     l4315 0B00                       l4307 072E                       l5204 1FC1  
                     l5300 1CFC                       l5140 084E                       l4316 06DD  
                     l4340 01A6                       l4324 0B98                       l4308 077A  
                     l5205 1FE6                       l5301 1CD6                       l5141 0858  
                     l4341 01B1                       l4333 004D                       l4325 0CCD  
                     l4317 0B03                       l4309 07E1                       l4262 198A  
                     l5206 1FD2                       l5230 1DFC                       l5302 1CCA  
                     l5150 08A1                       l5142 085D                       l5134 083A  
                     l4350 0294                       l4342 01F4                       l4334 0077  
                     l4326 0C27                       l4318 0B25                       l5207 1FDF  
                     l5231 1E0A                       l5303 1CDB                       l5143 08A2  
                     l5151 08D9                       l4351 0269                       l4343 01E9  
                     l4335 0080                       l4327 0CA1                       l4319 0B05  
                     l5208 1FD3                       l5240 1E61                       l5232 1E50  
                     l5304 1CDC                       l5160 08EE                       l5152 08D9  
                     l5144 0872                       l5136 0832                       l4360 0334  
                     l4352 0255                       l4344 0218                       l4328 0CCC  
                     l5209 1FE5                       l5233 1E22                       l5305 1CED  
                     l5161 0903                       l5153 08A9                       l5137 0948  
                     l4281 0A37                       l4361 034A                       l4353 0279  
                     l4345 022B                       l4337 00D9                       l4329 0CCB  
                     l5090 1ACC                       l5234 1E16                       l5250 1CA5  
                     l5306 1CFB                       l5162 092C                       l5146 088B  
                     l5138 084F                       l5226 1B03                       l5330 1B54  
                     l4282 0AFF                       l4290 0E77                       l4370 04CE  
                     l4362 0350                       l4354 0293                       l4346 0254  
                     l5091 1AD6                       l5235 1E27                       l5243 1C9C  
                     l5307 1D06                       l5155 08C2                       l5147 088C  
                     l5227 1B1E                       l4283 0ACB                       l4291 0E76  
                     l4371 04E3                       l4363 036B                       l4355 0304  
                     l4347 0245                       l4339 0119                       l5076 07FC  
                     l5340 1324                       l5084 1A0C                       l5092 1AEB  
                     l5236 1E28                       l5244 1C64                       l5308 1D0D  
                     l5156 08C3                       l5148 089A                       l4284 0ACA  
                     l4292 0F66                       l4380 059F                       l4372 04EE  
                     l4364 047F                       l4356 0295                       l4348 0231  
                     l5077 07FE                       l5341 1325                       l5333 12A1  
                     l5085 1A15                       l5093 1AF2                       l5237 1E41  
                     l5245 1C56                       l5253 199F                       l5157 08D1  
                     l5149 088D                       l4293 0FDE                       l5173 1A7A  
                     l4381 05A4                       l4373 0531                       l4365 03B6  
                     l4357 0311                       l4349 0253                       l5342 1337  
                     l5334 1365                       l5086 1A1F                       l5238 1E4F  
                     l5246 1C69                       l5254 19A0                       l5262 1DE2  
                     l5158 08C4                       l5190 1488                       l4294 0FDD  
                     l4390 0628                       l4382 05C6                       l4374 0526  
                     l4366 048A                       l4358 0326                       l5343 135C  
                     l5335 12BC                       l5087 1A21                       l5239 1E5A  
                     l5247 1C6A                       l5263 1DA0                       l5159 08D8  
                     l5191 14C8                       l5327 1B34                       l4287 0E99  
                     l4391 060F                       l4383 05CB                       l4375 054B  
                     l4367 049D                       l4359 0312                       l5344 1348  
                     l5336 12DE                       l5248 1C8B                       l5264 1D92  
                     l5192 14DD                       l5328 1B26                       l4288 0DFF  
                     l4392 0627                       l4384 0608                       l4376 0569  
                     l4368 048B                       l5345 1355                       l5337 1301  
                     l5249 1C9B                       l5257 1D3A                       l5265 1DA5  
                     l5193 14F4                       l5329 1B3B                       l4289 0FFF  
                     l4297 06C7                       l4393 0640                       l4385 05E7  
                     l4377 0568                       l4369 04A4                       l5346 1349  
                     l5338 130F                       l5258 1D64                       l5266 1DA6  
                     l5194 14F9                       l4394 06B5                       l4386 0607  
                     l4378 0584                       l4298 06ED                       l5347 135B  
                     l5339 1338                       l5259 1D7B                       l5267 1DD1  
                     l5195 150E                       l4395 0642                       l4387 05EE  
                     l4379 05A5                       l4299 06FF                       l2868 1A07  
                     l5380 1629                       l5460 1F01                       l5268 1DE1  
                     l5196 1525                       l5188 146F                       l4396 06C6  
                     l4388 0606                       l2892 11BB                       l5381 1640  
                     l5461 1EF4                       l5269 1DEB                       l5189 1541  
                     l4397 06DC                       l4389 0641                       l5390 168C  
                     l5382 1669                       l5470 1F59                       l5462 1F08  
                     l4398 06E2                       l5383 1655                       l5463 1F1F  
                     l5199 1F77                       l9000 07FE                       l5384 1656  
                     l5376 1567                       l5464 1F09                       l5456 1EF3  
                     l5385 1668                       l5377 1696                       l5465 1F26  
                     l2889 10FD                       l9010 12B2                       l9002 1284  
                     l5386 168D                       l5378 1589                       l5466 1F32  
                     l5458 1EEB                       l5298 1CB6                       l5387 1679  
                     l5379 15D1                       l5467 1F27                       l5459 1F59  
                     l5299 1CC0                       l9020 12D4                       l9012 12BB  
                     l9004 1297                       l5388 1686                       l9100 1678  
                     l5468 1F36                       l5389 167A                       l5469 1F40  
                     l9030 1301                       l9022 12DE                       l9014 12BD  
                     l9006 12A0                       l9102 167A                       l9110 1A0B  
                     l9040 1325                       l9032 1309                       l9024 12E7  
                     l9016 12C3                       l9008 12A1                       l9104 1686  
                     l9120 1A1F                       l9112 1A10                       l9050 1355  
                     l9034 1313                       l9042 1338                       l9026 12F5  
                     l9018 12D2                       l9106 168D                       l9122 1A21  
                     l9114 1A15                       l9130 1ADD                       l9210 1F6D  
                     l9044 133E                       l9052 135C                       l9036 131A  
                     l9028 12FF                       l9108 1696                       l9060 1566  
                     l9116 1A17                       l9132 1AEB                       l9124 1AC7  
                     l9140 1EEB                       l9220 1F90                       l9212 1F76  
                     l9300 1E5A                       l9054 1365                       l9046 1347  
                     l9038 1323                       l9070 15BD                       l9062 1567  
                     l9118 1A19                       l9134 1AF2                       l9126 1ACC  
                     l9150 1F0D                       l9142 1EF2                       l9230 1FAD  
                     l9222 1F97                       l9214 1F77                       l9302 1E61  
                     l9310 1C64                       l9048 1349                       l9080 15DA  
                     l9072 15C5                       l9064 157F                       l9056 1542  
                     l9128 1AD0                       l9160 1F42                       l9152 1F17  
                     l9144 1EF4                       l9136 1EDD                       l9240 1FD3  
                     l9232 1FAF                       l9224 1F99                       l9216 1F89  
                     l9208 1F5A                       l9312 1C6A                       l9320 1C9C  
                     l9304 1C48                       l9400 1CF4                       l9090 164B  
                     l9082 1606                       l9074 15C7                       l9066 1588  
                     l9058 155D                       l9162 1F54                       l9154 1F27  
                     l9146 1F01                       l9138 1EE3                       l9250 1FFF  
                     l9242 1FDF                       l9226 1F9D                       l9234 1FC2  
                     l9218 1F8A                       l9322 1CA5                       l9314 1C7C  
                     l9306 1C52                       l9330 19A0                       l9402 1CFC  
                     l9092 1654                       l9084 1628                       l9076 15CC  
                     l9068 1589                       l9164 1F58                       l9156 1F32  
                     l9148 1F09                       l9236 1FC8                       l9244 1FE6  
                     l9228 1FA4                       l9316 1C8B                       l9308 1C56  
                     l9324 1993                       l9340 1D64                       l9332 1D0E  
                     l9404 1D00                       l9094 1656                       l9086 163A  
                     l9078 15D1                       l9158 1F3A                       l9246 1FEA  
                     l9238 1FD1                       l9270 1E00                       l9318 1C94  
                     l9326 199C                       l9350 1D7B                       l9342 1D66  
                     l9334 1D14                       l9406 1D06                       l9088 1644  
                     l9096 1669                       l9248 1FF6                       l9280 1E16  
                     l9272 1E05                       l9264 1DEC                       l9328 199F  
                     l8800 1D7A                       l9344 1D68                       l9336 1D3A  
                     l9360 1DA6                       l9352 1D7C                       l9408 1D0D  
                     l9600 08EE                       l8810 1A36                       l8802 1A22  
                     l9098 166F                       l9290 1E3F                       l9282 1E1D  
                     l9274 1E0A                       l9266 1DF3                       l9346 1D76  
                     l9338 1D3E                       l9370 1DDA                       l9362 1DAF  
                     l9354 1D8E                       l9610 0928                       l9602 08F2  
                     l8804 1A28                       l9292 1E41                       l9284 1E22  
                     l9276 1E0C                       l9268 1DFC                       l9348 1D78  
                     l9364 1DC1                       l9356 1D92                       l9372 1DE2  
                     l9380 1CB6                       l9540 19AF                       l9612 092C  
                     l9604 0903                       l9620 146E                       l9700 1B68  
                     l8806 1A2F                       l8814 197E                       l9294 1E48  
                     l9286 1E28                       l9278 1E12                       l9374 1DEB  
                     l9366 1DCF                       l9358 1DA0                       l9390 1CD1  
                     l9382 1CBA                       l9534 19A1                       l9542 19B4  
                     l9614 0948                       l9606 0914                       l9550 0821  
                     l9630 14B5                       l9622 146F                       l9710 1B86  
                     l9702 1B6B                       l8808 1A30                       l8816 1982  
                     l8920 19EF                       l9288 1E39                       l9296 1E50  
                     l9368 1DD1                       l9392 1CD6                       l9384 1CC0  
                     l9376 1CA6                       l9536 19A6                       l9544 19B9  
                     l9608 0918                       l9560 083E                       l9552 0827  
                     l9640 14C8                       l9632 14B6                       l9624 1480  
                     l9616 1454                       l9712 1B8F                       l9704 1B74  
                     l9720 1BEE                       l9800 0F6D                       l8930 1A03  
                     l8922 19F5                       l9298 1E54                       l9394 1CDC  
                     l9386 1CC6                       l9378 1CAD                       l9538 19AB  
                     l9570 085C                       l9562 0844                       l9554 0832  
                     l9546 0803                       l9650 14F4                       l9642 14CC  
                     l9634 14B7                       l9626 1487                       l9618 1467  
                     l9706 1B79                       l9714 19BD                       l9730 1C0B  
                     l9722 1BF5                       l9802 0FDC                       l9810 1A60  
                     l8916 1984                       l8932 1A04                       l8924 19FA  
                     l9396 1CE6                       l9388 1CCA                       l9580 0882  
                     l9572 085E                       l9564 084F                       l9556 0839  
                     l9548 081D                       l9660 151E                       l9652 14F9  
                     l9644 14DD                       l9636 14BD                       l9628 1488  
                     l9708 1B82                       l9716 19C2                       l9732 1C1D  
                     l9724 1BFB                       l9740 10B1                       l9804 0FDE  
                     l9812 1A7A                       l9900 0C98                       l9820 06FA  
                     l8918 1987                       l8926 19FF                       l9398 1CED  
                     l9590 08B3                       l9582 088D                       l9574 0864  
                     l9566 0853                       l9558 083A                       l9662 1525  
                     l9654 14FD                       l9646 14E5                       l9638 14C3  
                     l9670 1B03                       l9718 19C6                       l9734 1C25  
                     l9726 1C01                       l9742 10F6                       l9750 0A1B  
                     l9806 0FFF                       l9910 0D16                       l9902 0CA1  
                     l9830 0719                       l9822 06FF                       l9814 06E6  
                     l8928 1A02                       l9592 08B9                       l9584 089A  
                     l9576 0872                       l9568 0857                       l9664 1541  
                     l9656 150E                       l9648 14ED                       l9672 1B1E  
                     l9680 1B3B                       l9736 1C2A                       l9728 1C05  
                     l9744 10FD                       l9760 0AAF                       l9752 0A35  
                     l9808 1A5C                       l9920 006E                       l9912 0015  
                     l9904 0CC2                       l9832 0729                       l9840 077B  
                     l9824 0706                       l9816 06ED                       l9594 08C4  
                     l9578 087C                       l9586 08A2                       l9658 1516  
                     l9666 1AF3                       l9682 1B54                       l9674 1B1F  
                     l9690 1B5B                       l9738 1C30                       l9762 0AC9  
                     l9754 0A36                       l9746 094C                       l9770 0D30  
                     l9930 0119                       l9922 0077                       l9914 001E  
                     l9906 0CCD                       l9850 07C8                       l9842 0789  
                     l9834 072E                       l9826 070B                       l9818 06F3  
                     l9596 08D1                       l9588 08A9                       l9668 1AFA  
                     l9676 1B26                       l9692 1B5E                       l9684 1B55  
                     l9764 0ACB                       l9748 0952                       l9756 0A37  
                     l9780 0DFF                       l9772 0D32                       l9940 01A9  
                     l9932 0121                       l9924 0080                       l9916 003D  
                     l9908 0CDC                       l9860 0B0B                       l9852 07CD  
                     l9844 078A                       l9836 0765                       l9828 070C  
                     l8990 07EB                       l8798 1D78                       l9598 08DD  
                     l9678 1B34                       l9694 1B5F                       l9686 1B58  
                     l9766 0AFF                       l9758 0A3D                       l9782 0E06  
                     l9774 0D39                       l9790 0E99                       l9950 01ED  
                     l9942 01B0                       l9926 0099                       l9934 0128  
                     l9918 004D                       l9870 0B47                       l9862 0B25  
                     l9846 078E                       l9854 07E1                       l9838 0769  
                     STR_1 109B                       l8992 07EC                       l9696 1B64  
                     l9688 1B5A                       l9792 0EA0                       l9784 0E75  
                     l9776 0DFD                       l9768 0D2C                       l9960 022B  
                     l9952 01F4                       l9944 01B1                       l9936 01A3  
                     l9928 00D9                       l9880 0B9C                       l9872 0B4B  
                     l9864 0B33                       l9856 07E5                       l9848 0791  
                     STR_2 10A6                       STR_3 1086                       l8994 07F2  
                     l9698 1B67                       l9794 0F64                       l9786 0E77  
                     l9778 0DFE                       l9962 0230                       l9970 0245  
                     l9954 020C                       l9946 01E8                       l9938 01A6  
                     l9890 0C1C                       l9882 0BA3                       l9874 0B6A  
                     l9866 0B37                       l9858 0B0A                       STR_4 1094  
                     STR_5 10A1                       l8996 07F8                       l9796 0F65  
                     l9788 0E98                       l9980 0279                       l9972 0255  
                     l9964 0231                       l9956 0212                       l9948 01E9  
                     l9892 0C20                       l9884 0BC8                       l9876 0B93  
                     l9868 0B3C                       STR_6 10AB                       STR_7 10AB  
                     l8998 07FC                       l9798 0F66                       l9982 0287  
                     l9974 025E                       l9990 0304                       l9966 023A  
                     l9958 0224                       l9894 0C27                       l9886 0BCE  
                     l9878 0B98                       l9992 0312                       l9984 028E  
                     l9976 0262                       l9968 023E                       l9896 0C40  
                     l9888 0BF5                       l9994 031B                       l9986 0295  
                     l9978 0269                       l9898 0C79                       l9996 031F  
                     l9988 02FF                       l9998 0326                       _CREN 00C4  
                     u4110 07F2                       u4111 07F1                       u4120 07F8  
                     u4200 131A                       u4121 07F7                       u4201 1319  
                     u4130 1297                       u5010 1DC1                       u4131 1296  
                     u5011 1DC0                       u4220 1336                       u4140 12B2  
                     u4221 1335                       u4141 12B1                       u5005 1DA8  
                     u4230 133E                       u4310 1640                       u5030 1DE0  
                     u5110 1CFA                       u4231 133D                       u4215 1326  
                     u4311 163F                       u5031 1DDF                       u5015 1DBD  
                     u5111 1CF9                       u4160 12F5                       u4320 1644  
                     u4400 1A1E                       u5120 1D00                       u5040 1CAD  
                     u6000 0B6A                       u4161 12F4                       u4321 1643  
                     u4305 162C                       u4401 1A1D                       u5025 1DD2  
                     u5105 1CEE                       u5041 1CAC                       u6001 0B69  
                     u4250 135A                       u4330 164B                       u4410 1AD0  
                     u5050 1CBA                       u6010 0BA3                       u4251 1359  
                     u4155 12E0                       u4331 164A                       u4411 1ACF  
                     u5051 1CB9                       u6011 0BA2                       u4180 130F  
                     u4260 155D                       u4500 1F25                       u5060 1CC6  
                     u6100 004C                       u6020 0BB7                       u4245 134B  
                     u4181 130E                       u4165 12F1                       u4261 155C  
                     u4501 1F24                       u5061 1CC5                       u6101 004B  
                     u4190 1313                       u4350 1667                       u4270 157F  
                     u6110 006E                       u6030 0C20                       u4191 1312  
                     u4175 1302                       u4351 1666                       u4271 157E  
                     u6111 006D                       u6031 0C1F                       u4360 166F  
                     u4440 1AEA                       u4520 1F36                       u5080 1CDA  
                     u6200 0278                       u6120 01AF                       u6040 0C98  
                     u4361 166E                       u4345 1657                       u4441 1AE9  
                     u4425 1AD7                       u4521 1F35                       u5081 1CD9  
                     u6201 0277                       u6121 01AE                       u6105 0048  
                     u6041 0C97                       u6025 0BB2                       u4290 1606  
                     u4530 1F3A                       u4450 1EE3                       u5090 1CE6  
                     u6210 0287                       u6050 0CC2                       u4291 1605  
                     u4435 1ADE                       u4531 1F39                       u4515 1F2A  
                     u5091 1CE5                       u5075 1CCB                       u6211 0286  
                     u6051 0CC1                       _PEIE 005E                       u4380 168B  
                     u4540 1F4B                       u4460 1EEA                       u4700 1FC8  
                     u5500 085C                       u6300 04A3                       u6140 01E7  
                     u6060 0CDC                       u4381 168A                       u4285 15D3  
                     u4461 1EE9                       u4701 1FC7                       u5501 085B  
                     u6301 04A2                       u6205 0274                       u6141 01E6  
                     u6061 0CDB                       u4390 1A10                       u4550 1F58  
                     u5510 0871                       u5430 0821                       u6310 04BE  
                     u6230 0310                       u6150 01F3                       u6070 0015  
                     u4375 167C                       u4295 1602                       u4391 1A0F  
                     u5095 1CE2                       u5511 0870                       u6311 04BD  
                     u6231 030F                       u6151 01F2                       u6135 01B4  
                     u6071 0D26                       u4480 1F07                       u4720 1FE4  
                     u4640 1F6D                       u5600 08C1                       u5440 0827  
                     u6400 0571                       u6320 04D4                       u6240 0333  
                     u6160 0212                       u6080 001E                       u4545 1F47  
                     u4481 1F06                       u4721 1FE3                       u4641 1F6C  
                     u5601 08C0                       u5441 0826                       u6401 0570  
                     u6321 04D3                       u6241 0332                       u6225 02A4  
                     u6161 0211                       u6145 01E3                       u6081 001D  
                     u6065 0CD8                       u4730 1FEA                       u4650 1F82  
                     u4810 1E39                       u5530 0882                       u5450 0831  
                     u6410 057D                       u6330 04DC                       u6250 0343  
                     u6170 0224                       u6090 003D                       u4475 1EF9  
                     u4715 1FD5                       u4811 1E38                       u5531 0881  
                     u5451 0830                       u6411 057C                       u6331 04DB  
                     u6251 0342                       u6171 0223                       u6091 003C  
                     u6075 0D21                       _RCIE 0465                       u3940 1A2E  
                     u4660 1F9D                       u4900 1C9A                       u5620 08D7  
                     u5540 088A                       u5460 083E                       u5700 14AA  
                     u6500 0626                       u6420 0588                       u6340 04EC  
                     u6260 035F                       u6180 022F                       _RCIF 0065  
                     u3941 1A2D                       u4661 1F9C                       u4805 1E29  
                     u4901 1C99                       u5621 08D6                       u5541 0889  
                     u5525 0873                       u6501 0625                       u6421 0587  
                     u6341 04EB                       u6245 032F                       u6181 022E  
                     u3950 1A3C                       u4670 1FA4                       u4830 1E4E  
                     u4750 1DF3                       u4910 199C                       u5630 08DD  
                     u5470 0844                       u5710 14CC                       u6510 0634  
                     u6430 0596                       u6190 0252                       u3951 1A3B  
                     u4495 1F18                       u4671 1FA3                       u4655 1F7E  
                     u4831 1E4D                       u4815 1E35                       u4751 1DF2  
                     u4911 199B                       u5631 08DC                       u5615 08C5  
                     u5471 0843                       u5711 14CB                       u6511 0633  
                     u6431 0595                       u6255 033F                       u6191 0251  
                     u4840 1E54                       u4760 1E00                       u4920 1D14  
                     u5640 08F2                       u5560 08A0                       u5480 084E  
                     u5800 1524                       u6440 05B8                       u6360 0524  
                     u4825 1E42                       u4761 1DFF                       u4921 1D13  
                     u5641 08F1                       u5561 089F                       u5481 084D  
                     u5801 1523                       u5721 14D5                       u5705 14A6  
                     u6441 05B7                       u6361 0523                       u4690 1FC0  
                     u4770 1E12                       u4850 1C52                       u5570 08A8  
                     u5490 0857                       u5722 14DC                       u5810 1AFA  
                     u6530 06C5                       u6450 05CF                       u6370 0530  
                     u6290 0489                       u4691 1FBF                       u4771 1E11  
                     u4851 1C51                       u4931 1D2C                       u5651 090D  
                     u5571 08A7                       u5555 088E                       u5491 0856  
                     u5811 1AF9                       u6531 06C4                       u6451 05CE  
                     u6435 0592                       u6371 052F                       u6355 04F1  
                     u6291 0488                       u6275 03C5                       u6195 024E  
                     u4940 1D3E                       u4932 1D2D                       u5660 0918  
                     u5652 0914                       u5900 0E06                       u6540 06DB  
                     u6460 05DB                       u6380 0544                       u4685 1FB0  
                     u4941 1D3D                       u4933 1D32                       u5661 0917  
                     u5901 0E05                       u6541 06D8                       u6525 0651  
                     u6461 05DA                       u6445 05B4                       u6381 0543  
                     u6365 0520                       u6285 0427                       u4790 1E26  
                     u4870 1C68                       u4934 1D33                       u5590 08B9  
                     u5750 14F3                       u5670 1467                       u5830 1B3A  
                     u5910 0EA0                       u6470 05ED                       u6390 0560  
                     u4791 1E25                       u4871 1C67                       u4951 1D56  
                     u5591 08B8                       u5751 14F2                       u5735 14DE  
                     u5671 1466                       u5831 1B39                       u5911 0E9F  
                     u6535 06C1                       u6471 05EC                       u6391 055F  
                     u4880 1C7C                       u4960 1D76                       u4952 1D57  
                     u5760 14FD                       u5680 1480                       u5840 1BF5  
                     u5920 0F6D                       u6480 0605                       u4785 1E17  
                     u4881 1C7B                       u4865 1C58                       u4961 1D75  
                     u4953 1D5C                       u5585 08AA                       u5761 14FC  
                     u5745 14E6                       u5681 147F                       u5825 1B27  
                     u5841 1BF4                       u5921 0F6C                       u6481 0604  
                     u6385 0540                       u4954 1D5D                       u4970 1D8E  
                     u5690 1498                       u5850 1C46                       u6490 060E  
                     u5930 06F3                       u4971 1D8D                       u5771 1506  
                     u5851 1C45                       u6491 060D                       u6395 055C  
                     u5931 06F2                       u5772 150D                       u5860 0952  
                     u5940 0729                       u4885 1C78                       u4965 1D72  
                     u5861 0951                       u5941 0728                       u4990 1DA4  
                     u5870 0A3D                       u5950 0779                       u4895 1C8C  
                     u4991 1DA3                       u5695 1494                       u5871 0A3C  
                     u5951 0778                       u5880 0D30                       u5960 0789  
                     u4985 1D94                       u5785 150F                       u5881 0D2F  
                     u5961 0788                       u5890 0D39                       u5970 07DD  
                     u5795 1517                       u5891 0D38                       u5971 07DC  
                     u5980 0B33                       u5981 0B30                       u5990 0B37  
                     u5991 0B36                       _SPEN 00C7                       _WREN 0C62  
                     _SYNC 04C4                       _Roll 01CE                       _main 1B95  
             ___ftpack@arg 00A0         __size_of_LCD_Clear 000F               ___ftpack@exp 00A3  
                     btemp 007E                       start 0012               _sprintf$5503 019A  
        ___bmul@multiplier 00B3               ___ftmul@cntr 00D0               ___ftmul@sign 00D1  
            i1___ftmul@exp 003A           _JY62_InfiniteYaw 10B1               ___fttol@exp1 00C1  
           _LCD_ShowString 1BEE               ___fttol@lval 00BD           __end_of_LCD_Init 1B95  
  i1___ftmul@f3_as_product 003B                      l10000 0334                      l10010 036B  
                    l10002 0343                      l10100 0608                      l10020 0492  
                    l10012 03B6                      l10004 034A                      l10110 0634  
                    l10102 060F                      l10030 04BA                      l10022 0496  
                    l10014 0420                      l10006 035F                      l10112 063B  
                    l10104 0616                      l10120 06B5                      l10040 04DC  
                    l10032 04BE                      l10024 049D                      l10016 0424  
                    l10008 0366                      l10114 0642                      l10106 061A  
                    l10050 0525                      l10042 04E3                      l10034 04C2  
                    l10018 048B                      l10026 04A5                      l10122 06C7  
                    l10130 111A                      l10116 06A9                      l10108 0628  
                    l10060 054B                      l10052 0526                      l10044 04E6  
                    l10036 04CE                      l10028 04B6                      l10124 06DD  
                    l10132 114C                      l10140 1B9A                      l10126 06E2  
                    l10118 06B0                      l10070 0584                      l10062 0560  
                    l10054 052A                      l10046 04ED                      l10038 04D4  
                    l10134 1160                      l10150 1BC5                      l10142 1B9F  
                    l10080 05B8                      l10072 0588                      l10064 0569  
                    l10056 0531                      l10048 04EE                      l10136 1172  
                    l10128 10FE                      l10152 1BCA                      l10144 1BAC  
                    l10090 05E2                      l10082 05C6                      l10074 0596  
                    l10066 0571                      l10058 0544                      l10154 1BD0  
                    l10146 1BBB                      l10138 1B95                      l10092 05E7  
                    l10084 05CB                      l10076 059F                      l10068 057D  
                    l10148 1BC0                      l10094 05EE                      l10086 05CF  
                    l10078 05A5                      l10096 05F5                      l10088 05DB  
                    l10098 05F9                      ?_main 0070            __end_of___awdiv 1E62  
                    _EEADR 010D            __end_of___ftadd 0949            __end_of___awmod 1D0E  
                    _DELAY 1A22                      _CARRY 0018            __end_of___ftdiv 1284  
          __end_of___ftneg 19A1            __end_of___lldiv 1DEC            __end_of___ftmul 1542  
          ___awdiv@divisor 00A7            __end_of___llmod 1CA6            __end_of___ftsub 1A7B  
          __end_of___fttol 2000             ?_JY62_ShowData 01B3           __end_of_KEY_Init 1984  
                    _TABLE 004D            ___awdiv@counter 00AC                      _RCREG 001A  
                    _RCSTA 0018                      _SPBRG 0099                      _PORTB 0006  
                    _PORTD 0008                      _TRISA 0085                      _TRISB 0086  
                    _TRISC 0087                      _TRISD 0088                      _TRISE 0089  
                    _TXSTA 0098               ___lltoft@exp 00AD                      _Pitch 01CB  
                    _nRBPU 040F              ___awtoft@sign 00C7                      _scale 0D29  
          __end_of_isdigit 07FF              ___ftpack@sign 00A4                      pclath 000A  
                    status 0003                      wtemp0 007E            __end_of_sprintf 06E3  
         _JY62_ReceiveData 1697         __size_ofi1___ftmul 00EE             i1___ftpack@arg 0070  
           i1___ftpack@exp 0073    JY62_InfiniteYaw@new_yaw 00CF         __size_of_Beep_Init 0007  
   __end_of_LCD_ShowString 1C48  JY62_ShowData@infinite_yaw 01C7               __end_of_main 1BEE  
              ?i1___awtoft 0078                ?i1___ftpack 0070             i1___ftmul@cntr 003E  
           i1___ftmul@sign 003F                     DELAY@i 00A0                  ??_ENABLE1 00A2  
                   ??_main 00F0              ___fttol@sign1 00BC                     ?_DELAY 0070  
        __end_of_LCD_Clear 19CC          JY62_ShowData@roll 01B3       __size_of__tdiv_to_l_ 00E2  
                   _ADCON1 009F           ___llmod@dividend 00B2                     ?_scale 00D2  
                   _EEDATA 010C                     _EECON1 018C                     _EECON2 018D  
         ___awdiv@dividend 00A9                     _ENABLE 19A1           __end_of___awtoft 1B1F  
         __end_of___ftpack 1F5A           __end_of___lltoft 1B55                     i1l5226 1AAD  
                   i1l5227 1AC6                     i1l5180 11F0                     i1l5181 1236  
                   i1l5182 1258                     i1l5190 139A                     i1l5183 1267  
                   i1l5191 13DA                     i1l2871 1A4F                     i1l5192 13EF  
                   i1l2880 17FE                     i1l2872 1A4F                     i1l5193 1406  
                   i1l2881 17FD                     i1l5178 11D7                     i1l5194 140B  
                   i1l2882 17FC                     i1l5179 1283                     i1l5195 1420  
                   i1l2883 16F5                     i1l2875 16B6                     i1l5460 1E84  
                   i1l5196 1437                     i1l5188 1381                     i1l2884 1708  
                   i1l2876 16B5                     i1l5461 1E77                     i1l5189 1453  
                   i1l2877 17FF                     i1l2885 17F7                     i1l5470 1EDC  
                   i1l5462 1E8B                     i1l2878 16D4                     i1l2886 17FF  
                   i1l5463 1EA2                     i1l2879 16D3                     i1l5464 1E8C  
                   i1l5456 1E76                     i1l5465 1EA9                     i1l5466 1EB5  
                   i1l5458 1E6E                     i1l5467 1EAA                     i1l5459 1EDC  
                   i1l5468 1EB9                     i1l5469 1EC3                     i1l9200 1258  
                   i1l9202 1260                     i1l9204 1267                     i1l9206 1283  
                   i1l9170 11D6                     i1l9180 11F6                     i1l9172 11D7  
                   i1l9500 1AAD                     i1l9510 1E75                     i1l9190 122A  
                   i1l9182 11FB                     i1l9174 11E8                     i1l9166 11BC  
                   i1l9502 1AC6                     i1l9520 1E9A                     i1l9512 1E77  
                   i1l9504 1E62                     i1l9192 1236                     i1l9184 120D  
                   i1l9176 11EF                     i1l9168 11CF                     i1l9530 1ED7  
                   i1l9522 1EAA                     i1l9514 1E84                     i1l9506 1E66  
                   i1l9194 123E                     i1l9186 121F                     i1l9178 11F0  
                   i1l9450 1380                     i1l9532 1EDB                     i1l9524 1EB5  
                   i1l9516 1E8C                     i1l9508 1E6E                     i1l9196 124C  
                   i1l9188 1223                     i1l9460 13C7                     i1l9452 1381  
                   i1l9526 1EBD                     i1l9518 1E90                     i1l9198 1256  
                   i1l9470 13DA                     i1l9462 13C8                     i1l9454 1392  
                   i1l9446 1366                     i1l9528 1EC5                     i1l9480 1406  
                   i1l9472 13DE                     i1l9464 13C9                     i1l9456 1399  
                   i1l9448 1379                     u401_20 1A42                     u401_21 1A41  
                   i1l9490 1430                     i1l9482 140B                     i1l9474 13EF  
                   i1l9466 13CF                     i1l9458 139A                     i1l9492 1437  
                   i1l9484 140F                     i1l9476 13F7                     i1l9468 13D5  
                   i1l8940 169A                     i1l9494 1453                     i1l9486 1420  
                   i1l9478 13FF                     i1l8950 16B1                     i1l8942 169B  
                   i1l8934 1A3E                     i1l9488 1428                     i1l9496 1A9F  
                   u410_20 170E                     i1l8960 16CE                     i1l8944 16A0  
                   i1l8952 16B6                     u402_20 16A0                     i1l8936 1A42  
                   u410_21 170D                     u402_21 169F                     i1l9498 1AA4  
                   i1l8970 16EC                     i1l8954 16BC                     i1l8962 16D4  
                   i1l8946 16A6                     i1l8938 1A48                     i1l8980 1701  
                   i1l8972 16ED                     i1l8964 16DA                     i1l8956 16C2  
                   i1l8948 16AE                     i1l8974 16F4                     i1l8982 1708  
                   i1l8966 16E2                     i1l8958 16CA                     i1l8984 170E  
                   i1l8976 16F5                     i1l8968 16E6                     u403_20 16A6  
                   u403_21 16A5                     i1l8986 17F7                     i1l8978 16FD  
                   i1l8988 17FA                     u404_20 16BC                     u404_21 16BB  
                   u405_20 16C2                     u405_21 16C1                     u406_20 16DA  
                   u406_21 16D9                     u407_20 16EC                     u407_21 16EB  
                   u520_20 13BC                     u408_20 16F3                     u408_21 16F2  
                   u520_25 13B8                     u521_20 13DE                     u409_20 1707  
                   u521_21 13DD                     u409_21 1706                     u530_20 1436  
                   u530_21 1435                     u522_21 13E7                     u522_22 13EE  
                   u531_20 1AA4                     u531_21 1AA3                     u523_25 13F0  
                   u540_20 1EBD                     u532_20 1E66                     u540_21 1EBC  
                   u460_25 1237                     u524_25 13F8                     u541_20 1ECE  
                   u533_20 1E6D                     u461_20 124C                     u525_20 1405  
                   u517_20 1379                     u533_21 1E6C                     u461_21 124B  
                   u525_21 1404                     u517_21 1378                     u541_25 1ECA  
                   u461_25 1248                     u542_20 1EDB                     u526_20 140F  
                   u518_20 1392                     u526_21 140E                     u518_21 1391  
                   u534_25 1E7C                     u462_25 1259                     u535_20 1E8A  
                   u463_20 1266                     u519_20 13AA                     u535_21 1E89  
                   u463_21 1265                     u527_21 1418                     u527_22 141F  
                   u519_25 13A6                     u456_20 11CF                     u456_21 11CE  
                   u536_25 1E9B                     u528_25 1421                     u537_20 1EA8  
                   u457_20 11E8                     u537_21 1EA7                     u457_21 11E7  
                   u529_25 1429                     u458_20 1206                     u538_25 1EAD  
                   u458_25 1202                     u539_20 1EB9                     u459_20 1218  
                   u539_21 1EB8                     u459_25 1214            ?_LCD_ShowString 00A2  
                   ___bmul 1A08                     ___ftge 1D0E                     ___wmul 1AC7  
                ??___awdiv 00AB                  ??___ftadd 00D8                  ??___awmod 00A4  
                ??___ftdiv 0026                  ??___ftneg 00A3                  ??___lldiv 00A8  
                ??___ftmul 00C8                  ??___llmod 00B6                  ??___ftsub 00E5  
                ??___fttol 00B8         uart_service@RxData 004C                     _fround 0949  
          ??_JY62_ShowData 00EF           ___awdiv@quotient 00AE            ___awmod@divisor 00A0  
                   _result 006B                     _preres 006A            ___awmod@counter 00A5  
       __size_of_Uart_Init 0019                     clrloop 198C      ___ftmul@f3_as_product 00CD  
        __end_ofi1___ftmul 1454                  ??_isdigit 00A0                     saved_w 007E  
      JY62_ReceiveData@sum 0044          __end_of_Beep_Init 198B                  ??_sprintf 0194  
      __size_ofi1___awtoft 0028        __size_ofi1___ftpack 007B            i1___awtoft@sign 007D  
                ?_LCD_Init 0070                 ___ftadd@f1 00D2                 ___ftadd@f2 00D5  
               ___ftge@ff1 00A0                 ___ftge@ff2 00A3            i1___ftpack@sign 0074  
            __end_of_DELAY 1A3E                 ___ftdiv@f1 0023                 ___ftdiv@f2 0020  
               ___ftdiv@f3 002B                 ___ftneg@f1 00A0                 ___awtoft@c 00C2  
                ?_KEY_Init 0070        ___bmul@multiplicand 00B0                 ___ftmul@f1 00C2  
               ___ftmul@f2 00C5                 ___ftsub@f1 00E2                 ___ftsub@f2 00DF  
               ___fttol@f1 00B4             __pcstackCOMMON 0070               __pidataBANK0 19CC  
               ___lltoft@c 00A8              __end_of_scale 1000                    ??_DELAY 00A0  
               __div_to_l_ 1542            __div_to_l_@exp1 00B3            __div_to_l_@cntr 00B2  
             sprintf@integ 019F   __end_of_JY62_InfiniteYaw 10FE                    ??_scale 00D5  
          __div_to_l_@quot 00AE               sprintf@width 01AA                    ?_ENABLE 0070  
       JY62_ShowData@pitch 01B6                 __pbssBANK0 005D                 __pbssBANK3 01CB  
               ??_LCD_Init 00A2          __end_of_Uart_Init 1A08              __div_to_l_@f1 00A0  
            __div_to_l_@f2 00A3                 ??_KEY_Init 00A0                 __pmaintext 1B95  
                  ?___bmul 00B0                    ?___ftge 00A0                    ?___wmul 00A0  
               __pintentry 0004                    ?_fround 00DF                  ?___awtoft 00C2  
                ?___ftpack 00A0                    _ENABLE1 19AF                  ?___lltoft 00A8  
 __end_of_JY62_ReceiveData 1800            __size_of_ENABLE 000E                 _scale$6337 00D7  
                  _RxIndex 0068                    _RxState 0069            __size_of___bmul 001A  
          __size_of___ftge 006E               ??i1___awtoft 007B               ??i1___ftpack 0075  
                  ___awdiv 1DEC                    ___ftadd 0803                    ___awmod 1CA6  
                  ___ftdiv 11BC                    ___ftneg 1993                    ___lldiv 1D7C  
          __size_of___wmul 002C                    ___ftmul 1454                    ___llmod 1C48  
                  ___ftsub 1A5C                    ___fttol 1F5A                 ??___awtoft 00C5  
               ??___ftpack 00A5            __size_of_fround 01B7                 ??___lltoft 00AC  
              ?__div_to_l_ 00A0                    _dpowers 1010                    _isdigit 07E8  
         ___awmod@dividend 00A2                  _LCD_Clear 19BD                    _sprintf 06E3  
     end_of_initialization 1A9B        JY62_InfiniteYaw@yaw 00C8         __end_ofi1___awtoft 1AC7  
       __end_ofi1___ftpack 1EDD      LCD_ShowString@address 00A7                    init_ram 19E0  
         ??_LCD_ShowString 00A6              ?_uart_service 0070            ___lldiv@divisor 00A0  
          ___lldiv@counter 00AD             __tdiv_to_l_@f1 00A0             __tdiv_to_l_@f2 00A3  
            ??__tdiv_to_l_ 00A6                 ?_LCD_Clear 0070                  i1___ftmul 1366  
                _Beep_Init 1984             __end_of_ENABLE 19AF                ___ftdiv@exp 002E  
           ??_uart_service 0047          __size_of_LCD_Init 0040          LCD_ShowString@col 00A5  
      __size_of__div_to_l_ 0155          LCD_ShowString@row 00A4          LCD_ShowString@str 00A2  
              ___ftmul@exp 00CC          __size_of_KEY_Init 0006             __end_of___bmul 1A22  
           __end_of___ftge 1D7C             __end_of___wmul 1AF3             __end_of_fround 0B00  
    __end_of_JY62_ShowData 11BC        start_initialization 1A7B        __end_of__tdiv_to_l_ 1366  
               ?i1___ftmul 0030                   ??_ENABLE 00A2          ?_JY62_InfiniteYaw 00C8  
         JY62_ShowData@yaw 01B9           JY62_ShowData@str 01BC                 ?_Beep_Init 0070  
       ??_JY62_InfiniteYaw 00CB            ___llmod@divisor 00AE            ___llmod@counter 00B7  
                _Uart_Init 19EF                   ??___bmul 00B1                   ??___ftge 00A6  
                 ??___wmul 00A4                __pdataBANK0 004D                   ??_fround 00E2  
                 ?_ENABLE1 0070                 fround@prec 00EE          __size_of___awtoft 002C  
        __size_of___ftpack 007D          ?_JY62_ReceiveData 0070          __size_of___lltoft 0036  
            __pcstackBANK0 0020              __pcstackBANK1 00A0              __pcstackBANK3 0190  
       ??_JY62_ReceiveData 0040                ??_LCD_Clear 00A2               _isdigit$5858 00A0  
              sprintf@_val 01A2                sprintf@flag 01A6                sprintf@fval 01AC  
              sprintf@prec 01AF                 ?_Uart_Init 0070                   ?___awdiv 00A7  
                 ?___ftadd 00D2                   ?___awmod 00A0                  __ptext930 10FE  
                __ptext931 06E3                  __ptext940 1AF3                  __ptext932 1A5C  
                __ptext941 1454                  __ptext933 0D29                  __ptext950 1DEC  
                __ptext942 0803                  __ptext934 0949                  __ptext951 1F5A  
                __ptext943 19AF                  __ptext935 10B1                  __ptext960 197E  
                __ptext952 1EDD                  __ptext944 19A1                  __ptext936 1BEE  
                __ptext961 1A22                  __ptext953 1AC7                  __ptext945 1CA6  
                __ptext937 19BD                  __ptext962 1A3E                  __ptext954 1A08  
                __ptext946 1D7C                  __ptext938 1B55                  __ptext963 1697  
                __ptext955 1542                  __ptext947 1D0E                  __ptext939 1B1F  
                __ptext964 1A9F                  __ptext956 1284                  __ptext948 1993  
                __ptext965 1366                  __ptext957 07E8                  __ptext949 1C48  
                 ?___ftdiv 0020                  __ptext966 11BC                  __ptext958 19EF  
                __ptext967 1E62                  __ptext959 1984                  __ptext968 0000  
                 ?___ftneg 00A0                   ?___lldiv 00A0                   ?___ftmul 00C2  
                 ?___llmod 00AE                   ?___ftsub 00DF                  __npowers_ 1038  
                 ?___fttol 00B4                  __pstrings 1000                __tdiv_to_l_ 1284  
           __size_of_DELAY 001C               ??__div_to_l_ 00A6       __end_of_uart_service 1A5C  
                 ?_isdigit 0070                ??i1___ftmul 0036                   ?_sprintf 0190  
           __size_of_scale 02D7                ??_Beep_Init 00A0          interrupt_function 0004  
                 _LCD_Init 1B55             ___wmul@product 00A4                   _KEY_Init 197E  
       __end_of__div_to_l_ 1697                __stringbase 100F          ___wmul@multiplier 00A0  
         __size_of_ENABLE1 000E                   _RxBuffer 005D                ??_Uart_Init 00A0  
                init_fetch 19DC          JY62_ReceiveData@i 0045           __size_of___awdiv 0076  
         __size_of___ftadd 0146           __size_of___awmod 0068         _JY62_ShowData$6334 01C9  
         __size_of___ftdiv 00C8           __size_of___ftneg 000E           __size_of___lldiv 0070  
         __size_of___ftmul 00EE           __size_of___llmod 005E           __size_of___ftsub 001F  
         __size_of___fttol 00A6                   ___awtoft 1AF3                   ___ftpack 1EDD  
              _fround$6335 00EB                _fround$6336 00E8                   ___lltoft 1B1F  
               sprintf@exp 01A8     JY62_ReceiveData@RxData 0046           __size_of_isdigit 0017  
                 __powers_ 105F           __size_of_sprintf 0000              __size_of_main 0059  
                 clear_ram 198B  __size_of_JY62_InfiniteYaw 004D      __size_of_uart_service 001E  
  __size_of_LCD_ShowString 005A                   isdigit@c 00A1                   scale@scl 00DA  
                 intlevel1 0000                  sprintf@ap 019E           __tdiv_to_l_@exp1 00AF  
         __tdiv_to_l_@cntr 00AE                  sprintf@sp 01B1           __tdiv_to_l_@quot 00AA  
         ___lldiv@dividend 00A4  __size_of_JY62_ReceiveData 0169               _uart_service 1A3E  
   __size_of_JY62_ShowData 00BE                  stringcode 100A               ?__tdiv_to_l_ 00A0  
                 sprintf@c 01B2                   sprintf@f 0190           ___lldiv@quotient 00A9  
                 stringdir 100A                   stringtab 1000  
